 realmd

 Timestamp is 4aa8bb2f (Thu Sep 10 16:39:11 2009)

 Preferred load address is 00400000

 Start         Length     Name                   Class
 0001:00000000 0004914eH .text                   CODE
 0001:00049150 00005f1cH .text$x                 CODE
 0001:0004f070 000001beH .text$yc                CODE
 0001:0004f230 00000190H .text$yd                CODE
 0002:00000000 000005ccH .idata$5                DATA
 0002:000005cc 00000004H .CRT$XCA                DATA
 0002:000005d0 00000004H .CRT$XCAA               DATA
 0002:000005d4 00000034H .CRT$XCU                DATA
 0002:00000608 00000004H .CRT$XCZ                DATA
 0002:0000060c 00000004H .CRT$XIA                DATA
 0002:00000610 00000004H .CRT$XIAA               DATA
 0002:00000614 00000004H .CRT$XIY                DATA
 0002:00000618 00000004H .CRT$XIZ                DATA
 0002:00000620 000046a0H .rdata                  DATA
 0002:00004cc0 00000044H .rdata$debug            DATA
 0002:00004d04 00000c94H .rdata$r                DATA
 0002:000059a0 00000638H .rdata$sxdata           DATA
 0002:00005fd8 00000004H .rtc$IAA                DATA
 0002:00005fdc 00000004H .rtc$IZZ                DATA
 0002:00005fe0 00000004H .rtc$TAA                DATA
 0002:00005fe4 00000004H .rtc$TZZ                DATA
 0002:00005fe8 0000664cH .xdata$x                DATA
 0002:0000c634 000000dcH .idata$2                DATA
 0002:0000c710 00000014H .idata$3                DATA
 0002:0000c724 000005ccH .idata$4                DATA
 0002:0000ccf0 00002ba2H .idata$6                DATA
 0002:0000f8a0 000011d0H .edata                  DATA
 0003:00000000 00000718H .data                   DATA
 0003:00000718 0000144cH .bss                    DATA
 0004:00000000 00000178H .rsrc$01                DATA
 0004:00000180 000086b8H .rsrc$02                DATA

  Address         Publics by Value              Rva+Base       Lib:Object

 0000:00000000       __except_list              00000000     <absolute>
 0000:0000018e       ___safe_se_handler_count   0000018e     <absolute>
 0000:00009876       __ldused                   00009876     <absolute>
 0000:00009876       __fltused                  00009876     <absolute>
 0000:00000000       ___ImageBase               00400000     <linker-defined>
 0001:00000000       ??0QueryResult@@QAE@_KI@Z  00401000 f i AuthSocket.obj
 0001:00000040       ??1QueryResult@@UAE@XZ     00401040 f i AuthSocket.obj
 0001:00000060       ?Fetch@QueryResult@@QBEPAVField@@XZ 00401060 f i AuthSocket.obj
 0001:00000080       ??AQueryResult@@QBEABVField@@H@Z 00401080 f i AuthSocket.obj
 0001:000000a0       ?GetFieldCount@QueryResult@@QBEIXZ 004010a0 f i AuthSocket.obj
 0001:000000c0       ?GetRowCount@QueryResult@@QBE_KXZ 004010c0 f i AuthSocket.obj
 0001:000000e0       ??0QueryResult@@QAE@ABV0@@Z 004010e0 f i AuthSocket.obj
 0001:00000130       ??4QueryResult@@QAEAAV0@ABV0@@Z 00401130 f i AuthSocket.obj
 0001:00000170       ??_GQueryResult@@UAEPAXI@Z 00401170 f i AuthSocket.obj
 0001:000001a0       ??_EQueryResult@@UAEPAXI@Z 004011a0 f i AuthSocket.obj
 0001:00000210       ??0QueryNamedResult@@QAE@PAVQueryResult@@ABV?$vector@V?$basic_string@DU?$char_traits@D@std@@V?$allocator@D@2@@std@@V?$allocator@V?$basic_string@DU?$char_traits@D@std@@V?$allocator@D@2@@std@@@2@@std@@@Z 00401210 f i AuthSocket.obj
 0001:00000240       ??1QueryNamedResult@@QAE@XZ 00401240 f i AuthSocket.obj
 0001:000002e0       ?NextRow@QueryNamedResult@@QAE_NXZ 004012e0 f i AuthSocket.obj
 0001:00000300       ?Fetch@QueryNamedResult@@QBEPAVField@@XZ 00401300 f i AuthSocket.obj
 0001:00000320       ?GetFieldCount@QueryNamedResult@@QBEIXZ 00401320 f i AuthSocket.obj
 0001:00000340       ?GetRowCount@QueryNamedResult@@QBE_KXZ 00401340 f i AuthSocket.obj
 0001:00000370       ??AQueryNamedResult@@QBEABVField@@H@Z 00401370 f i AuthSocket.obj
 0001:00000390       ??AQueryNamedResult@@QBEABVField@@ABV?$basic_string@DU?$char_traits@D@std@@V?$allocator@D@2@@std@@@Z 00401390 f i AuthSocket.obj
 0001:000003d0       ?GetFieldNames@QueryNamedResult@@QBEABV?$vector@V?$basic_string@DU?$char_traits@D@std@@V?$allocator@D@2@@std@@V?$allocator@V?$basic_string@DU?$char_traits@D@std@@V?$allocator@D@2@@std@@@2@@std@@XZ 004013d0 f i AuthSocket.obj
 0001:000003f0       ?GetField_idx@QueryNamedResult@@QBEIABV?$basic_string@DU?$char_traits@D@std@@V?$allocator@D@2@@std@@@Z 004013f0 f i AuthSocket.obj
 0001:000004f0       ??0QueryNamedResult@@QAE@ABV0@@Z 004014f0 f i AuthSocket.obj
 0001:00000520       ??4QueryNamedResult@@QAEAAV0@ABV0@@Z 00401520 f i AuthSocket.obj
 0001:00000560       ??0Database@@IAE@XZ        00401560 f i AuthSocket.obj
 0001:000005f0       ?BeginTransaction@Database@@UAE_NXZ 004015f0 f i AuthSocket.obj
 0001:00000600       ?CommitTransaction@Database@@UAE_NXZ 00401600 f i AuthSocket.obj
 0001:00000610       ?RollbackTransaction@Database@@UAE_NXZ 00401610 f i AuthSocket.obj
 0001:00000620       ?escape_string@Database@@UAEKPADPBDK@Z 00401620 f i AuthSocket.obj
 0001:00000650       ??0Database@@QAE@ABV0@@Z   00401650 f i AuthSocket.obj
 0001:00000790       ??4Database@@QAEAAV0@ABV0@@Z 00401790 f i AuthSocket.obj
 0001:00000830       ??_GDatabase@@UAEPAXI@Z    00401830 f i AuthSocket.obj
 0001:00000860       ??_EDatabase@@UAEPAXI@Z    00401860 f i AuthSocket.obj
 0001:000008d0       ??1?$hash_map@PAVThread@ACE_Based@@PAVSqlTransaction@@V?$hash_compare@PAVThread@ACE_Based@@U?$less@PAVThread@ACE_Based@@@std@@@stdext@@V?$allocator@U?$pair@QAVThread@ACE_Based@@PAVSqlTransaction@@@std@@@std@@@stdext@@QAE@XZ 004018d0 f i AuthSocket.obj
 0001:000008f0       ??1?$hash_map@PAVThread@ACE_Based@@PAVSqlResultQueue@@V?$hash_compare@PAVThread@ACE_Based@@U?$less@PAVThread@ACE_Based@@@std@@@stdext@@V?$allocator@U?$pair@QAVThread@ACE_Based@@PAVSqlResultQueue@@@std@@@std@@@stdext@@QAE@XZ 004018f0 f i AuthSocket.obj
 0001:00000910       ??BDatabaseMysql@@UBE_NXZ  00401910 f i AuthSocket.obj
 0001:00000930       ?GetFilename@Config@@QBE?AV?$basic_string@DU?$char_traits@D@std@@V?$allocator@D@2@@std@@XZ 00401930 f i AuthSocket.obj
 0001:00000960       ??0Config@@QAE@ABV0@@Z     00401960 f i AuthSocket.obj
 0001:000009a0       ??4Config@@QAEAAV0@ABV0@@Z 004019a0 f i AuthSocket.obj
 0001:000009e0       ??0AuthSocket@@QAE@AAVISocketHandler@@@Z 004019e0 f   AuthSocket.obj
 0001:00000b70       ?Create@Socket@@UAEPAV1@XZ 00401b70 f i AuthSocket.obj
 0001:00000b80       ??_EAuthSocket@@UAEPAXI@Z  00401b80 f i AuthSocket.obj
 0001:00000b80       ??_GAuthSocket@@UAEPAXI@Z  00401b80 f i AuthSocket.obj
 0001:00000bb0       ??1AuthSocket@@UAE@XZ      00401bb0 f   AuthSocket.obj
 0001:00000d40       ?OnAccept@AuthSocket@@UAEXXZ 00401d40 f   AuthSocket.obj
 0001:00000dd0       ?OnRead@AuthSocket@@UAEXXZ 00401dd0 f   AuthSocket.obj
 0001:00000ec0       ?_SetVSFields@AuthSocket@@QAEXABV?$basic_string@DU?$char_traits@D@std@@V?$allocator@D@2@@std@@@Z 00401ec0 f   AuthSocket.obj
 0001:000011d0       ?_HandleLogonChallenge@AuthSocket@@QAE_NXZ 004021d0 f   AuthSocket.obj
 0001:000020b0       ?GetCppString@Field@@QBE?AV?$basic_string@DU?$char_traits@D@std@@V?$allocator@D@2@@std@@XZ 004030b0 f i AuthSocket.obj
 0001:00002100       ?append@ByteBuffer@@QAEXPBEI@Z 00403100 f i AuthSocket.obj
 0001:00002240       ??HBigNumber@@QAE?AV0@ABV0@@Z 00403240 f i AuthSocket.obj
 0001:000022c0       ??DBigNumber@@QAE?AV0@ABV0@@Z 004032c0 f i AuthSocket.obj
 0001:00002340       ??LBigNumber@@QAE?AV0@ABV0@@Z 00403340 f i AuthSocket.obj
 0001:000023c0       ??1ByteBuffer@@QAE@XZ      004033c0 f i AuthSocket.obj
 0001:00002420       ?_HandleLogonProof@AuthSocket@@QAE_NXZ 00403420 f   AuthSocket.obj
 0001:000031a0       ?_HandleReconnectChallenge@AuthSocket@@QAE_NXZ 004041a0 f   AuthSocket.obj
 0001:000035d0       ?_HandleReconnectProof@AuthSocket@@QAE_NXZ 004045d0 f   AuthSocket.obj
 0001:00003910       ?_HandleRealmList@AuthSocket@@QAE_NXZ 00404910 f   AuthSocket.obj
 0001:00003ee0       ??6ByteBuffer@@QAEAAV0@ABV?$basic_string@DU?$char_traits@D@std@@V?$allocator@D@2@@std@@@Z 00404ee0 f i AuthSocket.obj
 0001:00003f40       ?append@ByteBuffer@@QAEXABV1@@Z 00404f40 f i AuthSocket.obj
 0001:00003f90       ?_HandleXferResume@AuthSocket@@QAE_NXZ 00404f90 f   AuthSocket.obj
 0001:000040a0       ?_HandleXferCancel@AuthSocket@@QAE_NXZ 004050a0 f   AuthSocket.obj
 0001:000040d0       ?_HandleXferAccept@AuthSocket@@QAE_NXZ 004050d0 f   AuthSocket.obj
 0001:000041b0       ?IsLag@AuthSocket@@QAE_NXZ 004051b0 f   AuthSocket.obj
 0001:000041e0       ??0PatcherRunnable@@QAE@PAVAuthSocket@@@Z 004051e0 f   AuthSocket.obj
 0001:00004220       ??_GRunnable@ACE_Based@@UAEPAXI@Z 00405220 f i AuthSocket.obj
 0001:00004220       ??_ERunnable@ACE_Based@@UAEPAXI@Z 00405220 f i AuthSocket.obj
 0001:00004270       ??_EPatcherRunnable@@UAEPAXI@Z 00405270 f i AuthSocket.obj
 0001:00004270       ??_GPatcherRunnable@@UAEPAXI@Z 00405270 f i AuthSocket.obj
 0001:000042c0       ?run@PatcherRunnable@@UAEXXZ 004052c0 f   AuthSocket.obj
 0001:00004470       ?LoadPatchesInfo@Patcher@@AAEXXZ 00405470 f   AuthSocket.obj
 0001:000044f0       ?LoadPatchMD5@Patcher@@QAEXPAD@Z 004054f0 f   AuthSocket.obj
 0001:000046e0       ?GetHash@Patcher@@QAE_NPADQAE@Z 004056e0 f   AuthSocket.obj
 0001:00004780       ??0Patcher@@QAE@XZ         00405780 f   AuthSocket.obj
 0001:000047e0       ??1?$map@V?$basic_string@DU?$char_traits@D@std@@V?$allocator@D@2@@std@@PAUPATCH_INFO@@U?$less@V?$basic_string@DU?$char_traits@D@std@@V?$allocator@D@2@@std@@@2@V?$allocator@U?$pair@$$CBV?$basic_string@DU?$char_traits@D@std@@V?$allocator@D@2@@std@@PAUPATCH_INFO@@@std@@@2@@std@@QAE@XZ 004057e0 f i AuthSocket.obj
 0001:00004830       ??1Patcher@@QAE@XZ         00405830 f   AuthSocket.obj
 0001:00004900       ??0?$vector@V?$basic_string@DU?$char_traits@D@std@@V?$allocator@D@2@@std@@V?$allocator@V?$basic_string@DU?$char_traits@D@std@@V?$allocator@D@2@@std@@@2@@std@@QAE@ABV01@@Z 00405900 f i AuthSocket.obj
 0001:00004aa0       ??1?$vector@V?$basic_string@DU?$char_traits@D@std@@V?$allocator@D@2@@std@@V?$allocator@V?$basic_string@DU?$char_traits@D@std@@V?$allocator@D@2@@std@@@2@@std@@QAE@XZ 00405aa0 f i AuthSocket.obj
 0001:00004af0       ??4?$vector@V?$basic_string@DU?$char_traits@D@std@@V?$allocator@D@2@@std@@V?$allocator@V?$basic_string@DU?$char_traits@D@std@@V?$allocator@D@2@@std@@@2@@std@@QAEAAV01@ABV01@@Z 00405af0 f i AuthSocket.obj
 0001:00004fe0       ??0?$hash_map@PAVThread@ACE_Based@@PAVSqlTransaction@@V?$hash_compare@PAVThread@ACE_Based@@U?$less@PAVThread@ACE_Based@@@std@@@stdext@@V?$allocator@U?$pair@QAVThread@ACE_Based@@PAVSqlTransaction@@@std@@@std@@@stdext@@QAE@XZ 00405fe0 f i AuthSocket.obj
 0001:00005010       ??1?$_Hash@V?$_Hmap_traits@PAVThread@ACE_Based@@PAVSqlTransaction@@V?$hash_compare@PAVThread@ACE_Based@@U?$less@PAVThread@ACE_Based@@@std@@@stdext@@V?$allocator@U?$pair@QAVThread@ACE_Based@@PAVSqlTransaction@@@std@@@std@@$0A@@stdext@@@stdext@@QAE@XZ 00406010 f i AuthSocket.obj
 0001:000050c0       ??0?$hash_map@PAVThread@ACE_Based@@PAVSqlResultQueue@@V?$hash_compare@PAVThread@ACE_Based@@U?$less@PAVThread@ACE_Based@@@std@@@stdext@@V?$allocator@U?$pair@QAVThread@ACE_Based@@PAVSqlResultQueue@@@std@@@std@@@stdext@@QAE@XZ 004060c0 f i AuthSocket.obj
 0001:000050f0       ??1?$_Hash@V?$_Hmap_traits@PAVThread@ACE_Based@@PAVSqlResultQueue@@V?$hash_compare@PAVThread@ACE_Based@@U?$less@PAVThread@ACE_Based@@@std@@@stdext@@V?$allocator@U?$pair@QAVThread@ACE_Based@@PAVSqlResultQueue@@@std@@@std@@$0A@@stdext@@@stdext@@QAE@XZ 004060f0 f i AuthSocket.obj
 0001:000051a0       ??0?$vector@EV?$allocator@E@std@@@std@@QAE@XZ 004061a0 f i AuthSocket.obj
 0001:00005210       ??1?$vector@EV?$allocator@E@std@@@std@@QAE@XZ 00406210 f i AuthSocket.obj
 0001:00005260       ?reserve@?$vector@EV?$allocator@E@std@@@std@@QAEXI@Z 00406260 f i AuthSocket.obj
 0001:00005500       ??A?$map@V?$basic_string@DU?$char_traits@D@std@@V?$allocator@D@2@@std@@PAUPATCH_INFO@@U?$less@V?$basic_string@DU?$char_traits@D@std@@V?$allocator@D@2@@std@@@2@V?$allocator@U?$pair@$$CBV?$basic_string@DU?$char_traits@D@std@@V?$allocator@D@2@@std@@PAUPATCH_INFO@@@std@@@2@@std@@QAEAAPAUPATCH_INFO@@ABV?$basic_string@DU?$char_traits@D@std@@V?$allocator@D@2@@1@@Z 00406500 f i AuthSocket.obj
 0001:000055f0       ??1?$_Vector_val@V?$basic_string@DU?$char_traits@D@std@@V?$allocator@D@2@@std@@V?$allocator@V?$basic_string@DU?$char_traits@D@std@@V?$allocator@D@2@@std@@@2@@std@@QAE@XZ 004065f0 f i AuthSocket.obj
 0001:00005600       ??1?$_Vector_val@EV?$allocator@E@std@@@std@@QAE@XZ 00406600 f i AuthSocket.obj
 0001:00005610       ??1?$pair@$$CBV?$basic_string@DU?$char_traits@D@std@@V?$allocator@D@2@@std@@PAUPATCH_INFO@@@std@@QAE@XZ 00406610 f i AuthSocket.obj
 0001:00005630       ??1?$_Tree_val@V?$_Tmap_traits@V?$basic_string@DU?$char_traits@D@std@@V?$allocator@D@2@@std@@PAUPATCH_INFO@@U?$less@V?$basic_string@DU?$char_traits@D@std@@V?$allocator@D@2@@std@@@2@V?$allocator@U?$pair@$$CBV?$basic_string@DU?$char_traits@D@std@@V?$allocator@D@2@@std@@PAUPATCH_INFO@@@std@@@2@$0A@@std@@@std@@QAE@XZ 00406630 f i AuthSocket.obj
 0001:00005640       ?_Buy@?$vector@V?$basic_string@DU?$char_traits@D@std@@V?$allocator@D@2@@std@@V?$allocator@V?$basic_string@DU?$char_traits@D@std@@V?$allocator@D@2@@std@@@2@@std@@IAE_NI@Z 00406640 f i AuthSocket.obj
 0001:000056e0       ?_Tidy@?$vector@V?$basic_string@DU?$char_traits@D@std@@V?$allocator@D@2@@std@@V?$allocator@V?$basic_string@DU?$char_traits@D@std@@V?$allocator@D@2@@std@@@2@@std@@IAEXXZ 004066e0 f i AuthSocket.obj
 0001:000057b0       ??0?$_Hash@V?$_Hmap_traits@PAVThread@ACE_Based@@PAVSqlTransaction@@V?$hash_compare@PAVThread@ACE_Based@@U?$less@PAVThread@ACE_Based@@@std@@@stdext@@V?$allocator@U?$pair@QAVThread@ACE_Based@@PAVSqlTransaction@@@std@@@std@@$0A@@stdext@@@stdext@@QAE@ABV?$hash_compare@PAVThread@ACE_Based@@U?$less@PAVThread@ACE_Based@@@std@@@1@ABV?$allocator@U?$pair@QAVThread@ACE_Based@@PAVSqlTransaction@@@std@@@std@@@Z 004067b0 f i AuthSocket.obj
 0001:00005890       ?_Copy@?$_Hash@V?$_Hmap_traits@PAVThread@ACE_Based@@PAVSqlTransaction@@V?$hash_compare@PAVThread@ACE_Based@@U?$less@PAVThread@ACE_Based@@@std@@@stdext@@V?$allocator@U?$pair@QAVThread@ACE_Based@@PAVSqlTransaction@@@std@@@std@@$0A@@stdext@@@stdext@@IAEXABV12@@Z 00406890 f i AuthSocket.obj
 0001:00005b70       ??0?$list@U?$pair@QAVThread@ACE_Based@@PAVSqlTransaction@@@std@@V?$allocator@U?$pair@QAVThread@ACE_Based@@PAVSqlTransaction@@@std@@@2@@std@@QAE@ABV?$allocator@U?$pair@QAVThread@ACE_Based@@PAVSqlTransaction@@@std@@@1@@Z 00406b70 f i AuthSocket.obj
 0001:00005c10       ??1?$list@U?$pair@QAVThread@ACE_Based@@PAVSqlTransaction@@@std@@V?$allocator@U?$pair@QAVThread@ACE_Based@@PAVSqlTransaction@@@std@@@2@@std@@QAE@XZ 00406c10 f i AuthSocket.obj
 0001:00005c90       ??0?$vector@V?$_Iterator@$0A@@?$list@U?$pair@QAVThread@ACE_Based@@PAVSqlTransaction@@@std@@V?$allocator@U?$pair@QAVThread@ACE_Based@@PAVSqlTransaction@@@std@@@2@@std@@V?$allocator@V?$_Iterator@$0A@@?$list@U?$pair@QAVThread@ACE_Based@@PAVSqlTransaction@@@std@@V?$allocator@U?$pair@QAVThread@ACE_Based@@PAVSqlTransaction@@@std@@@2@@std@@@3@@std@@QAE@ABV?$allocator@V?$_Iterator@$0A@@?$list@U?$pair@QAVThread@ACE_Based@@PAVSqlTransaction@@@std@@V?$allocator@U?$pair@QAVThread@ACE_Based@@PAVSqlTransaction@@@std@@@2@@std@@@1@@Z 00406c90 f i AuthSocket.obj
 0001:00005d00       ??1?$vector@V?$_Iterator@$0A@@?$list@U?$pair@QAVThread@ACE_Based@@PAVSqlTransaction@@@std@@V?$allocator@U?$pair@QAVThread@ACE_Based@@PAVSqlTransaction@@@std@@@2@@std@@V?$allocator@V?$_Iterator@$0A@@?$list@U?$pair@QAVThread@ACE_Based@@PAVSqlTransaction@@@std@@V?$allocator@U?$pair@QAVThread@ACE_Based@@PAVSqlTransaction@@@std@@@2@@std@@@3@@std@@QAE@XZ 00406d00 f i AuthSocket.obj
 0001:00005d50       ??0?$_Hash@V?$_Hmap_traits@PAVThread@ACE_Based@@PAVSqlResultQueue@@V?$hash_compare@PAVThread@ACE_Based@@U?$less@PAVThread@ACE_Based@@@std@@@stdext@@V?$allocator@U?$pair@QAVThread@ACE_Based@@PAVSqlResultQueue@@@std@@@std@@$0A@@stdext@@@stdext@@QAE@ABV?$hash_compare@PAVThread@ACE_Based@@U?$less@PAVThread@ACE_Based@@@std@@@1@ABV?$allocator@U?$pair@QAVThread@ACE_Based@@PAVSqlResultQueue@@@std@@@std@@@Z 00406d50 f i AuthSocket.obj
 0001:00005e30       ?_Copy@?$_Hash@V?$_Hmap_traits@PAVThread@ACE_Based@@PAVSqlResultQueue@@V?$hash_compare@PAVThread@ACE_Based@@U?$less@PAVThread@ACE_Based@@@std@@@stdext@@V?$allocator@U?$pair@QAVThread@ACE_Based@@PAVSqlResultQueue@@@std@@@std@@$0A@@stdext@@@stdext@@IAEXABV12@@Z 00406e30 f i AuthSocket.obj
 0001:00006110       ??0?$list@U?$pair@QAVThread@ACE_Based@@PAVSqlResultQueue@@@std@@V?$allocator@U?$pair@QAVThread@ACE_Based@@PAVSqlResultQueue@@@std@@@2@@std@@QAE@ABV?$allocator@U?$pair@QAVThread@ACE_Based@@PAVSqlResultQueue@@@std@@@1@@Z 00407110 f i AuthSocket.obj
 0001:000061b0       ??1?$list@U?$pair@QAVThread@ACE_Based@@PAVSqlResultQueue@@@std@@V?$allocator@U?$pair@QAVThread@ACE_Based@@PAVSqlResultQueue@@@std@@@2@@std@@QAE@XZ 004071b0 f i AuthSocket.obj
 0001:00006230       ??0?$vector@V?$_Iterator@$0A@@?$list@U?$pair@QAVThread@ACE_Based@@PAVSqlResultQueue@@@std@@V?$allocator@U?$pair@QAVThread@ACE_Based@@PAVSqlResultQueue@@@std@@@2@@std@@V?$allocator@V?$_Iterator@$0A@@?$list@U?$pair@QAVThread@ACE_Based@@PAVSqlResultQueue@@@std@@V?$allocator@U?$pair@QAVThread@ACE_Based@@PAVSqlResultQueue@@@std@@@2@@std@@@3@@std@@QAE@ABV?$allocator@V?$_Iterator@$0A@@?$list@U?$pair@QAVThread@ACE_Based@@PAVSqlResultQueue@@@std@@V?$allocator@U?$pair@QAVThread@ACE_Based@@PAVSqlResultQueue@@@std@@@2@@std@@@1@@Z 00407230 f i AuthSocket.obj
 0001:000062a0       ??1?$vector@V?$_Iterator@$0A@@?$list@U?$pair@QAVThread@ACE_Based@@PAVSqlResultQueue@@@std@@V?$allocator@U?$pair@QAVThread@ACE_Based@@PAVSqlResultQueue@@@std@@@2@@std@@V?$allocator@V?$_Iterator@$0A@@?$list@U?$pair@QAVThread@ACE_Based@@PAVSqlResultQueue@@@std@@V?$allocator@U?$pair@QAVThread@ACE_Based@@PAVSqlResultQueue@@@std@@@2@@std@@@3@@std@@QAE@XZ 004072a0 f i AuthSocket.obj
 0001:000062f0       ?resize@?$vector@EV?$allocator@E@std@@@std@@QAEXIE@Z 004072f0 f i AuthSocket.obj
 0001:000063b0       ?erase@?$vector@EV?$allocator@E@std@@@std@@QAE?AV?$_Vector_iterator@EV?$allocator@E@std@@@2@V?$_Vector_const_iterator@EV?$allocator@E@std@@@2@0@Z 004073b0 f i AuthSocket.obj
 0001:00006490       ?_Buy@?$vector@EV?$allocator@E@std@@@std@@IAE_NI@Z 00407490 f i AuthSocket.obj
 0001:00006530       ?_Tidy@?$vector@EV?$allocator@E@std@@@std@@IAEXXZ 00407530 f i AuthSocket.obj
 0001:000065b0       ?_Xlen@?$vector@EV?$allocator@E@std@@@std@@KAXXZ 004075b0 f i AuthSocket.obj
 0001:00006650       ?what@logic_error@std@@UBEPBDXZ 00407650 f i AuthSocket.obj
 0001:00006670       ??_Glogic_error@std@@UAEPAXI@Z 00407670 f i AuthSocket.obj
 0001:00006670       ??_Elogic_error@std@@UAEPAXI@Z 00407670 f i AuthSocket.obj
 0001:000066c0       ??1length_error@std@@UAE@XZ 004076c0 f i AuthSocket.obj
 0001:00006700       ??_Glength_error@std@@UAEPAXI@Z 00407700 f i AuthSocket.obj
 0001:00006700       ??_Elength_error@std@@UAEPAXI@Z 00407700 f i AuthSocket.obj
 0001:00006750       ??0logic_error@std@@QAE@ABV01@@Z 00407750 f i AuthSocket.obj
 0001:000067d0       ?allocate@?$allocator@E@std@@QAEPAEI@Z 004077d0 f i AuthSocket.obj
 0001:000067f0       ?_Inc@const_iterator@?$_Tree@V?$_Tmap_traits@V?$basic_string@DU?$char_traits@D@std@@V?$allocator@D@2@@std@@URealm@@U?$less@V?$basic_string@DU?$char_traits@D@std@@V?$allocator@D@2@@std@@@2@V?$allocator@U?$pair@$$CBV?$basic_string@DU?$char_traits@D@std@@V?$allocator@D@2@@std@@URealm@@@std@@@2@$0A@@std@@@std@@QAEXXZ 004077f0 f i AuthSocket.obj
 0001:00006890       ??0?$_Tree@V?$_Tmap_traits@V?$basic_string@DU?$char_traits@D@std@@V?$allocator@D@2@@std@@PAUPATCH_INFO@@U?$less@V?$basic_string@DU?$char_traits@D@std@@V?$allocator@D@2@@std@@@2@V?$allocator@U?$pair@$$CBV?$basic_string@DU?$char_traits@D@std@@V?$allocator@D@2@@std@@PAUPATCH_INFO@@@std@@@2@$0A@@std@@@std@@QAE@ABU?$less@V?$basic_string@DU?$char_traits@D@std@@V?$allocator@D@2@@std@@@1@ABV?$allocator@U?$pair@$$CBV?$basic_string@DU?$char_traits@D@std@@V?$allocator@D@2@@std@@PAUPATCH_INFO@@@std@@@1@@Z 00407890 f i AuthSocket.obj
 0001:00006930       ?insert@?$_Tree@V?$_Tmap_traits@V?$basic_string@DU?$char_traits@D@std@@V?$allocator@D@2@@std@@PAUPATCH_INFO@@U?$less@V?$basic_string@DU?$char_traits@D@std@@V?$allocator@D@2@@std@@@2@V?$allocator@U?$pair@$$CBV?$basic_string@DU?$char_traits@D@std@@V?$allocator@D@2@@std@@PAUPATCH_INFO@@@std@@@2@$0A@@std@@@std@@QAE?AViterator@12@Vconst_iterator@12@ABU?$pair@$$CBV?$basic_string@DU?$char_traits@D@std@@V?$allocator@D@2@@std@@PAUPATCH_INFO@@@2@@Z 00407930 f i AuthSocket.obj
 0001:00006f30       ?_Tidy@?$_Tree@V?$_Tmap_traits@V?$basic_string@DU?$char_traits@D@std@@V?$allocator@D@2@@std@@PAUPATCH_INFO@@U?$less@V?$basic_string@DU?$char_traits@D@std@@V?$allocator@D@2@@std@@@2@V?$allocator@U?$pair@$$CBV?$basic_string@DU?$char_traits@D@std@@V?$allocator@D@2@@std@@PAUPATCH_INFO@@@std@@@2@$0A@@std@@@std@@IAEXXZ 00407f30 f i AuthSocket.obj
 0001:00006fc0       ??1?$_List_val@U?$pair@QAVThread@ACE_Based@@PAVSqlTransaction@@@std@@V?$allocator@U?$pair@QAVThread@ACE_Based@@PAVSqlTransaction@@@std@@@2@@std@@QAE@XZ 00407fc0 f i AuthSocket.obj
 0001:00006fd0       ??1?$_Vector_val@V?$_Iterator@$0A@@?$list@U?$pair@QAVThread@ACE_Based@@PAVSqlTransaction@@@std@@V?$allocator@U?$pair@QAVThread@ACE_Based@@PAVSqlTransaction@@@std@@@2@@std@@V?$allocator@V?$_Iterator@$0A@@?$list@U?$pair@QAVThread@ACE_Based@@PAVSqlTransaction@@@std@@V?$allocator@U?$pair@QAVThread@ACE_Based@@PAVSqlTransaction@@@std@@@2@@std@@@3@@std@@QAE@XZ 00407fd0 f i AuthSocket.obj
 0001:00006fe0       ??1?$_List_val@U?$pair@QAVThread@ACE_Based@@PAVSqlResultQueue@@@std@@V?$allocator@U?$pair@QAVThread@ACE_Based@@PAVSqlResultQueue@@@std@@@2@@std@@QAE@XZ 00407fe0 f i AuthSocket.obj
 0001:00006ff0       ??1?$_Vector_val@V?$_Iterator@$0A@@?$list@U?$pair@QAVThread@ACE_Based@@PAVSqlResultQueue@@@std@@V?$allocator@U?$pair@QAVThread@ACE_Based@@PAVSqlResultQueue@@@std@@@2@@std@@V?$allocator@V?$_Iterator@$0A@@?$list@U?$pair@QAVThread@ACE_Based@@PAVSqlResultQueue@@@std@@V?$allocator@U?$pair@QAVThread@ACE_Based@@PAVSqlResultQueue@@@std@@@2@@std@@@3@@std@@QAE@XZ 00407ff0 f i AuthSocket.obj
 0001:00007000       ??0length_error@std@@QAE@ABV01@@Z 00408000 f i AuthSocket.obj
 0001:00007080       ?erase@?$vector@V?$basic_string@DU?$char_traits@D@std@@V?$allocator@D@2@@std@@V?$allocator@V?$basic_string@DU?$char_traits@D@std@@V?$allocator@D@2@@std@@@2@@std@@QAE?AV?$_Vector_iterator@V?$basic_string@DU?$char_traits@D@std@@V?$allocator@D@2@@std@@V?$allocator@V?$basic_string@DU?$char_traits@D@std@@V?$allocator@D@2@@std@@@2@@2@V?$_Vector_const_iterator@V?$basic_string@DU?$char_traits@D@std@@V?$allocator@D@2@@std@@V?$allocator@V?$basic_string@DU?$char_traits@D@std@@V?$allocator@D@2@@std@@@2@@2@0@Z 00408080 f i AuthSocket.obj
 0001:00007190       ?_Xlen@?$vector@V?$basic_string@DU?$char_traits@D@std@@V?$allocator@D@2@@std@@V?$allocator@V?$basic_string@DU?$char_traits@D@std@@V?$allocator@D@2@@std@@@2@@std@@KAXXZ 00408190 f i AuthSocket.obj
 0001:00007230       ?_Init@?$_Hash@V?$_Hmap_traits@PAVThread@ACE_Based@@PAVSqlTransaction@@V?$hash_compare@PAVThread@ACE_Based@@U?$less@PAVThread@ACE_Based@@@std@@@stdext@@V?$allocator@U?$pair@QAVThread@ACE_Based@@PAVSqlTransaction@@@std@@@std@@$0A@@stdext@@@stdext@@IAEXI@Z 00408230 f i AuthSocket.obj
 0001:00007280       ?clear@?$list@U?$pair@QAVThread@ACE_Based@@PAVSqlTransaction@@@std@@V?$allocator@U?$pair@QAVThread@ACE_Based@@PAVSqlTransaction@@@std@@@2@@std@@QAEXXZ 00408280 f i AuthSocket.obj
 0001:00007300       ?_Buynode@?$list@U?$pair@QAVThread@ACE_Based@@PAVSqlTransaction@@@std@@V?$allocator@U?$pair@QAVThread@ACE_Based@@PAVSqlTransaction@@@std@@@2@@std@@IAEPAU_Node@?$_List_nod@U?$pair@QAVThread@ACE_Based@@PAVSqlTransaction@@@std@@V?$allocator@U?$pair@QAVThread@ACE_Based@@PAVSqlTransaction@@@std@@@2@@2@XZ 00408300 f i AuthSocket.obj
 0001:00007400       ?resize@?$vector@V?$_Iterator@$0A@@?$list@U?$pair@QAVThread@ACE_Based@@PAVSqlTransaction@@@std@@V?$allocator@U?$pair@QAVThread@ACE_Based@@PAVSqlTransaction@@@std@@@2@@std@@V?$allocator@V?$_Iterator@$0A@@?$list@U?$pair@QAVThread@ACE_Based@@PAVSqlTransaction@@@std@@V?$allocator@U?$pair@QAVThread@ACE_Based@@PAVSqlTransaction@@@std@@@2@@std@@@3@@std@@QAEXIV?$_Iterator@$0A@@?$list@U?$pair@QAVThread@ACE_Based@@PAVSqlTransaction@@@std@@V?$allocator@U?$pair@QAVThread@ACE_Based@@PAVSqlTransaction@@@std@@@2@@2@@Z 00408400 f i AuthSocket.obj
 0001:000074d0       ?_Buy@?$vector@V?$_Iterator@$0A@@?$list@U?$pair@QAVThread@ACE_Based@@PAVSqlTransaction@@@std@@V?$allocator@U?$pair@QAVThread@ACE_Based@@PAVSqlTransaction@@@std@@@2@@std@@V?$allocator@V?$_Iterator@$0A@@?$list@U?$pair@QAVThread@ACE_Based@@PAVSqlTransaction@@@std@@V?$allocator@U?$pair@QAVThread@ACE_Based@@PAVSqlTransaction@@@std@@@2@@std@@@3@@std@@IAE_NI@Z 004084d0 f i AuthSocket.obj
 0001:00007570       ?_Tidy@?$vector@V?$_Iterator@$0A@@?$list@U?$pair@QAVThread@ACE_Based@@PAVSqlTransaction@@@std@@V?$allocator@U?$pair@QAVThread@ACE_Based@@PAVSqlTransaction@@@std@@@2@@std@@V?$allocator@V?$_Iterator@$0A@@?$list@U?$pair@QAVThread@ACE_Based@@PAVSqlTransaction@@@std@@V?$allocator@U?$pair@QAVThread@ACE_Based@@PAVSqlTransaction@@@std@@@2@@std@@@3@@std@@IAEXXZ 00408570 f i AuthSocket.obj
 0001:00007610       ?_Init@?$_Hash@V?$_Hmap_traits@PAVThread@ACE_Based@@PAVSqlResultQueue@@V?$hash_compare@PAVThread@ACE_Based@@U?$less@PAVThread@ACE_Based@@@std@@@stdext@@V?$allocator@U?$pair@QAVThread@ACE_Based@@PAVSqlResultQueue@@@std@@@std@@$0A@@stdext@@@stdext@@IAEXI@Z 00408610 f i AuthSocket.obj
 0001:00007660       ?clear@?$list@U?$pair@QAVThread@ACE_Based@@PAVSqlResultQueue@@@std@@V?$allocator@U?$pair@QAVThread@ACE_Based@@PAVSqlResultQueue@@@std@@@2@@std@@QAEXXZ 00408660 f i AuthSocket.obj
 0001:000076e0       ?_Buynode@?$list@U?$pair@QAVThread@ACE_Based@@PAVSqlResultQueue@@@std@@V?$allocator@U?$pair@QAVThread@ACE_Based@@PAVSqlResultQueue@@@std@@@2@@std@@IAEPAU_Node@?$_List_nod@U?$pair@QAVThread@ACE_Based@@PAVSqlResultQueue@@@std@@V?$allocator@U?$pair@QAVThread@ACE_Based@@PAVSqlResultQueue@@@std@@@2@@2@XZ 004086e0 f i AuthSocket.obj
 0001:000077e0       ?resize@?$vector@V?$_Iterator@$0A@@?$list@U?$pair@QAVThread@ACE_Based@@PAVSqlResultQueue@@@std@@V?$allocator@U?$pair@QAVThread@ACE_Based@@PAVSqlResultQueue@@@std@@@2@@std@@V?$allocator@V?$_Iterator@$0A@@?$list@U?$pair@QAVThread@ACE_Based@@PAVSqlResultQueue@@@std@@V?$allocator@U?$pair@QAVThread@ACE_Based@@PAVSqlResultQueue@@@std@@@2@@std@@@3@@std@@QAEXIV?$_Iterator@$0A@@?$list@U?$pair@QAVThread@ACE_Based@@PAVSqlResultQueue@@@std@@V?$allocator@U?$pair@QAVThread@ACE_Based@@PAVSqlResultQueue@@@std@@@2@@2@@Z 004087e0 f i AuthSocket.obj
 0001:000078b0       ?_Buy@?$vector@V?$_Iterator@$0A@@?$list@U?$pair@QAVThread@ACE_Based@@PAVSqlResultQueue@@@std@@V?$allocator@U?$pair@QAVThread@ACE_Based@@PAVSqlResultQueue@@@std@@@2@@std@@V?$allocator@V?$_Iterator@$0A@@?$list@U?$pair@QAVThread@ACE_Based@@PAVSqlResultQueue@@@std@@V?$allocator@U?$pair@QAVThread@ACE_Based@@PAVSqlResultQueue@@@std@@@2@@std@@@3@@std@@IAE_NI@Z 004088b0 f i AuthSocket.obj
 0001:00007950       ?_Tidy@?$vector@V?$_Iterator@$0A@@?$list@U?$pair@QAVThread@ACE_Based@@PAVSqlResultQueue@@@std@@V?$allocator@U?$pair@QAVThread@ACE_Based@@PAVSqlResultQueue@@@std@@@2@@std@@V?$allocator@V?$_Iterator@$0A@@?$list@U?$pair@QAVThread@ACE_Based@@PAVSqlResultQueue@@@std@@V?$allocator@U?$pair@QAVThread@ACE_Based@@PAVSqlResultQueue@@@std@@@2@@std@@@3@@std@@IAEXXZ 00408950 f i AuthSocket.obj
 0001:000079f0       ?_Insert_n@?$vector@EV?$allocator@E@std@@@std@@IAEXV?$_Vector_const_iterator@EV?$allocator@E@std@@@2@IABE@Z 004089f0 f i AuthSocket.obj
 0001:00008020       ?insert@?$_Tree@V?$_Tmap_traits@V?$basic_string@DU?$char_traits@D@std@@V?$allocator@D@2@@std@@PAUPATCH_INFO@@U?$less@V?$basic_string@DU?$char_traits@D@std@@V?$allocator@D@2@@std@@@2@V?$allocator@U?$pair@$$CBV?$basic_string@DU?$char_traits@D@std@@V?$allocator@D@2@@std@@PAUPATCH_INFO@@@std@@@2@$0A@@std@@@std@@QAE?AU?$pair@Viterator@?$_Tree@V?$_Tmap_traits@V?$basic_string@DU?$char_traits@D@std@@V?$allocator@D@2@@std@@PAUPATCH_INFO@@U?$less@V?$basic_string@DU?$char_traits@D@std@@V?$allocator@D@2@@std@@@2@V?$allocator@U?$pair@$$CBV?$basic_string@DU?$char_traits@D@std@@V?$allocator@D@2@@std@@PAUPATCH_INFO@@@std@@@2@$0A@@std@@@std@@_N@2@ABU?$pair@$$CBV?$basic_string@DU?$char_traits@D@std@@V?$allocator@D@2@@std@@PAUPATCH_INFO@@@2@@Z 00409020 f i AuthSocket.obj
 0001:00008210       ?erase@?$_Tree@V?$_Tmap_traits@V?$basic_string@DU?$char_traits@D@std@@V?$allocator@D@2@@std@@PAUPATCH_INFO@@U?$less@V?$basic_string@DU?$char_traits@D@std@@V?$allocator@D@2@@std@@@2@V?$allocator@U?$pair@$$CBV?$basic_string@DU?$char_traits@D@std@@V?$allocator@D@2@@std@@PAUPATCH_INFO@@@std@@@2@$0A@@std@@@std@@QAE?AViterator@12@Vconst_iterator@12@0@Z 00409210 f i AuthSocket.obj
 0001:000082f0       ?_Init@?$_Tree@V?$_Tmap_traits@V?$basic_string@DU?$char_traits@D@std@@V?$allocator@D@2@@std@@PAUPATCH_INFO@@U?$less@V?$basic_string@DU?$char_traits@D@std@@V?$allocator@D@2@@std@@@2@V?$allocator@U?$pair@$$CBV?$basic_string@DU?$char_traits@D@std@@V?$allocator@D@2@@std@@PAUPATCH_INFO@@@std@@@2@$0A@@std@@@std@@IAEXXZ 004092f0 f i AuthSocket.obj
 0001:00008360       ?_Insert@?$_Tree@V?$_Tmap_traits@V?$basic_string@DU?$char_traits@D@std@@V?$allocator@D@2@@std@@PAUPATCH_INFO@@U?$less@V?$basic_string@DU?$char_traits@D@std@@V?$allocator@D@2@@std@@@2@V?$allocator@U?$pair@$$CBV?$basic_string@DU?$char_traits@D@std@@V?$allocator@D@2@@std@@PAUPATCH_INFO@@@std@@@2@$0A@@std@@@std@@IAE?AViterator@12@_NPAU_Node@?$_Tree_nod@V?$_Tmap_traits@V?$basic_string@DU?$char_traits@D@std@@V?$allocator@D@2@@std@@PAUPATCH_INFO@@U?$less@V?$basic_string@DU?$char_traits@D@std@@V?$allocator@D@2@@std@@@2@V?$allocator@U?$pair@$$CBV?$basic_string@DU?$char_traits@D@std@@V?$allocator@D@2@@std@@PAUPATCH_INFO@@@std@@@2@$0A@@std@@@2@ABU?$pair@$$CBV?$basic_string@DU?$char_traits@D@std@@V?$allocator@D@2@@std@@PAUPATCH_INFO@@@2@@Z 00409360 f i AuthSocket.obj
 0001:00008710       ??0logic_error@std@@QAE@ABV?$basic_string@DU?$char_traits@D@std@@V?$allocator@D@2@@1@@Z 00409710 f i AuthSocket.obj
 0001:00008780       ?_Lbound@?$_Tree@V?$_Tmap_traits@V?$basic_string@DU?$char_traits@D@std@@V?$allocator@D@2@@std@@PAUPATCH_INFO@@U?$less@V?$basic_string@DU?$char_traits@D@std@@V?$allocator@D@2@@std@@@2@V?$allocator@U?$pair@$$CBV?$basic_string@DU?$char_traits@D@std@@V?$allocator@D@2@@std@@PAUPATCH_INFO@@@std@@@2@$0A@@std@@@std@@IBEPAU_Node@?$_Tree_nod@V?$_Tmap_traits@V?$basic_string@DU?$char_traits@D@std@@V?$allocator@D@2@@std@@PAUPATCH_INFO@@U?$less@V?$basic_string@DU?$char_traits@D@std@@V?$allocator@D@2@@std@@@2@V?$allocator@U?$pair@$$CBV?$basic_string@DU?$char_traits@D@std@@V?$allocator@D@2@@std@@PAUPATCH_INFO@@@std@@@2@$0A@@std@@@2@ABV?$basic_string@DU?$char_traits@D@std@@V?$allocator@D@2@@2@@Z 00409780 f i AuthSocket.obj
 0001:000087f0       ?_Inc@const_iterator@?$_Tree@V?$_Tmap_traits@V?$basic_string@DU?$char_traits@D@std@@V?$allocator@D@2@@std@@PAUPATCH_INFO@@U?$less@V?$basic_string@DU?$char_traits@D@std@@V?$allocator@D@2@@std@@@2@V?$allocator@U?$pair@$$CBV?$basic_string@DU?$char_traits@D@std@@V?$allocator@D@2@@std@@PAUPATCH_INFO@@@std@@@2@$0A@@std@@@std@@QAEXXZ 004097f0 f i AuthSocket.obj
 0001:00008890       ?allocate@?$allocator@U_Node@?$_List_nod@U?$pair@QAVThread@ACE_Based@@PAVSqlTransaction@@@std@@V?$allocator@U?$pair@QAVThread@ACE_Based@@PAVSqlTransaction@@@std@@@2@@std@@@std@@QAEPAU_Node@?$_List_nod@U?$pair@QAVThread@ACE_Based@@PAVSqlTransaction@@@std@@V?$allocator@U?$pair@QAVThread@ACE_Based@@PAVSqlTransaction@@@std@@@2@@2@I@Z 00409890 f i AuthSocket.obj
 0001:000088b0       ?erase@?$vector@V?$_Iterator@$0A@@?$list@U?$pair@QAVThread@ACE_Based@@PAVSqlTransaction@@@std@@V?$allocator@U?$pair@QAVThread@ACE_Based@@PAVSqlTransaction@@@std@@@2@@std@@V?$allocator@V?$_Iterator@$0A@@?$list@U?$pair@QAVThread@ACE_Based@@PAVSqlTransaction@@@std@@V?$allocator@U?$pair@QAVThread@ACE_Based@@PAVSqlTransaction@@@std@@@2@@std@@@3@@std@@QAE?AV?$_Vector_iterator@V?$_Iterator@$0A@@?$list@U?$pair@QAVThread@ACE_Based@@PAVSqlTransaction@@@std@@V?$allocator@U?$pair@QAVThread@ACE_Based@@PAVSqlTransaction@@@std@@@2@@std@@V?$allocator@V?$_Iterator@$0A@@?$list@U?$pair@QAVThread@ACE_Based@@PAVSqlTransaction@@@std@@V?$allocator@U?$pair@QAVThread@ACE_Based@@PAVSqlTransaction@@@std@@@2@@std@@@3@@2@V?$_Vector_const_iterator@V?$_Iterator@$0A@@?$list@U?$pair@QAVThread@ACE_Based@@PAVSqlTransaction@@@std@@V?$allocator@U?$pair@QAVThread@ACE_Based@@PAVSqlTransaction@@@std@@@2@@std@@V?$allocator@V?$_Iterator@$0A@@?$list@U?$pair@QAVThread@ACE_Based@@PAVSqlTransaction@@@std@@V?$allocator@U?$pair@QAVThread@ACE_Based@@PAVSqlTransaction@@@std@@@2@@std@@@3@@2@0@Z 004098b0 f i AuthSocket.obj
 0001:000089a0       ?_Insert_n@?$vector@V?$_Iterator@$0A@@?$list@U?$pair@QAVThread@ACE_Based@@PAVSqlTransaction@@@std@@V?$allocator@U?$pair@QAVThread@ACE_Based@@PAVSqlTransaction@@@std@@@2@@std@@V?$allocator@V?$_Iterator@$0A@@?$list@U?$pair@QAVThread@ACE_Based@@PAVSqlTransaction@@@std@@V?$allocator@U?$pair@QAVThread@ACE_Based@@PAVSqlTransaction@@@std@@@2@@std@@@3@@std@@IAEXV?$_Vector_const_iterator@V?$_Iterator@$0A@@?$list@U?$pair@QAVThread@ACE_Based@@PAVSqlTransaction@@@std@@V?$allocator@U?$pair@QAVThread@ACE_Based@@PAVSqlTransaction@@@std@@@2@@std@@V?$allocator@V?$_Iterator@$0A@@?$list@U?$pair@QAVThread@ACE_Based@@PAVSqlTransaction@@@std@@V?$allocator@U?$pair@QAVThread@ACE_Based@@PAVSqlTransaction@@@std@@@2@@std@@@3@@2@IABV?$_Iterator@$0A@@?$list@U?$pair@QAVThread@ACE_Based@@PAVSqlTransaction@@@std@@V?$allocator@U?$pair@QAVThread@ACE_Based@@PAVSqlTransaction@@@std@@@2@@2@@Z 004099a0 f i AuthSocket.obj
 0001:00009210       ?_Xlen@?$vector@V?$_Iterator@$0A@@?$list@U?$pair@QAVThread@ACE_Based@@PAVSqlTransaction@@@std@@V?$allocator@U?$pair@QAVThread@ACE_Based@@PAVSqlTransaction@@@std@@@2@@std@@V?$allocator@V?$_Iterator@$0A@@?$list@U?$pair@QAVThread@ACE_Based@@PAVSqlTransaction@@@std@@V?$allocator@U?$pair@QAVThread@ACE_Based@@PAVSqlTransaction@@@std@@@2@@std@@@3@@std@@KAXXZ 0040a210 f i AuthSocket.obj
 0001:000092b0       ?allocate@?$allocator@U_Node@?$_List_nod@U?$pair@QAVThread@ACE_Based@@PAVSqlResultQueue@@@std@@V?$allocator@U?$pair@QAVThread@ACE_Based@@PAVSqlResultQueue@@@std@@@2@@std@@@std@@QAEPAU_Node@?$_List_nod@U?$pair@QAVThread@ACE_Based@@PAVSqlResultQueue@@@std@@V?$allocator@U?$pair@QAVThread@ACE_Based@@PAVSqlResultQueue@@@std@@@2@@2@I@Z 0040a2b0 f i AuthSocket.obj
 0001:000092d0       ?erase@?$vector@V?$_Iterator@$0A@@?$list@U?$pair@QAVThread@ACE_Based@@PAVSqlResultQueue@@@std@@V?$allocator@U?$pair@QAVThread@ACE_Based@@PAVSqlResultQueue@@@std@@@2@@std@@V?$allocator@V?$_Iterator@$0A@@?$list@U?$pair@QAVThread@ACE_Based@@PAVSqlResultQueue@@@std@@V?$allocator@U?$pair@QAVThread@ACE_Based@@PAVSqlResultQueue@@@std@@@2@@std@@@3@@std@@QAE?AV?$_Vector_iterator@V?$_Iterator@$0A@@?$list@U?$pair@QAVThread@ACE_Based@@PAVSqlResultQueue@@@std@@V?$allocator@U?$pair@QAVThread@ACE_Based@@PAVSqlResultQueue@@@std@@@2@@std@@V?$allocator@V?$_Iterator@$0A@@?$list@U?$pair@QAVThread@ACE_Based@@PAVSqlResultQueue@@@std@@V?$allocator@U?$pair@QAVThread@ACE_Based@@PAVSqlResultQueue@@@std@@@2@@std@@@3@@2@V?$_Vector_const_iterator@V?$_Iterator@$0A@@?$list@U?$pair@QAVThread@ACE_Based@@PAVSqlResultQueue@@@std@@V?$allocator@U?$pair@QAVThread@ACE_Based@@PAVSqlResultQueue@@@std@@@2@@std@@V?$allocator@V?$_Iterator@$0A@@?$list@U?$pair@QAVThread@ACE_Based@@PAVSqlResultQueue@@@std@@V?$allocator@U?$pair@QAVThread@ACE_Based@@PAVSqlResultQueue@@@std@@@2@@std@@@3@@2@0@Z 0040a2d0 f i AuthSocket.obj
 0001:000093c0       ?_Insert_n@?$vector@V?$_Iterator@$0A@@?$list@U?$pair@QAVThread@ACE_Based@@PAVSqlResultQueue@@@std@@V?$allocator@U?$pair@QAVThread@ACE_Based@@PAVSqlResultQueue@@@std@@@2@@std@@V?$allocator@V?$_Iterator@$0A@@?$list@U?$pair@QAVThread@ACE_Based@@PAVSqlResultQueue@@@std@@V?$allocator@U?$pair@QAVThread@ACE_Based@@PAVSqlResultQueue@@@std@@@2@@std@@@3@@std@@IAEXV?$_Vector_const_iterator@V?$_Iterator@$0A@@?$list@U?$pair@QAVThread@ACE_Based@@PAVSqlResultQueue@@@std@@V?$allocator@U?$pair@QAVThread@ACE_Based@@PAVSqlResultQueue@@@std@@@2@@std@@V?$allocator@V?$_Iterator@$0A@@?$list@U?$pair@QAVThread@ACE_Based@@PAVSqlResultQueue@@@std@@V?$allocator@U?$pair@QAVThread@ACE_Based@@PAVSqlResultQueue@@@std@@@2@@std@@@3@@2@IABV?$_Iterator@$0A@@?$list@U?$pair@QAVThread@ACE_Based@@PAVSqlResultQueue@@@std@@V?$allocator@U?$pair@QAVThread@ACE_Based@@PAVSqlResultQueue@@@std@@@2@@2@@Z 0040a3c0 f i AuthSocket.obj
 0001:00009c30       ?_Xlen@?$vector@V?$_Iterator@$0A@@?$list@U?$pair@QAVThread@ACE_Based@@PAVSqlResultQueue@@@std@@V?$allocator@U?$pair@QAVThread@ACE_Based@@PAVSqlResultQueue@@@std@@@2@@std@@V?$allocator@V?$_Iterator@$0A@@?$list@U?$pair@QAVThread@ACE_Based@@PAVSqlResultQueue@@@std@@V?$allocator@U?$pair@QAVThread@ACE_Based@@PAVSqlResultQueue@@@std@@@2@@std@@@3@@std@@KAXXZ 0040ac30 f i AuthSocket.obj
 0001:00009cd0       ?_Ufill@?$vector@EV?$allocator@E@std@@@std@@IAEPAEPAEIABE@Z 0040acd0 f i AuthSocket.obj
 0001:00009d20       ?erase@?$_Tree@V?$_Tmap_traits@V?$basic_string@DU?$char_traits@D@std@@V?$allocator@D@2@@std@@PAUPATCH_INFO@@U?$less@V?$basic_string@DU?$char_traits@D@std@@V?$allocator@D@2@@std@@@2@V?$allocator@U?$pair@$$CBV?$basic_string@DU?$char_traits@D@std@@V?$allocator@D@2@@std@@PAUPATCH_INFO@@@std@@@2@$0A@@std@@@std@@QAE?AViterator@12@Vconst_iterator@12@@Z 0040ad20 f i AuthSocket.obj
 0001:0000a2f0       ??1out_of_range@std@@UAE@XZ 0040b2f0 f i AuthSocket.obj
 0001:0000a330       ??_Gout_of_range@std@@UAEPAXI@Z 0040b330 f i AuthSocket.obj
 0001:0000a330       ??_Eout_of_range@std@@UAEPAXI@Z 0040b330 f i AuthSocket.obj
 0001:0000a380       ??0out_of_range@std@@QAE@ABV01@@Z 0040b380 f i AuthSocket.obj
 0001:0000a400       ?clear@?$_Tree@V?$_Tmap_traits@V?$basic_string@DU?$char_traits@D@std@@V?$allocator@D@2@@std@@PAUPATCH_INFO@@U?$less@V?$basic_string@DU?$char_traits@D@std@@V?$allocator@D@2@@std@@@2@V?$allocator@U?$pair@$$CBV?$basic_string@DU?$char_traits@D@std@@V?$allocator@D@2@@std@@PAUPATCH_INFO@@@std@@@2@$0A@@std@@@std@@QAEXXZ 0040b400 f i AuthSocket.obj
 0001:0000a460       ?_Lrotate@?$_Tree@V?$_Tmap_traits@V?$basic_string@DU?$char_traits@D@std@@V?$allocator@D@2@@std@@PAUPATCH_INFO@@U?$less@V?$basic_string@DU?$char_traits@D@std@@V?$allocator@D@2@@std@@@2@V?$allocator@U?$pair@$$CBV?$basic_string@DU?$char_traits@D@std@@V?$allocator@D@2@@std@@PAUPATCH_INFO@@@std@@@2@$0A@@std@@@std@@IAEXPAU_Node@?$_Tree_nod@V?$_Tmap_traits@V?$basic_string@DU?$char_traits@D@std@@V?$allocator@D@2@@std@@PAUPATCH_INFO@@U?$less@V?$basic_string@DU?$char_traits@D@std@@V?$allocator@D@2@@std@@@2@V?$allocator@U?$pair@$$CBV?$basic_string@DU?$char_traits@D@std@@V?$allocator@D@2@@std@@PAUPATCH_INFO@@@std@@@2@$0A@@std@@@2@@Z 0040b460 f i AuthSocket.obj
 0001:0000a510       ?_Rrotate@?$_Tree@V?$_Tmap_traits@V?$basic_string@DU?$char_traits@D@std@@V?$allocator@D@2@@std@@PAUPATCH_INFO@@U?$less@V?$basic_string@DU?$char_traits@D@std@@V?$allocator@D@2@@std@@@2@V?$allocator@U?$pair@$$CBV?$basic_string@DU?$char_traits@D@std@@V?$allocator@D@2@@std@@PAUPATCH_INFO@@@std@@@2@$0A@@std@@@std@@IAEXPAU_Node@?$_Tree_nod@V?$_Tmap_traits@V?$basic_string@DU?$char_traits@D@std@@V?$allocator@D@2@@std@@PAUPATCH_INFO@@U?$less@V?$basic_string@DU?$char_traits@D@std@@V?$allocator@D@2@@std@@@2@V?$allocator@U?$pair@$$CBV?$basic_string@DU?$char_traits@D@std@@V?$allocator@D@2@@std@@PAUPATCH_INFO@@@std@@@2@$0A@@std@@@2@@Z 0040b510 f i AuthSocket.obj
 0001:0000a5c0       ?_Buynode@?$_Tree@V?$_Tmap_traits@V?$basic_string@DU?$char_traits@D@std@@V?$allocator@D@2@@std@@PAUPATCH_INFO@@U?$less@V?$basic_string@DU?$char_traits@D@std@@V?$allocator@D@2@@std@@@2@V?$allocator@U?$pair@$$CBV?$basic_string@DU?$char_traits@D@std@@V?$allocator@D@2@@std@@PAUPATCH_INFO@@@std@@@2@$0A@@std@@@std@@IAEPAU_Node@?$_Tree_nod@V?$_Tmap_traits@V?$basic_string@DU?$char_traits@D@std@@V?$allocator@D@2@@std@@PAUPATCH_INFO@@U?$less@V?$basic_string@DU?$char_traits@D@std@@V?$allocator@D@2@@std@@@2@V?$allocator@U?$pair@$$CBV?$basic_string@DU?$char_traits@D@std@@V?$allocator@D@2@@std@@PAUPATCH_INFO@@@std@@@2@$0A@@std@@@2@XZ 0040b5c0 f i AuthSocket.obj
 0001:0000a710       ?_Buynode@?$_Tree@V?$_Tmap_traits@V?$basic_string@DU?$char_traits@D@std@@V?$allocator@D@2@@std@@PAUPATCH_INFO@@U?$less@V?$basic_string@DU?$char_traits@D@std@@V?$allocator@D@2@@std@@@2@V?$allocator@U?$pair@$$CBV?$basic_string@DU?$char_traits@D@std@@V?$allocator@D@2@@std@@PAUPATCH_INFO@@@std@@@2@$0A@@std@@@std@@IAEPAU_Node@?$_Tree_nod@V?$_Tmap_traits@V?$basic_string@DU?$char_traits@D@std@@V?$allocator@D@2@@std@@PAUPATCH_INFO@@U?$less@V?$basic_string@DU?$char_traits@D@std@@V?$allocator@D@2@@std@@@2@V?$allocator@U?$pair@$$CBV?$basic_string@DU?$char_traits@D@std@@V?$allocator@D@2@@std@@PAUPATCH_INFO@@@std@@@2@$0A@@std@@@2@PAU342@00ABU?$pair@$$CBV?$basic_string@DU?$char_traits@D@std@@V?$allocator@D@2@@std@@PAUPATCH_INFO@@@2@D@Z 0040b710 f i AuthSocket.obj
 0001:0000a810       ??3@YAXPAX0@Z              0040b810 f i AuthSocket.obj
 0001:0000a820       ?_Dec@const_iterator@?$_Tree@V?$_Tmap_traits@V?$basic_string@DU?$char_traits@D@std@@V?$allocator@D@2@@std@@PAUPATCH_INFO@@U?$less@V?$basic_string@DU?$char_traits@D@std@@V?$allocator@D@2@@std@@@2@V?$allocator@U?$pair@$$CBV?$basic_string@DU?$char_traits@D@std@@V?$allocator@D@2@@std@@PAUPATCH_INFO@@@std@@@2@$0A@@std@@@std@@QAEXXZ 0040b820 f i AuthSocket.obj
 0001:0000a8f0       ?_Assign_n@?$vector@V?$_Iterator@$0A@@?$list@U?$pair@QAVThread@ACE_Based@@PAVSqlTransaction@@@std@@V?$allocator@U?$pair@QAVThread@ACE_Based@@PAVSqlTransaction@@@std@@@2@@std@@V?$allocator@V?$_Iterator@$0A@@?$list@U?$pair@QAVThread@ACE_Based@@PAVSqlTransaction@@@std@@V?$allocator@U?$pair@QAVThread@ACE_Based@@PAVSqlTransaction@@@std@@@2@@std@@@3@@std@@IAEXIABV?$_Iterator@$0A@@?$list@U?$pair@QAVThread@ACE_Based@@PAVSqlTransaction@@@std@@V?$allocator@U?$pair@QAVThread@ACE_Based@@PAVSqlTransaction@@@std@@@2@@2@@Z 0040b8f0 f i AuthSocket.obj
 0001:0000a970       ?_Assign_n@?$vector@V?$_Iterator@$0A@@?$list@U?$pair@QAVThread@ACE_Based@@PAVSqlResultQueue@@@std@@V?$allocator@U?$pair@QAVThread@ACE_Based@@PAVSqlResultQueue@@@std@@@2@@std@@V?$allocator@V?$_Iterator@$0A@@?$list@U?$pair@QAVThread@ACE_Based@@PAVSqlResultQueue@@@std@@V?$allocator@U?$pair@QAVThread@ACE_Based@@PAVSqlResultQueue@@@std@@@2@@std@@@3@@std@@IAEXIABV?$_Iterator@$0A@@?$list@U?$pair@QAVThread@ACE_Based@@PAVSqlResultQueue@@@std@@V?$allocator@U?$pair@QAVThread@ACE_Based@@PAVSqlResultQueue@@@std@@@2@@2@@Z 0040b970 f i AuthSocket.obj
 0001:0000a9f0       ?_Erase@?$_Tree@V?$_Tmap_traits@V?$basic_string@DU?$char_traits@D@std@@V?$allocator@D@2@@std@@PAUPATCH_INFO@@U?$less@V?$basic_string@DU?$char_traits@D@std@@V?$allocator@D@2@@std@@@2@V?$allocator@U?$pair@$$CBV?$basic_string@DU?$char_traits@D@std@@V?$allocator@D@2@@std@@PAUPATCH_INFO@@@std@@@2@$0A@@std@@@std@@IAEXPAU_Node@?$_Tree_nod@V?$_Tmap_traits@V?$basic_string@DU?$char_traits@D@std@@V?$allocator@D@2@@std@@PAUPATCH_INFO@@U?$less@V?$basic_string@DU?$char_traits@D@std@@V?$allocator@D@2@@std@@@2@V?$allocator@U?$pair@$$CBV?$basic_string@DU?$char_traits@D@std@@V?$allocator@D@2@@std@@PAUPATCH_INFO@@@std@@@2@$0A@@std@@@2@@Z 0040b9f0 f i AuthSocket.obj
 0001:0000aa70       ?allocate@?$allocator@U_Node@?$_Tree_nod@V?$_Tmap_traits@V?$basic_string@DU?$char_traits@D@std@@V?$allocator@D@2@@std@@PAUPATCH_INFO@@U?$less@V?$basic_string@DU?$char_traits@D@std@@V?$allocator@D@2@@std@@@2@V?$allocator@U?$pair@$$CBV?$basic_string@DU?$char_traits@D@std@@V?$allocator@D@2@@std@@PAUPATCH_INFO@@@std@@@2@$0A@@std@@@std@@@std@@QAEPAU_Node@?$_Tree_nod@V?$_Tmap_traits@V?$basic_string@DU?$char_traits@D@std@@V?$allocator@D@2@@std@@PAUPATCH_INFO@@U?$less@V?$basic_string@DU?$char_traits@D@std@@V?$allocator@D@2@@std@@@2@V?$allocator@U?$pair@$$CBV?$basic_string@DU?$char_traits@D@std@@V?$allocator@D@2@@std@@PAUPATCH_INFO@@@std@@@2@$0A@@std@@@2@I@Z 0040ba70 f i AuthSocket.obj
 0001:0000aa90       ??0?$_Tmap_traits@V?$basic_string@DU?$char_traits@D@std@@V?$allocator@D@2@@std@@PAUPATCH_INFO@@U?$less@V?$basic_string@DU?$char_traits@D@std@@V?$allocator@D@2@@std@@@2@V?$allocator@U?$pair@$$CBV?$basic_string@DU?$char_traits@D@std@@V?$allocator@D@2@@std@@PAUPATCH_INFO@@@std@@@2@$0A@@std@@QAE@U?$less@V?$basic_string@DU?$char_traits@D@std@@V?$allocator@D@2@@std@@@1@V?$allocator@U?$pair@$$CBV?$basic_string@DU?$char_traits@D@std@@V?$allocator@D@2@@std@@PAUPATCH_INFO@@@std@@@1@@Z 0040ba90 f i AuthSocket.obj
 0001:0000aab0       ??0?$ACE_Atomic_Op@VACE_Thread_Mutex@@H@@QAE@XZ 0040bab0 f i AuthSocket.obj
 0001:0000ab20       ??1?$ACE_Guard@VACE_Thread_Mutex@@@@QAE@XZ 0040bb20 f i AuthSocket.obj
 0001:0000ab50       ??$_Allocate@E@std@@YAPAEIPAE@Z 0040bb50 f i AuthSocket.obj
 0001:0000abb0       ??1bad_alloc@std@@UAE@XZ   0040bbb0 f i AuthSocket.obj
 0001:0000abd0       ??_Ebad_alloc@std@@UAEPAXI@Z 0040bbd0 f i AuthSocket.obj
 0001:0000abd0       ??_Gbad_alloc@std@@UAEPAXI@Z 0040bbd0 f i AuthSocket.obj
 0001:0000ac10       ??$_Allocate@V?$basic_string@DU?$char_traits@D@std@@V?$allocator@D@2@@std@@@std@@YAPAV?$basic_string@DU?$char_traits@D@std@@V?$allocator@D@2@@0@IPAV10@@Z 0040bc10 f i AuthSocket.obj
 0001:0000ac70       ??$_Unchecked_move_backward@PAEPAE@stdext@@YAPAEPAE00@Z 0040bc70 f i AuthSocket.obj
 0001:0000acf0       ??$_Allocate@U_Node@?$_List_nod@U?$pair@QAVThread@ACE_Based@@PAVSqlTransaction@@@std@@V?$allocator@U?$pair@QAVThread@ACE_Based@@PAVSqlTransaction@@@std@@@2@@std@@@std@@YAPAU_Node@?$_List_nod@U?$pair@QAVThread@ACE_Based@@PAVSqlTransaction@@@std@@V?$allocator@U?$pair@QAVThread@ACE_Based@@PAVSqlTransaction@@@std@@@2@@0@IPAU120@@Z 0040bcf0 f i AuthSocket.obj
 0001:0000ad50       ??$_Allocate@V?$_Iterator@$0A@@?$list@U?$pair@QAVThread@ACE_Based@@PAVSqlTransaction@@@std@@V?$allocator@U?$pair@QAVThread@ACE_Based@@PAVSqlTransaction@@@std@@@2@@std@@@std@@YAPAV?$_Iterator@$0A@@?$list@U?$pair@QAVThread@ACE_Based@@PAVSqlTransaction@@@std@@V?$allocator@U?$pair@QAVThread@ACE_Based@@PAVSqlTransaction@@@std@@@2@@0@IPAV120@@Z 0040bd50 f i AuthSocket.obj
 0001:0000adb0       ??$_Allocate@U_Node@?$_List_nod@U?$pair@QAVThread@ACE_Based@@PAVSqlResultQueue@@@std@@V?$allocator@U?$pair@QAVThread@ACE_Based@@PAVSqlResultQueue@@@std@@@2@@std@@@std@@YAPAU_Node@?$_List_nod@U?$pair@QAVThread@ACE_Based@@PAVSqlResultQueue@@@std@@V?$allocator@U?$pair@QAVThread@ACE_Based@@PAVSqlResultQueue@@@std@@@2@@0@IPAU120@@Z 0040bdb0 f i AuthSocket.obj
 0001:0000ae10       ??$_Allocate@V?$_Iterator@$0A@@?$list@U?$pair@QAVThread@ACE_Based@@PAVSqlResultQueue@@@std@@V?$allocator@U?$pair@QAVThread@ACE_Based@@PAVSqlResultQueue@@@std@@@2@@std@@@std@@YAPAV?$_Iterator@$0A@@?$list@U?$pair@QAVThread@ACE_Based@@PAVSqlResultQueue@@@std@@V?$allocator@U?$pair@QAVThread@ACE_Based@@PAVSqlResultQueue@@@std@@@2@@0@IPAV120@@Z 0040be10 f i AuthSocket.obj
 0001:0000ae70       ??$_Allocate@U_Node@?$_Tree_nod@V?$_Tmap_traits@V?$basic_string@DU?$char_traits@D@std@@V?$allocator@D@2@@std@@PAUPATCH_INFO@@U?$less@V?$basic_string@DU?$char_traits@D@std@@V?$allocator@D@2@@std@@@2@V?$allocator@U?$pair@$$CBV?$basic_string@DU?$char_traits@D@std@@V?$allocator@D@2@@std@@PAUPATCH_INFO@@@std@@@2@$0A@@std@@@std@@@std@@YAPAU_Node@?$_Tree_nod@V?$_Tmap_traits@V?$basic_string@DU?$char_traits@D@std@@V?$allocator@D@2@@std@@PAUPATCH_INFO@@U?$less@V?$basic_string@DU?$char_traits@D@std@@V?$allocator@D@2@@std@@@2@V?$allocator@U?$pair@$$CBV?$basic_string@DU?$char_traits@D@std@@V?$allocator@D@2@@std@@PAUPATCH_INFO@@@std@@@2@$0A@@std@@@0@IPAU120@@Z 0040be70 f i AuthSocket.obj
 0001:0000aed0       ??0bad_alloc@std@@QAE@ABV01@@Z 0040bed0 f i AuthSocket.obj
 0001:0000af00       ??0?$ACE_Atomic_Op_Ex@VACE_Thread_Mutex@@H@@QAE@AAVACE_Thread_Mutex@@@Z 0040bf00 f i AuthSocket.obj
 0001:0000af30       ??$_Insert@V?$_Const_iterator@$0A@@?$list@U?$pair@QAVThread@ACE_Based@@PAVSqlTransaction@@@std@@V?$allocator@U?$pair@QAVThread@ACE_Based@@PAVSqlTransaction@@@std@@@2@@std@@@?$list@U?$pair@QAVThread@ACE_Based@@PAVSqlTransaction@@@std@@V?$allocator@U?$pair@QAVThread@ACE_Based@@PAVSqlTransaction@@@std@@@2@@std@@QAEXV?$_Const_iterator@$0A@@01@00Uforward_iterator_tag@1@@Z 0040bf30 f i AuthSocket.obj
 0001:0000b030       ??$_Fill@V?$_Vector_iterator@V?$_Iterator@$0A@@?$list@U?$pair@QAVThread@ACE_Based@@PAVSqlTransaction@@@std@@V?$allocator@U?$pair@QAVThread@ACE_Based@@PAVSqlTransaction@@@std@@@2@@std@@V?$allocator@V?$_Iterator@$0A@@?$list@U?$pair@QAVThread@ACE_Based@@PAVSqlTransaction@@@std@@V?$allocator@U?$pair@QAVThread@ACE_Based@@PAVSqlTransaction@@@std@@@2@@std@@@3@@std@@V?$_Iterator@$0A@@?$list@U?$pair@QAVThread@ACE_Based@@PAVSqlTransaction@@@std@@V?$allocator@U?$pair@QAVThread@ACE_Based@@PAVSqlTransaction@@@std@@@2@@2@@std@@YAXV?$_Vector_iterator@V?$_Iterator@$0A@@?$list@U?$pair@QAVThread@ACE_Based@@PAVSqlTransaction@@@std@@V?$allocator@U?$pair@QAVThread@ACE_Based@@PAVSqlTransaction@@@std@@@2@@std@@V?$allocator@V?$_Iterator@$0A@@?$list@U?$pair@QAVThread@ACE_Based@@PAVSqlTransaction@@@std@@V?$allocator@U?$pair@QAVThread@ACE_Based@@PAVSqlTransaction@@@std@@@2@@std@@@3@@0@0ABV?$_Iterator@$0A@@?$list@U?$pair@QAVThread@ACE_Based@@PAVSqlTransaction@@@std@@V?$allocator@U?$pair@QAVThread@ACE_Based@@PAVSqlTransaction@@@std@@@2@@0@@Z 0040c030 f i AuthSocket.obj
 0001:0000b070       ??$_Insert@V?$_Const_iterator@$0A@@?$list@U?$pair@QAVThread@ACE_Based@@PAVSqlResultQueue@@@std@@V?$allocator@U?$pair@QAVThread@ACE_Based@@PAVSqlResultQueue@@@std@@@2@@std@@@?$list@U?$pair@QAVThread@ACE_Based@@PAVSqlResultQueue@@@std@@V?$allocator@U?$pair@QAVThread@ACE_Based@@PAVSqlResultQueue@@@std@@@2@@std@@QAEXV?$_Const_iterator@$0A@@01@00Uforward_iterator_tag@1@@Z 0040c070 f i AuthSocket.obj
 0001:0000b170       ??$_Fill@V?$_Vector_iterator@V?$_Iterator@$0A@@?$list@U?$pair@QAVThread@ACE_Based@@PAVSqlResultQueue@@@std@@V?$allocator@U?$pair@QAVThread@ACE_Based@@PAVSqlResultQueue@@@std@@@2@@std@@V?$allocator@V?$_Iterator@$0A@@?$list@U?$pair@QAVThread@ACE_Based@@PAVSqlResultQueue@@@std@@V?$allocator@U?$pair@QAVThread@ACE_Based@@PAVSqlResultQueue@@@std@@@2@@std@@@3@@std@@V?$_Iterator@$0A@@?$list@U?$pair@QAVThread@ACE_Based@@PAVSqlResultQueue@@@std@@V?$allocator@U?$pair@QAVThread@ACE_Based@@PAVSqlResultQueue@@@std@@@2@@2@@std@@YAXV?$_Vector_iterator@V?$_Iterator@$0A@@?$list@U?$pair@QAVThread@ACE_Based@@PAVSqlResultQueue@@@std@@V?$allocator@U?$pair@QAVThread@ACE_Based@@PAVSqlResultQueue@@@std@@@2@@std@@V?$allocator@V?$_Iterator@$0A@@?$list@U?$pair@QAVThread@ACE_Based@@PAVSqlResultQueue@@@std@@V?$allocator@U?$pair@QAVThread@ACE_Based@@PAVSqlResultQueue@@@std@@@2@@std@@@3@@0@0ABV?$_Iterator@$0A@@?$list@U?$pair@QAVThread@ACE_Based@@PAVSqlResultQueue@@@std@@V?$allocator@U?$pair@QAVThread@ACE_Based@@PAVSqlResultQueue@@@std@@@2@@0@@Z 0040c170 f i AuthSocket.obj
 0001:0000b1b0       ??$_Unchecked_uninitialized_move@PAEPAEV?$allocator@E@std@@@stdext@@YAPAEPAE00AAV?$allocator@E@std@@@Z 0040c1b0 f i AuthSocket.obj
 0001:0000b230       ??$_Uninit_fill_n@PAV?$_Iterator@$0A@@?$list@U?$pair@QAVThread@ACE_Based@@PAVSqlTransaction@@@std@@V?$allocator@U?$pair@QAVThread@ACE_Based@@PAVSqlTransaction@@@std@@@2@@std@@IV123@V?$allocator@V?$_Iterator@$0A@@?$list@U?$pair@QAVThread@ACE_Based@@PAVSqlTransaction@@@std@@V?$allocator@U?$pair@QAVThread@ACE_Based@@PAVSqlTransaction@@@std@@@2@@std@@@3@@std@@YAXPAV?$_Iterator@$0A@@?$list@U?$pair@QAVThread@ACE_Based@@PAVSqlTransaction@@@std@@V?$allocator@U?$pair@QAVThread@ACE_Based@@PAVSqlTransaction@@@std@@@2@@0@IABV120@AAV?$allocator@V?$_Iterator@$0A@@?$list@U?$pair@QAVThread@ACE_Based@@PAVSqlTransaction@@@std@@V?$allocator@U?$pair@QAVThread@ACE_Based@@PAVSqlTransaction@@@std@@@2@@std@@@0@U_Nonscalar_ptr_iterator_tag@0@U_Range_checked_iterator_tag@0@@Z 0040c230 f i AuthSocket.obj
 0001:0000b300       ??$_Uninit_fill_n@PAV?$_Iterator@$0A@@?$list@U?$pair@QAVThread@ACE_Based@@PAVSqlResultQueue@@@std@@V?$allocator@U?$pair@QAVThread@ACE_Based@@PAVSqlResultQueue@@@std@@@2@@std@@IV123@V?$allocator@V?$_Iterator@$0A@@?$list@U?$pair@QAVThread@ACE_Based@@PAVSqlResultQueue@@@std@@V?$allocator@U?$pair@QAVThread@ACE_Based@@PAVSqlResultQueue@@@std@@@2@@std@@@3@@std@@YAXPAV?$_Iterator@$0A@@?$list@U?$pair@QAVThread@ACE_Based@@PAVSqlResultQueue@@@std@@V?$allocator@U?$pair@QAVThread@ACE_Based@@PAVSqlResultQueue@@@std@@@2@@0@IABV120@AAV?$allocator@V?$_Iterator@$0A@@?$list@U?$pair@QAVThread@ACE_Based@@PAVSqlResultQueue@@@std@@V?$allocator@U?$pair@QAVThread@ACE_Based@@PAVSqlResultQueue@@@std@@@2@@std@@@0@U_Nonscalar_ptr_iterator_tag@0@U_Range_checked_iterator_tag@0@@Z 0040c300 f i AuthSocket.obj
 0001:0000b3d0       ?_Insert@?$list@U?$pair@QAVThread@ACE_Based@@PAVSqlTransaction@@@std@@V?$allocator@U?$pair@QAVThread@ACE_Based@@PAVSqlTransaction@@@std@@@2@@std@@QAEXV?$_Const_iterator@$0A@@12@ABU?$pair@QAVThread@ACE_Based@@PAVSqlTransaction@@@2@@Z 0040c3d0 f i AuthSocket.obj
 0001:0000b430       ?erase@?$list@U?$pair@QAVThread@ACE_Based@@PAVSqlTransaction@@@std@@V?$allocator@U?$pair@QAVThread@ACE_Based@@PAVSqlTransaction@@@std@@@2@@std@@QAE?AV?$_Iterator@$0A@@12@V?$_Const_iterator@$0A@@12@@Z 0040c430 f i AuthSocket.obj
 0001:0000b4c0       ?_Insert@?$list@U?$pair@QAVThread@ACE_Based@@PAVSqlResultQueue@@@std@@V?$allocator@U?$pair@QAVThread@ACE_Based@@PAVSqlResultQueue@@@std@@@2@@std@@QAEXV?$_Const_iterator@$0A@@12@ABU?$pair@QAVThread@ACE_Based@@PAVSqlResultQueue@@@2@@Z 0040c4c0 f i AuthSocket.obj
 0001:0000b520       ?erase@?$list@U?$pair@QAVThread@ACE_Based@@PAVSqlResultQueue@@@std@@V?$allocator@U?$pair@QAVThread@ACE_Based@@PAVSqlResultQueue@@@std@@@2@@std@@QAE?AV?$_Iterator@$0A@@12@V?$_Const_iterator@$0A@@12@@Z 0040c520 f i AuthSocket.obj
 0001:0000b5b0       ?_Buynode@?$list@U?$pair@QAVThread@ACE_Based@@PAVSqlTransaction@@@std@@V?$allocator@U?$pair@QAVThread@ACE_Based@@PAVSqlTransaction@@@std@@@2@@std@@IAEPAU_Node@?$_List_nod@U?$pair@QAVThread@ACE_Based@@PAVSqlTransaction@@@std@@V?$allocator@U?$pair@QAVThread@ACE_Based@@PAVSqlTransaction@@@std@@@2@@2@PAU342@0ABU?$pair@QAVThread@ACE_Based@@PAVSqlTransaction@@@2@@Z 0040c5b0 f i AuthSocket.obj
 0001:0000b6e0       ?_Incsize@?$list@U?$pair@QAVThread@ACE_Based@@PAVSqlTransaction@@@std@@V?$allocator@U?$pair@QAVThread@ACE_Based@@PAVSqlTransaction@@@std@@@2@@std@@IAEXI@Z 0040c6e0 f i AuthSocket.obj
 0001:0000b7c0       ?_Buynode@?$list@U?$pair@QAVThread@ACE_Based@@PAVSqlResultQueue@@@std@@V?$allocator@U?$pair@QAVThread@ACE_Based@@PAVSqlResultQueue@@@std@@@2@@std@@IAEPAU_Node@?$_List_nod@U?$pair@QAVThread@ACE_Based@@PAVSqlResultQueue@@@std@@V?$allocator@U?$pair@QAVThread@ACE_Based@@PAVSqlResultQueue@@@std@@@2@@2@PAU342@0ABU?$pair@QAVThread@ACE_Based@@PAVSqlResultQueue@@@2@@Z 0040c7c0 f i AuthSocket.obj
 0001:0000b8f0       ?_Incsize@?$list@U?$pair@QAVThread@ACE_Based@@PAVSqlResultQueue@@@std@@V?$allocator@U?$pair@QAVThread@ACE_Based@@PAVSqlResultQueue@@@std@@@2@@std@@IAEXI@Z 0040c8f0 f i AuthSocket.obj
 0001:0000b9d0       ??$_Uninit_copy@V?$_Vector_const_iterator@V?$basic_string@DU?$char_traits@D@std@@V?$allocator@D@2@@std@@V?$allocator@V?$basic_string@DU?$char_traits@D@std@@V?$allocator@D@2@@std@@@2@@std@@PAV?$basic_string@DU?$char_traits@D@std@@V?$allocator@D@2@@2@V?$allocator@V?$basic_string@DU?$char_traits@D@std@@V?$allocator@D@2@@std@@@2@@std@@YAPAV?$basic_string@DU?$char_traits@D@std@@V?$allocator@D@2@@0@V?$_Vector_const_iterator@V?$basic_string@DU?$char_traits@D@std@@V?$allocator@D@2@@std@@V?$allocator@V?$basic_string@DU?$char_traits@D@std@@V?$allocator@D@2@@std@@@2@@0@0PAV10@AAV?$allocator@V?$basic_string@DU?$char_traits@D@std@@V?$allocator@D@2@@std@@@0@U_Nonscalar_ptr_iterator_tag@0@U_Range_checked_iterator_tag@0@@Z 0040c9d0 f i AuthSocket.obj
 0001:0000baf0       ??$_Uninit_copy@PAV?$basic_string@DU?$char_traits@D@std@@V?$allocator@D@2@@std@@PAV12@V?$allocator@V?$basic_string@DU?$char_traits@D@std@@V?$allocator@D@2@@std@@@2@@std@@YAPAV?$basic_string@DU?$char_traits@D@std@@V?$allocator@D@2@@0@PAV10@00AAV?$allocator@V?$basic_string@DU?$char_traits@D@std@@V?$allocator@D@2@@std@@@0@U_Nonscalar_ptr_iterator_tag@0@U_Range_checked_iterator_tag@0@@Z 0040caf0 f i AuthSocket.obj
 0001:0000bbf0       ??$unchecked_fill_n@PAEIE@stdext@@YAXPAEIABE@Z 0040cbf0 f i AuthSocket.obj
 0001:0000bc50       ??$unchecked_uninitialized_copy@PAEPAEV?$allocator@E@std@@@stdext@@YAPAEPAE00AAV?$allocator@E@std@@@Z 0040cc50 f i AuthSocket.obj
 0001:0000bcb0       ??$unchecked_uninitialized_copy@PAV?$_Iterator@$0A@@?$list@U?$pair@QAVThread@ACE_Based@@PAVSqlTransaction@@@std@@V?$allocator@U?$pair@QAVThread@ACE_Based@@PAVSqlTransaction@@@std@@@2@@std@@PAV123@V?$allocator@V?$_Iterator@$0A@@?$list@U?$pair@QAVThread@ACE_Based@@PAVSqlTransaction@@@std@@V?$allocator@U?$pair@QAVThread@ACE_Based@@PAVSqlTransaction@@@std@@@2@@std@@@3@@stdext@@YAPAV?$_Iterator@$0A@@?$list@U?$pair@QAVThread@ACE_Based@@PAVSqlTransaction@@@std@@V?$allocator@U?$pair@QAVThread@ACE_Based@@PAVSqlTransaction@@@std@@@2@@std@@PAV123@00AAV?$allocator@V?$_Iterator@$0A@@?$list@U?$pair@QAVThread@ACE_Based@@PAVSqlTransaction@@@std@@V?$allocator@U?$pair@QAVThread@ACE_Based@@PAVSqlTransaction@@@std@@@2@@std@@@3@@Z 0040ccb0 f i AuthSocket.obj
 0001:0000bcf0       ??$unchecked_uninitialized_copy@PAV?$_Iterator@$0A@@?$list@U?$pair@QAVThread@ACE_Based@@PAVSqlResultQueue@@@std@@V?$allocator@U?$pair@QAVThread@ACE_Based@@PAVSqlResultQueue@@@std@@@2@@std@@PAV123@V?$allocator@V?$_Iterator@$0A@@?$list@U?$pair@QAVThread@ACE_Based@@PAVSqlResultQueue@@@std@@V?$allocator@U?$pair@QAVThread@ACE_Based@@PAVSqlResultQueue@@@std@@@2@@std@@@3@@stdext@@YAPAV?$_Iterator@$0A@@?$list@U?$pair@QAVThread@ACE_Based@@PAVSqlResultQueue@@@std@@V?$allocator@U?$pair@QAVThread@ACE_Based@@PAVSqlResultQueue@@@std@@@2@@std@@PAV123@00AAV?$allocator@V?$_Iterator@$0A@@?$list@U?$pair@QAVThread@ACE_Based@@PAVSqlResultQueue@@@std@@V?$allocator@U?$pair@QAVThread@ACE_Based@@PAVSqlResultQueue@@@std@@@2@@std@@@3@@Z 0040ccf0 f i AuthSocket.obj
 0001:0000bd30       ??$_Uninit_copy@V?$_Vector_iterator@EV?$allocator@E@std@@@std@@PAEV?$allocator@E@2@@std@@YAPAEV?$_Vector_iterator@EV?$allocator@E@std@@@0@0PAEAAV?$allocator@E@0@U_Nonscalar_ptr_iterator_tag@0@U_Range_checked_iterator_tag@0@@Z 0040cd30 f i AuthSocket.obj
 0001:0000be20       ??$_Uninit_copy@PAEPAEV?$allocator@E@std@@@std@@YAPAEPAE00AAV?$allocator@E@0@U_Scalar_ptr_iterator_tag@0@U_Range_checked_iterator_tag@0@@Z 0040ce20 f i AuthSocket.obj
 0001:0000be60       ??$_Uninit_copy@PAV?$_Iterator@$0A@@?$list@U?$pair@QAVThread@ACE_Based@@PAVSqlTransaction@@@std@@V?$allocator@U?$pair@QAVThread@ACE_Based@@PAVSqlTransaction@@@std@@@2@@std@@PAV123@V?$allocator@V?$_Iterator@$0A@@?$list@U?$pair@QAVThread@ACE_Based@@PAVSqlTransaction@@@std@@V?$allocator@U?$pair@QAVThread@ACE_Based@@PAVSqlTransaction@@@std@@@2@@std@@@3@@std@@YAPAV?$_Iterator@$0A@@?$list@U?$pair@QAVThread@ACE_Based@@PAVSqlTransaction@@@std@@V?$allocator@U?$pair@QAVThread@ACE_Based@@PAVSqlTransaction@@@std@@@2@@0@PAV120@00AAV?$allocator@V?$_Iterator@$0A@@?$list@U?$pair@QAVThread@ACE_Based@@PAVSqlTransaction@@@std@@V?$allocator@U?$pair@QAVThread@ACE_Based@@PAVSqlTransaction@@@std@@@2@@std@@@0@U_Nonscalar_ptr_iterator_tag@0@U_Range_checked_iterator_tag@0@@Z 0040ce60 f i AuthSocket.obj
 0001:0000bf30       ??$_Uninit_copy@PAV?$_Iterator@$0A@@?$list@U?$pair@QAVThread@ACE_Based@@PAVSqlResultQueue@@@std@@V?$allocator@U?$pair@QAVThread@ACE_Based@@PAVSqlResultQueue@@@std@@@2@@std@@PAV123@V?$allocator@V?$_Iterator@$0A@@?$list@U?$pair@QAVThread@ACE_Based@@PAVSqlResultQueue@@@std@@V?$allocator@U?$pair@QAVThread@ACE_Based@@PAVSqlResultQueue@@@std@@@2@@std@@@3@@std@@YAPAV?$_Iterator@$0A@@?$list@U?$pair@QAVThread@ACE_Based@@PAVSqlResultQueue@@@std@@V?$allocator@U?$pair@QAVThread@ACE_Based@@PAVSqlResultQueue@@@std@@@2@@0@PAV120@00AAV?$allocator@V?$_Iterator@$0A@@?$list@U?$pair@QAVThread@ACE_Based@@PAVSqlResultQueue@@@std@@V?$allocator@U?$pair@QAVThread@ACE_Based@@PAVSqlResultQueue@@@std@@@2@@std@@@0@U_Nonscalar_ptr_iterator_tag@0@U_Range_checked_iterator_tag@0@@Z 0040cf30 f i AuthSocket.obj
 0001:0000c000       ?usage@@YAXPBD@Z           0040d000 f   Main.obj
 0001:0000c020       _main                      0040d020 f   Main.obj
 0001:0000ca10       ?OnSignal@@YAXH@Z          0040da10 f   Main.obj
 0001:0000ca60       ?StartDB@@YA_NAAV?$basic_string@DU?$char_traits@D@std@@V?$allocator@D@2@@std@@@Z 0040da60 f   Main.obj
 0001:0000cb10       ?HookSignals@@YAXXZ        0040db10 f   Main.obj
 0001:0000cb50       ?UnhookSignals@@YAXXZ      0040db50 f   Main.obj
 0001:0000cb80       ??0?$ListenSocket@VAuthSocket@@@@QAE@AAVISocketHandler@@_N@Z 0040db80 f i Main.obj
 0001:0000cce0       ??1?$ListenSocket@VAuthSocket@@@@UAE@XZ 0040dce0 f i Main.obj
 0001:0000cd80       ?Close@?$ListenSocket@VAuthSocket@@@@UAEHXZ 0040dd80 f i Main.obj
 0001:0000cdb0       ?Bind@?$ListenSocket@VAuthSocket@@@@QAEHABV?$basic_string@DU?$char_traits@D@std@@V?$allocator@D@2@@std@@GH@Z 0040ddb0 f i Main.obj
 0001:0000cf10       ?GetPort@?$ListenSocket@VAuthSocket@@@@UAEGXZ 0040df10 f i Main.obj
 0001:0000cf30       ?OnRead@?$ListenSocket@VAuthSocket@@@@UAEXXZ 0040df30 f i Main.obj
 0001:0000d380       ?Accept@?$ListenSocket@VAuthSocket@@@@UAEIIPAUsockaddr@@PAH@Z 0040e380 f i Main.obj
 0001:0000d3a0       ?OnOptions@?$ListenSocket@VAuthSocket@@@@UAEXHHHI@Z 0040e3a0 f i Main.obj
 0001:0000d3c0       ??_G?$ListenSocket@VAuthSocket@@@@UAEPAXI@Z 0040e3c0 f i Main.obj
 0001:0000d3c0       ??_E?$ListenSocket@VAuthSocket@@@@UAEPAXI@Z 0040e3c0 f i Main.obj
 0001:0000d3f0       ?Bind@?$ListenSocket@VAuthSocket@@@@QAEHAAVSocketAddress@@ABV?$basic_string@DU?$char_traits@D@std@@V?$allocator@D@2@@std@@H@Z 0040e3f0 f i Main.obj
 0001:0000d600       ??1?$_Tree_val@V?$_Tmap_traits@V?$basic_string@DU?$char_traits@D@std@@V?$allocator@D@2@@std@@URealm@@U?$less@V?$basic_string@DU?$char_traits@D@std@@V?$allocator@D@2@@std@@@2@V?$allocator@U?$pair@$$CBV?$basic_string@DU?$char_traits@D@std@@V?$allocator@D@2@@std@@URealm@@@std@@@2@$0A@@std@@@std@@QAE@XZ 0040e600 f i Main.obj
 0001:0000d610       ?_Tidy@?$_Tree@V?$_Tmap_traits@V?$basic_string@DU?$char_traits@D@std@@V?$allocator@D@2@@std@@URealm@@U?$less@V?$basic_string@DU?$char_traits@D@std@@V?$allocator@D@2@@std@@@2@V?$allocator@U?$pair@$$CBV?$basic_string@DU?$char_traits@D@std@@V?$allocator@D@2@@std@@URealm@@@std@@@2@$0A@@std@@@std@@IAEXXZ 0040e610 f i Main.obj
 0001:0000d6a0       ?erase@?$_Tree@V?$_Tmap_traits@V?$basic_string@DU?$char_traits@D@std@@V?$allocator@D@2@@std@@URealm@@U?$less@V?$basic_string@DU?$char_traits@D@std@@V?$allocator@D@2@@std@@@2@V?$allocator@U?$pair@$$CBV?$basic_string@DU?$char_traits@D@std@@V?$allocator@D@2@@std@@URealm@@@std@@@2@$0A@@std@@@std@@QAE?AViterator@12@Vconst_iterator@12@0@Z 0040e6a0 f i Main.obj
 0001:0000d780       ?erase@?$_Tree@V?$_Tmap_traits@V?$basic_string@DU?$char_traits@D@std@@V?$allocator@D@2@@std@@URealm@@U?$less@V?$basic_string@DU?$char_traits@D@std@@V?$allocator@D@2@@std@@@2@V?$allocator@U?$pair@$$CBV?$basic_string@DU?$char_traits@D@std@@V?$allocator@D@2@@std@@URealm@@@std@@@2@$0A@@std@@@std@@QAE?AViterator@12@Vconst_iterator@12@@Z 0040e780 f i Main.obj
 0001:0000dd30       ?clear@?$_Tree@V?$_Tmap_traits@V?$basic_string@DU?$char_traits@D@std@@V?$allocator@D@2@@std@@URealm@@U?$less@V?$basic_string@DU?$char_traits@D@std@@V?$allocator@D@2@@std@@@2@V?$allocator@U?$pair@$$CBV?$basic_string@DU?$char_traits@D@std@@V?$allocator@D@2@@std@@URealm@@@std@@@2@$0A@@std@@@std@@QAEXXZ 0040ed30 f i Main.obj
 0001:0000dd90       ?_Erase@?$_Tree@V?$_Tmap_traits@V?$basic_string@DU?$char_traits@D@std@@V?$allocator@D@2@@std@@URealm@@U?$less@V?$basic_string@DU?$char_traits@D@std@@V?$allocator@D@2@@std@@@2@V?$allocator@U?$pair@$$CBV?$basic_string@DU?$char_traits@D@std@@V?$allocator@D@2@@std@@URealm@@@std@@@2@$0A@@std@@@std@@IAEXPAU_Node@?$_Tree_nod@V?$_Tmap_traits@V?$basic_string@DU?$char_traits@D@std@@V?$allocator@D@2@@std@@URealm@@U?$less@V?$basic_string@DU?$char_traits@D@std@@V?$allocator@D@2@@std@@@2@V?$allocator@U?$pair@$$CBV?$basic_string@DU?$char_traits@D@std@@V?$allocator@D@2@@std@@URealm@@@std@@@2@$0A@@std@@@2@@Z 0040ed90 f i Main.obj
 0001:0000ddf0       ?_Lrotate@?$_Tree@V?$_Tmap_traits@V?$basic_string@DU?$char_traits@D@std@@V?$allocator@D@2@@std@@URealm@@U?$less@V?$basic_string@DU?$char_traits@D@std@@V?$allocator@D@2@@std@@@2@V?$allocator@U?$pair@$$CBV?$basic_string@DU?$char_traits@D@std@@V?$allocator@D@2@@std@@URealm@@@std@@@2@$0A@@std@@@std@@IAEXPAU_Node@?$_Tree_nod@V?$_Tmap_traits@V?$basic_string@DU?$char_traits@D@std@@V?$allocator@D@2@@std@@URealm@@U?$less@V?$basic_string@DU?$char_traits@D@std@@V?$allocator@D@2@@std@@@2@V?$allocator@U?$pair@$$CBV?$basic_string@DU?$char_traits@D@std@@V?$allocator@D@2@@std@@URealm@@@std@@@2@$0A@@std@@@2@@Z 0040edf0 f i Main.obj
 0001:0000dea0       ?_Rrotate@?$_Tree@V?$_Tmap_traits@V?$basic_string@DU?$char_traits@D@std@@V?$allocator@D@2@@std@@URealm@@U?$less@V?$basic_string@DU?$char_traits@D@std@@V?$allocator@D@2@@std@@@2@V?$allocator@U?$pair@$$CBV?$basic_string@DU?$char_traits@D@std@@V?$allocator@D@2@@std@@URealm@@@std@@@2@$0A@@std@@@std@@IAEXPAU_Node@?$_Tree_nod@V?$_Tmap_traits@V?$basic_string@DU?$char_traits@D@std@@V?$allocator@D@2@@std@@URealm@@U?$less@V?$basic_string@DU?$char_traits@D@std@@V?$allocator@D@2@@std@@@2@V?$allocator@U?$pair@$$CBV?$basic_string@DU?$char_traits@D@std@@V?$allocator@D@2@@std@@URealm@@@std@@@2@$0A@@std@@@2@@Z 0040eea0 f i Main.obj
 0001:0000df50       ??$_Destroy@U_Node@?$_Tree_nod@V?$_Tmap_traits@V?$basic_string@DU?$char_traits@D@std@@V?$allocator@D@2@@std@@URealm@@U?$less@V?$basic_string@DU?$char_traits@D@std@@V?$allocator@D@2@@std@@@2@V?$allocator@U?$pair@$$CBV?$basic_string@DU?$char_traits@D@std@@V?$allocator@D@2@@std@@URealm@@@std@@@2@$0A@@std@@@std@@@std@@YAXPAU_Node@?$_Tree_nod@V?$_Tmap_traits@V?$basic_string@DU?$char_traits@D@std@@V?$allocator@D@2@@std@@URealm@@U?$less@V?$basic_string@DU?$char_traits@D@std@@V?$allocator@D@2@@std@@@2@V?$allocator@U?$pair@$$CBV?$basic_string@DU?$char_traits@D@std@@V?$allocator@D@2@@std@@URealm@@@std@@@2@$0A@@std@@@0@@Z 0040ef50 f i Main.obj
 0001:0000dfd0       ??0RealmList@@QAE@XZ       0040efd0 f   RealmList.obj
 0001:0000e010       ?Initialize@RealmList@@QAEXI@Z 0040f010 f   RealmList.obj
 0001:0000e030       ?UpdateRealm@RealmList@@AAEXIABV?$basic_string@DU?$char_traits@D@std@@V?$allocator@D@2@@std@@0IEEEW4AccountTypes@@M@Z 0040f030 f   RealmList.obj
 0001:0000e160       ?UpdateIfNeed@RealmList@@QAEXXZ 0040f160 f   RealmList.obj
 0001:0000e1f0       ?UpdateRealms@RealmList@@AAEX_N@Z 0040f1f0 f   RealmList.obj
 0001:0000e510       ??A?$map@V?$basic_string@DU?$char_traits@D@std@@V?$allocator@D@2@@std@@URealm@@U?$less@V?$basic_string@DU?$char_traits@D@std@@V?$allocator@D@2@@std@@@2@V?$allocator@U?$pair@$$CBV?$basic_string@DU?$char_traits@D@std@@V?$allocator@D@2@@std@@URealm@@@std@@@2@@std@@QAEAAURealm@@ABV?$basic_string@DU?$char_traits@D@std@@V?$allocator@D@2@@1@@Z 0040f510 f i RealmList.obj
 0001:0000e680       ??0?$Singleton@VRealmList@@V?$SingleThreaded@VRealmList@@@MaNGOS@@V?$OperatorNew@VRealmList@@@3@V?$ObjectLifeTime@VRealmList@@@3@@MaNGOS@@IAE@XZ 0040f680 f i RealmList.obj
 0001:0000e690       ??1Realm@@QAE@XZ           0040f690 f i RealmList.obj
 0001:0000e6b0       ??1?$pair@$$CBV?$basic_string@DU?$char_traits@D@std@@V?$allocator@D@2@@std@@URealm@@@std@@QAE@XZ 0040f6b0 f i RealmList.obj
 0001:0000e710       ??0?$_Tree@V?$_Tmap_traits@V?$basic_string@DU?$char_traits@D@std@@V?$allocator@D@2@@std@@URealm@@U?$less@V?$basic_string@DU?$char_traits@D@std@@V?$allocator@D@2@@std@@@2@V?$allocator@U?$pair@$$CBV?$basic_string@DU?$char_traits@D@std@@V?$allocator@D@2@@std@@URealm@@@std@@@2@$0A@@std@@@std@@QAE@ABU?$less@V?$basic_string@DU?$char_traits@D@std@@V?$allocator@D@2@@std@@@1@ABV?$allocator@U?$pair@$$CBV?$basic_string@DU?$char_traits@D@std@@V?$allocator@D@2@@std@@URealm@@@std@@@1@@Z 0040f710 f i RealmList.obj
 0001:0000e7b0       ?insert@?$_Tree@V?$_Tmap_traits@V?$basic_string@DU?$char_traits@D@std@@V?$allocator@D@2@@std@@URealm@@U?$less@V?$basic_string@DU?$char_traits@D@std@@V?$allocator@D@2@@std@@@2@V?$allocator@U?$pair@$$CBV?$basic_string@DU?$char_traits@D@std@@V?$allocator@D@2@@std@@URealm@@@std@@@2@$0A@@std@@@std@@QAE?AViterator@12@Vconst_iterator@12@ABU?$pair@$$CBV?$basic_string@DU?$char_traits@D@std@@V?$allocator@D@2@@std@@URealm@@@2@@Z 0040f7b0 f i RealmList.obj
 0001:0000edb0       ??0Realm@@QAE@ABU0@@Z      0040fdb0 f i RealmList.obj
 0001:0000ee20       ?insert@?$_Tree@V?$_Tmap_traits@V?$basic_string@DU?$char_traits@D@std@@V?$allocator@D@2@@std@@URealm@@U?$less@V?$basic_string@DU?$char_traits@D@std@@V?$allocator@D@2@@std@@@2@V?$allocator@U?$pair@$$CBV?$basic_string@DU?$char_traits@D@std@@V?$allocator@D@2@@std@@URealm@@@std@@@2@$0A@@std@@@std@@QAE?AU?$pair@Viterator@?$_Tree@V?$_Tmap_traits@V?$basic_string@DU?$char_traits@D@std@@V?$allocator@D@2@@std@@URealm@@U?$less@V?$basic_string@DU?$char_traits@D@std@@V?$allocator@D@2@@std@@@2@V?$allocator@U?$pair@$$CBV?$basic_string@DU?$char_traits@D@std@@V?$allocator@D@2@@std@@URealm@@@std@@@2@$0A@@std@@@std@@_N@2@ABU?$pair@$$CBV?$basic_string@DU?$char_traits@D@std@@V?$allocator@D@2@@std@@URealm@@@2@@Z 0040fe20 f i RealmList.obj
 0001:0000f010       ?_Init@?$_Tree@V?$_Tmap_traits@V?$basic_string@DU?$char_traits@D@std@@V?$allocator@D@2@@std@@URealm@@U?$less@V?$basic_string@DU?$char_traits@D@std@@V?$allocator@D@2@@std@@@2@V?$allocator@U?$pair@$$CBV?$basic_string@DU?$char_traits@D@std@@V?$allocator@D@2@@std@@URealm@@@std@@@2@$0A@@std@@@std@@IAEXXZ 00410010 f i RealmList.obj
 0001:0000f080       ?_Insert@?$_Tree@V?$_Tmap_traits@V?$basic_string@DU?$char_traits@D@std@@V?$allocator@D@2@@std@@URealm@@U?$less@V?$basic_string@DU?$char_traits@D@std@@V?$allocator@D@2@@std@@@2@V?$allocator@U?$pair@$$CBV?$basic_string@DU?$char_traits@D@std@@V?$allocator@D@2@@std@@URealm@@@std@@@2@$0A@@std@@@std@@IAE?AViterator@12@_NPAU_Node@?$_Tree_nod@V?$_Tmap_traits@V?$basic_string@DU?$char_traits@D@std@@V?$allocator@D@2@@std@@URealm@@U?$less@V?$basic_string@DU?$char_traits@D@std@@V?$allocator@D@2@@std@@@2@V?$allocator@U?$pair@$$CBV?$basic_string@DU?$char_traits@D@std@@V?$allocator@D@2@@std@@URealm@@@std@@@2@$0A@@std@@@2@ABU?$pair@$$CBV?$basic_string@DU?$char_traits@D@std@@V?$allocator@D@2@@std@@URealm@@@2@@Z 00410080 f i RealmList.obj
 0001:0000f430       ?_Lbound@?$_Tree@V?$_Tmap_traits@V?$basic_string@DU?$char_traits@D@std@@V?$allocator@D@2@@std@@URealm@@U?$less@V?$basic_string@DU?$char_traits@D@std@@V?$allocator@D@2@@std@@@2@V?$allocator@U?$pair@$$CBV?$basic_string@DU?$char_traits@D@std@@V?$allocator@D@2@@std@@URealm@@@std@@@2@$0A@@std@@@std@@IBEPAU_Node@?$_Tree_nod@V?$_Tmap_traits@V?$basic_string@DU?$char_traits@D@std@@V?$allocator@D@2@@std@@URealm@@U?$less@V?$basic_string@DU?$char_traits@D@std@@V?$allocator@D@2@@std@@@2@V?$allocator@U?$pair@$$CBV?$basic_string@DU?$char_traits@D@std@@V?$allocator@D@2@@std@@URealm@@@std@@@2@$0A@@std@@@2@ABV?$basic_string@DU?$char_traits@D@std@@V?$allocator@D@2@@2@@Z 00410430 f i RealmList.obj
 0001:0000f4a0       ?_Buynode@?$_Tree@V?$_Tmap_traits@V?$basic_string@DU?$char_traits@D@std@@V?$allocator@D@2@@std@@URealm@@U?$less@V?$basic_string@DU?$char_traits@D@std@@V?$allocator@D@2@@std@@@2@V?$allocator@U?$pair@$$CBV?$basic_string@DU?$char_traits@D@std@@V?$allocator@D@2@@std@@URealm@@@std@@@2@$0A@@std@@@std@@IAEPAU_Node@?$_Tree_nod@V?$_Tmap_traits@V?$basic_string@DU?$char_traits@D@std@@V?$allocator@D@2@@std@@URealm@@U?$less@V?$basic_string@DU?$char_traits@D@std@@V?$allocator@D@2@@std@@@2@V?$allocator@U?$pair@$$CBV?$basic_string@DU?$char_traits@D@std@@V?$allocator@D@2@@std@@URealm@@@std@@@2@$0A@@std@@@2@XZ 004104a0 f i RealmList.obj
 0001:0000f5f0       ?_Buynode@?$_Tree@V?$_Tmap_traits@V?$basic_string@DU?$char_traits@D@std@@V?$allocator@D@2@@std@@URealm@@U?$less@V?$basic_string@DU?$char_traits@D@std@@V?$allocator@D@2@@std@@@2@V?$allocator@U?$pair@$$CBV?$basic_string@DU?$char_traits@D@std@@V?$allocator@D@2@@std@@URealm@@@std@@@2@$0A@@std@@@std@@IAEPAU_Node@?$_Tree_nod@V?$_Tmap_traits@V?$basic_string@DU?$char_traits@D@std@@V?$allocator@D@2@@std@@URealm@@U?$less@V?$basic_string@DU?$char_traits@D@std@@V?$allocator@D@2@@std@@@2@V?$allocator@U?$pair@$$CBV?$basic_string@DU?$char_traits@D@std@@V?$allocator@D@2@@std@@URealm@@@std@@@2@$0A@@std@@@2@PAU342@00ABU?$pair@$$CBV?$basic_string@DU?$char_traits@D@std@@V?$allocator@D@2@@std@@URealm@@@2@D@Z 004105f0 f i RealmList.obj
 0001:0000f700       ?_Dec@const_iterator@?$_Tree@V?$_Tmap_traits@V?$basic_string@DU?$char_traits@D@std@@V?$allocator@D@2@@std@@URealm@@U?$less@V?$basic_string@DU?$char_traits@D@std@@V?$allocator@D@2@@std@@@2@V?$allocator@U?$pair@$$CBV?$basic_string@DU?$char_traits@D@std@@V?$allocator@D@2@@std@@URealm@@@std@@@2@$0A@@std@@@std@@QAEXXZ 00410700 f i RealmList.obj
 0001:0000f7d0       ?allocate@?$allocator@U_Node@?$_Tree_nod@V?$_Tmap_traits@V?$basic_string@DU?$char_traits@D@std@@V?$allocator@D@2@@std@@URealm@@U?$less@V?$basic_string@DU?$char_traits@D@std@@V?$allocator@D@2@@std@@@2@V?$allocator@U?$pair@$$CBV?$basic_string@DU?$char_traits@D@std@@V?$allocator@D@2@@std@@URealm@@@std@@@2@$0A@@std@@@std@@@std@@QAEPAU_Node@?$_Tree_nod@V?$_Tmap_traits@V?$basic_string@DU?$char_traits@D@std@@V?$allocator@D@2@@std@@URealm@@U?$less@V?$basic_string@DU?$char_traits@D@std@@V?$allocator@D@2@@std@@@2@V?$allocator@U?$pair@$$CBV?$basic_string@DU?$char_traits@D@std@@V?$allocator@D@2@@std@@URealm@@@std@@@2@$0A@@std@@@2@I@Z 004107d0 f i RealmList.obj
 0001:0000f7f0       ??0?$_Tmap_traits@V?$basic_string@DU?$char_traits@D@std@@V?$allocator@D@2@@std@@URealm@@U?$less@V?$basic_string@DU?$char_traits@D@std@@V?$allocator@D@2@@std@@@2@V?$allocator@U?$pair@$$CBV?$basic_string@DU?$char_traits@D@std@@V?$allocator@D@2@@std@@URealm@@@std@@@2@$0A@@std@@QAE@U?$less@V?$basic_string@DU?$char_traits@D@std@@V?$allocator@D@2@@std@@@1@V?$allocator@U?$pair@$$CBV?$basic_string@DU?$char_traits@D@std@@V?$allocator@D@2@@std@@URealm@@@std@@@1@@Z 004107f0 f i RealmList.obj
 0001:0000f810       ?Instance@?$Singleton@VRealmList@@V?$SingleThreaded@VRealmList@@@MaNGOS@@V?$OperatorNew@VRealmList@@@3@V?$ObjectLifeTime@VRealmList@@@3@@MaNGOS@@SAAAVRealmList@@XZ 00410810 f i RealmList.obj
 0001:0000f860       ?DestroySingleton@?$Singleton@VRealmList@@V?$SingleThreaded@VRealmList@@@MaNGOS@@V?$OperatorNew@VRealmList@@@3@V?$ObjectLifeTime@VRealmList@@@3@@MaNGOS@@CAXXZ 00410860 f i RealmList.obj
 0001:0000f890       ??$?6U?$char_traits@D@std@@@std@@YAAAV?$basic_ostream@DU?$char_traits@D@std@@@0@AAV10@PBD@Z 00410890 f i RealmList.obj
 0001:0000fb90       ??0sentry@?$basic_ostream@DU?$char_traits@D@std@@@std@@QAE@AAV12@@Z 00410b90 f i RealmList.obj
 0001:0000fc50       ??1sentry@?$basic_ostream@DU?$char_traits@D@std@@@std@@QAE@XZ 00410c50 f i RealmList.obj
 0001:0000fcc0       ??0_Sentry_base@?$basic_ostream@DU?$char_traits@D@std@@@std@@QAE@AAV12@@Z 00410cc0 f i RealmList.obj
 0001:0000fd10       ??1_Sentry_base@?$basic_ostream@DU?$char_traits@D@std@@@std@@QAE@XZ 00410d10 f i RealmList.obj
 0001:0000fd60       ?Instance@?$Singleton@VLog@@V?$SingleThreaded@VLog@@@MaNGOS@@V?$OperatorNew@VLog@@@3@V?$ObjectLifeTime@VLog@@@3@@MaNGOS@@SAAAVLog@@XZ 00410d60 f i RealmList.obj
 0001:0000fdb0       ??$_Allocate@U_Node@?$_Tree_nod@V?$_Tmap_traits@V?$basic_string@DU?$char_traits@D@std@@V?$allocator@D@2@@std@@URealm@@U?$less@V?$basic_string@DU?$char_traits@D@std@@V?$allocator@D@2@@std@@@2@V?$allocator@U?$pair@$$CBV?$basic_string@DU?$char_traits@D@std@@V?$allocator@D@2@@std@@URealm@@@std@@@2@$0A@@std@@@std@@@std@@YAPAU_Node@?$_Tree_nod@V?$_Tmap_traits@V?$basic_string@DU?$char_traits@D@std@@V?$allocator@D@2@@std@@URealm@@U?$less@V?$basic_string@DU?$char_traits@D@std@@V?$allocator@D@2@@std@@@2@V?$allocator@U?$pair@$$CBV?$basic_string@DU?$char_traits@D@std@@V?$allocator@D@2@@std@@URealm@@@std@@@2@$0A@@std@@@0@IPAU120@@Z 00410db0 f i RealmList.obj
 0001:0000fe10       ?Create@?$OperatorNew@VRealmList@@@MaNGOS@@SAPAVRealmList@@XZ 00410e10 f i RealmList.obj
 0001:0000fe90       ?Destroy@?$OperatorNew@VRealmList@@@MaNGOS@@SAXPAVRealmList@@@Z 00410e90 f i RealmList.obj
 0001:0000ff20       ?Create@?$OperatorNew@VLog@@@MaNGOS@@SAPAVLog@@XZ 00410f20 f i RealmList.obj
 0001:0000ffa0       ?OnDeadReference@?$ObjectLifeTime@VRealmList@@@MaNGOS@@SAXXZ 00410fa0 f i RealmList.obj
 0001:00010030       ??1runtime_error@std@@UAE@XZ 00411030 f i RealmList.obj
 0001:00010060       ?what@runtime_error@std@@UBEPBDXZ 00411060 f i RealmList.obj
 0001:00010080       ??_Gruntime_error@std@@UAEPAXI@Z 00411080 f i RealmList.obj
 0001:00010080       ??_Eruntime_error@std@@UAEPAXI@Z 00411080 f i RealmList.obj
 0001:000100d0       ??0runtime_error@std@@QAE@ABV01@@Z 004110d0 f i RealmList.obj
 0001:00010150       ?DestroySingleton@?$Singleton@VLog@@V?$SingleThreaded@VLog@@@MaNGOS@@V?$OperatorNew@VLog@@@3@V?$ObjectLifeTime@VLog@@@3@@MaNGOS@@CAXXZ 00411150 f i RealmList.obj
 0001:00010180       ?OnDeadReference@?$ObjectLifeTime@VLog@@@MaNGOS@@SAXXZ 00411180 f i RealmList.obj
 0001:00010210       ?Destroy@?$OperatorNew@VLog@@@MaNGOS@@SAXPAVLog@@@Z 00411210 f i RealmList.obj
 0001:00010260       ??1Log@@AAE@XZ             00411260 f i RealmList.obj
 0001:00010380       ??0WheatyExceptionReport@@QAE@XZ 00411380 f   WheatyExceptionReport.obj
 0001:000103b0       ??1WheatyExceptionReport@@QAE@XZ 004113b0 f   WheatyExceptionReport.obj
 0001:000103d0       ?WheatyUnhandledExceptionFilter@WheatyExceptionReport@@SGJPAU_EXCEPTION_POINTERS@@@Z 004113d0 f   WheatyExceptionReport.obj
 0001:00010550       ?_GetProcessorName@WheatyExceptionReport@@CAHPADK@Z 00411550 f   WheatyExceptionReport.obj
 0001:00010630       ?_GetWindowsVersion@WheatyExceptionReport@@CAHPADK@Z 00411630 f   WheatyExceptionReport.obj
 0001:00010b60       ?PrintSystemInfo@WheatyExceptionReport@@CAXXZ 00411b60 f   WheatyExceptionReport.obj
 0001:00010c70       ?printTracesForAllThreads@WheatyExceptionReport@@SAXXZ 00411c70 f   WheatyExceptionReport.obj
 0001:00010d60       ?GenerateExceptionReport@WheatyExceptionReport@@CAXPAU_EXCEPTION_POINTERS@@@Z 00411d60 f   WheatyExceptionReport.obj
 0001:00011090       ?GetExceptionString@WheatyExceptionReport@@CAPADK@Z 00412090 f   WheatyExceptionReport.obj
 0001:00011330       ?GetLogicalAddress@WheatyExceptionReport@@CAHPAXPADKAAK2@Z 00412330 f   WheatyExceptionReport.obj
 0001:00011440       ?WriteStackDetails@WheatyExceptionReport@@CAXPAU_CONTEXT@@_NPAX@Z 00412440 f   WheatyExceptionReport.obj
 0001:00011790       ?EnumerateSymbolsCallback@WheatyExceptionReport@@CGHPAU_SYMBOL_INFO@@KPAX@Z 00412790 f   WheatyExceptionReport.obj
 0001:00011860       ?FormatSymbolValue@WheatyExceptionReport@@CA_NPAU_SYMBOL_INFO@@PAU_tagSTACKFRAME@@PADI@Z 00412860 f   WheatyExceptionReport.obj
 0001:000119d0       ?DumpTypeIndex@WheatyExceptionReport@@CAPADPAD_KKIKAA_N0@Z 004129d0 f   WheatyExceptionReport.obj
 0001:00011cd0       ?FormatOutputValue@WheatyExceptionReport@@CAPADPADW4BasicType@@_KPAX@Z 00412cd0 f   WheatyExceptionReport.obj
 0001:00011e50       ?GetBasicType@WheatyExceptionReport@@CA?AW4BasicType@@K_K@Z 00412e50 f   WheatyExceptionReport.obj
 0001:00011ed0       ?printf@WheatyExceptionReport@@CAHPBDZZ 00412ed0 f   WheatyExceptionReport.obj
 0001:00011f50       _CRYPTO_free               00412f50 f   libeay32:LIBEAY32.dll
 0001:00011f56       _MD5_Final                 00412f56 f   libeay32:LIBEAY32.dll
 0001:00011f5c       _MD5_Update                00412f5c f   libeay32:LIBEAY32.dll
 0001:00011f62       _MD5_Init                  00412f62 f   libeay32:LIBEAY32.dll
 0001:00011f68       _SSLeay                    00412f68 f   libeay32:LIBEAY32.dll
 0001:00011f6e       _SSLeay_version            00412f6e f   libeay32:LIBEAY32.dll
 0001:00011f74       _closesocket@4             00412f74 f   ws2_32:WS2_32.dll
 0001:00011f7a       _ntohs@4                   00412f7a f   ws2_32:WS2_32.dll
 0001:00011f80       _WSAGetLastError@0         00412f80 f   ws2_32:WS2_32.dll
 0001:00011f86       _accept@12                 00412f86 f   ws2_32:WS2_32.dll
 0001:00011f8c       _listen@8                  00412f8c f   ws2_32:WS2_32.dll
 0001:00011f92       _bind@12                   00412f92 f   ws2_32:WS2_32.dll
 0001:00011f98       _RegCloseKey@4             00412f98 f   advapi32:ADVAPI32.dll
 0001:00011f9e       _RegQueryValueExA@24       00412f9e f   advapi32:ADVAPI32.dll
 0001:00011fa4       _RegOpenKeyExA@20          00412fa4 f   advapi32:ADVAPI32.dll
 0001:00011faa       _SymCleanup@4              00412faa f   dbghelp:dbghelp.dll
 0001:00011fb0       _SymEnumSymbols@24         00412fb0 f   dbghelp:dbghelp.dll
 0001:00011fb6       _SymInitialize@12          00412fb6 f   dbghelp:dbghelp.dll
 0001:00011fbc       _SymSetOptions@4           00412fbc f   dbghelp:dbghelp.dll
 0001:00011fc2       _SymSetContext@12          00412fc2 f   dbghelp:dbghelp.dll
 0001:00011fc8       _SymGetLineFromAddr64@20   00412fc8 f   dbghelp:dbghelp.dll
 0001:00011fce       _SymFromAddr@20            00412fce f   dbghelp:dbghelp.dll
 0001:00011fd4       _StackWalk64@36            00412fd4 f   dbghelp:dbghelp.dll
 0001:00011fda       _SymFunctionTableAccess64@12 00412fda f   dbghelp:dbghelp.dll
 0001:00011fe0       _SymGetModuleBase64@12     00412fe0 f   dbghelp:dbghelp.dll
 0001:00011fe6       _SymGetTypeInfo@24         00412fe6 f   dbghelp:dbghelp.dll
 0001:00011fec       ??$?8DU?$char_traits@D@std@@V?$allocator@D@1@@std@@YA_NABV?$basic_string@DU?$char_traits@D@std@@V?$allocator@D@2@@0@0@Z 00412fec f   MSVCPRT:MSVCP90.dll
 0001:00011ff2       ??0?$basic_string@DU?$char_traits@D@std@@V?$allocator@D@2@@std@@QAE@XZ 00412ff2 f   MSVCPRT:MSVCP90.dll
 0001:00011ff8       ??0?$basic_string@DU?$char_traits@D@std@@V?$allocator@D@2@@std@@QAE@ABV01@@Z 00412ff8 f   MSVCPRT:MSVCP90.dll
 0001:00011ffe       ??4?$basic_string@DU?$char_traits@D@std@@V?$allocator@D@2@@std@@QAEAAV01@ABV01@@Z 00412ffe f   MSVCPRT:MSVCP90.dll
 0001:00012004       ??1?$basic_string@DU?$char_traits@D@std@@V?$allocator@D@2@@std@@QAE@XZ 00413004 f   MSVCPRT:MSVCP90.dll
 0001:0001200a       ?c_str@?$basic_string@DU?$char_traits@D@std@@V?$allocator@D@2@@std@@QBEPBDXZ 0041300a f   MSVCPRT:MSVCP90.dll
 0001:00012010       ??A?$basic_string@DU?$char_traits@D@std@@V?$allocator@D@2@@std@@QAEAADU_Size_type_nosscl@01@@Z 00413010 f   MSVCPRT:MSVCP90.dll
 0001:00012016       ?resize@?$basic_string@DU?$char_traits@D@std@@V?$allocator@D@2@@std@@QAEXI@Z 00413016 f   MSVCPRT:MSVCP90.dll
 0001:0001201c       ?size@?$basic_string@DU?$char_traits@D@std@@V?$allocator@D@2@@std@@QBEIXZ 0041301c f   MSVCPRT:MSVCP90.dll
 0001:00012022       ??4?$basic_string@DU?$char_traits@D@std@@V?$allocator@D@2@@std@@QAEAAV01@PBD@Z 00413022 f   MSVCPRT:MSVCP90.dll
 0001:00012028       ??0?$basic_string@DU?$char_traits@D@std@@V?$allocator@D@2@@std@@QAE@PBD@Z 00413028 f   MSVCPRT:MSVCP90.dll
 0001:0001202e       ?empty@?$basic_string@DU?$char_traits@D@std@@V?$allocator@D@2@@std@@QBE_NXZ 0041302e f   MSVCPRT:MSVCP90.dll
 0001:00012034       ?length@?$basic_string@DU?$char_traits@D@std@@V?$allocator@D@2@@std@@QBEIXZ 00413034 f   MSVCPRT:MSVCP90.dll
 0001:0001203a       ??_U@YAPAXI@Z              0041303a f   MSVCPRT:newaop_s.obj
 0001:00012046       ??Y?$basic_string@DU?$char_traits@D@std@@V?$allocator@D@2@@std@@QAEAAV01@PBD@Z 00413046 f   MSVCPRT:MSVCP90.dll
 0001:0001204c       ??$?MDU?$char_traits@D@std@@V?$allocator@D@1@@std@@YA_NABV?$basic_string@DU?$char_traits@D@std@@V?$allocator@D@2@@0@0@Z 0041304c f   MSVCPRT:MSVCP90.dll
 0001:00012052       ??_D?$basic_ostringstream@DU?$char_traits@D@std@@V?$allocator@D@2@@std@@QAEXXZ 00413052 f   MSVCPRT:MSVCP90.dll
 0001:00012058       ?str@?$basic_ostringstream@DU?$char_traits@D@std@@V?$allocator@D@2@@std@@QBE?AV?$basic_string@DU?$char_traits@D@std@@V?$allocator@D@2@@2@XZ 00413058 f   MSVCPRT:MSVCP90.dll
 0001:0001205e       ??6?$basic_ostream@DU?$char_traits@D@std@@@std@@QAEAAV01@I@Z 0041305e f   MSVCPRT:MSVCP90.dll
 0001:00012064       ??$?6DU?$char_traits@D@std@@V?$allocator@D@1@@std@@YAAAV?$basic_ostream@DU?$char_traits@D@std@@@0@AAV10@ABV?$basic_string@DU?$char_traits@D@std@@V?$allocator@D@2@@0@@Z 00413064 f   MSVCPRT:MSVCP90.dll
 0001:0001206a       ??0?$basic_ostringstream@DU?$char_traits@D@std@@V?$allocator@D@2@@std@@QAE@H@Z 0041306a f   MSVCPRT:MSVCP90.dll
 0001:00012070       ?_Osfx@?$basic_ostream@DU?$char_traits@D@std@@@std@@QAEXXZ 00413070 f   MSVCPRT:MSVCP90.dll
 0001:00012076       ?uncaught_exception@std@@YA_NXZ 00413076 f   MSVCPRT:MSVCP90.dll
 0001:0001207c       ?setstate@?$basic_ios@DU?$char_traits@D@std@@@std@@QAEXH_N@Z 0041307c f   MSVCPRT:MSVCP90.dll
 0001:00012082       ?width@ios_base@std@@QAEHH@Z 00413082 f   MSVCPRT:MSVCP90.dll
 0001:00012088       ?sputn@?$basic_streambuf@DU?$char_traits@D@std@@@std@@QAEHPBDH@Z 00413088 f   MSVCPRT:MSVCP90.dll
 0001:0001208e       ?eq_int_type@?$char_traits@D@std@@SA_NABH0@Z 0041308e f   MSVCPRT:MSVCP90.dll
 0001:00012094       ?eof@?$char_traits@D@std@@SAHXZ 00413094 f   MSVCPRT:MSVCP90.dll
 0001:0001209a       ?sputc@?$basic_streambuf@DU?$char_traits@D@std@@@std@@QAEHD@Z 0041309a f   MSVCPRT:MSVCP90.dll
 0001:000120a0       ?rdbuf@?$basic_ios@DU?$char_traits@D@std@@@std@@QBEPAV?$basic_streambuf@DU?$char_traits@D@std@@@2@XZ 004130a0 f   MSVCPRT:MSVCP90.dll
 0001:000120a6       ?fill@?$basic_ios@DU?$char_traits@D@std@@@std@@QBEDXZ 004130a6 f   MSVCPRT:MSVCP90.dll
 0001:000120ac       ?flags@ios_base@std@@QBEHXZ 004130ac f   MSVCPRT:MSVCP90.dll
 0001:000120b2       ?width@ios_base@std@@QBEHXZ 004130b2 f   MSVCPRT:MSVCP90.dll
 0001:000120b8       ?length@?$char_traits@D@std@@SAIPBD@Z 004130b8 f   MSVCPRT:MSVCP90.dll
 0001:000120be       ?flush@?$basic_ostream@DU?$char_traits@D@std@@@std@@QAEAAV12@XZ 004130be f   MSVCPRT:MSVCP90.dll
 0001:000120c4       ?tie@?$basic_ios@DU?$char_traits@D@std@@@std@@QBEPAV?$basic_ostream@DU?$char_traits@D@std@@@2@XZ 004130c4 f   MSVCPRT:MSVCP90.dll
 0001:000120ca       ?good@ios_base@std@@QBE_NXZ 004130ca f   MSVCPRT:MSVCP90.dll
 0001:000120d0       ?_Lock@?$basic_streambuf@DU?$char_traits@D@std@@@std@@QAEXXZ 004130d0 f   MSVCPRT:MSVCP90.dll
 0001:000120d6       ?_Unlock@?$basic_streambuf@DU?$char_traits@D@std@@@std@@QAEXXZ 004130d6 f   MSVCPRT:MSVCP90.dll
 0001:000120dc       ??0type_info@@AAE@ABV0@@Z  004130dc f   msvcrt:ti_inst.obj
 0001:000120e7       ??_Etype_info@@UAEPAXI@Z   004130e7 f i msvcrt:ti_inst.obj
 0001:00012133       ??4type_info@@AAEAAV0@ABV0@@Z 00413133 f   msvcrt:ti_inst.obj
 0001:00012138       __purecall                 00413138 f   msvcrt:MSVCR90.dll
 0001:0001213e       ??3@YAXPAX@Z               0041313e f   msvcrt:MSVCR90.dll
 0001:00012144       ??_V@YAXPAX@Z              00413144 f   msvcrt:MSVCR90.dll
 0001:0001215c       ?__ArrayUnwind@@YGXPAXIHP6EX0@Z@Z 0041315c f   msvcrt:ehvecdtr.obj
 0001:000121ba       ??_M@YGXPAXIHP6EX0@Z@Z     004131ba f   msvcrt:ehvecdtr.obj
 0001:0001221e       ___CxxFrameHandler3        0041321e f   msvcrt:MSVCR90.dll
 0001:00012224       @__security_check_cookie@4 00413224 f   msvcrt:secchk.obj
 0001:00012240       __chkstk                   00413240 f   msvcrt:chkstk.obj
 0001:00012240       __alloca_probe             00413240     msvcrt:chkstk.obj
 0001:0001226c       _fprintf                   0041326c f   msvcrt:MSVCR90.dll
 0001:00012272       ___iob_func                00413272 f   msvcrt:MSVCR90.dll
 0001:00012278       __CxxThrowException@8      00413278 f   msvcrt:MSVCR90.dll
 0001:00012280       _strncpy                   00413280 f   msvcrt:MSVCR90.dll
 0001:00012286       _fclose                    00413286 f   msvcrt:MSVCR90.dll
 0001:0001228c       _memcpy                    0041328c f   msvcrt:MSVCR90.dll
 0001:00012292       _memset                    00413292 f   msvcrt:MSVCR90.dll
 0001:00012298       _sscanf                    00413298 f   msvcrt:MSVCR90.dll
 0001:0001229e       _strcmp                    0041329e f   msvcrt:MSVCR90.dll
 0001:000122a4       _strtoul                   004132a4 f   msvcrt:MSVCR90.dll
 0001:000122aa       _memcmp                    004132aa f   msvcrt:MSVCR90.dll
 0001:000122b0       _ftell                     004132b0 f   msvcrt:MSVCR90.dll
 0001:000122b6       _fseek                     004132b6 f   msvcrt:MSVCR90.dll
 0001:000122bc       _printf                    004132bc f   msvcrt:MSVCR90.dll
 0001:000122c2       _fopen                     004132c2 f   msvcrt:MSVCR90.dll
 0001:000122c8       _sprintf                   004132c8 f   msvcrt:MSVCR90.dll
 0001:000122ce       ??2@YAPAXI@Z               004132ce f   msvcrt:MSVCR90.dll
 0001:000122d4       _fread                     004132d4 f   msvcrt:MSVCR90.dll
 0001:000122da       _feof                      004132da f   msvcrt:MSVCR90.dll
 0001:000122e0       _memmove_s                 004132e0 f   msvcrt:MSVCR90.dll
 0001:000122e6       ??1exception@std@@UAE@XZ   004132e6 f   msvcrt:MSVCR90.dll
 0001:000122ec       ??0exception@std@@QAE@XZ   004132ec f   msvcrt:MSVCR90.dll
 0001:000122f2       ??0exception@std@@QAE@ABV01@@Z 004132f2 f   msvcrt:MSVCR90.dll
 0001:000122f8       ??0exception@std@@QAE@ABQBD@Z 004132f8 f   msvcrt:MSVCR90.dll
 0001:000122fe       ?what@exception@std@@UBEPBDXZ 004132fe f   msvcrt:MSVCR90.dll
 0001:00012304       __onexit                   00413304 f   msvcrt:atonexit.obj
 0001:000123a9       _atexit                    004133a9 f   msvcrt:atonexit.obj
 0001:000123c0       _clock                     004133c0 f   msvcrt:MSVCR90.dll
 0001:000123c6       ___RTDynamicCast           004133c6 f   msvcrt:MSVCR90.dll
 0001:000123cc       _signal                    004133cc f   msvcrt:MSVCR90.dll
 0001:000123d2       __time64                   004133d2 f   msvcrt:MSVCR90.dll
 0001:000123d8       _atof                      004133d8 f   msvcrt:MSVCR90.dll
 0001:000123de       __mbsrchr                  004133de f   msvcrt:MSVCR90.dll
 0001:000123e4       __mbsnbcpy                 004133e4 f   msvcrt:MSVCR90.dll
 0001:000123ea       _iswspace                  004133ea f   msvcrt:MSVCR90.dll
 0001:000123f0       _strlen                    004133f0 f   msvcrt:MSVCR90.dll
 0001:000123f6       __mbsicmp                  004133f6 f   msvcrt:MSVCR90.dll
 0001:000123fc       __mbsnbcat                 004133fc f   msvcrt:MSVCR90.dll
 0001:00012402       __except_handler4          00413402 f   msvcrt:chandler4gs.obj
 0001:00012428       _vsprintf                  00413428 f   msvcrt:MSVCR90.dll
 0001:0001242e       _NtCurrentTeb              0041342e f i msvcrt:crtexe.obj
 0001:00012736       _mainCRTStartup            00413736 f   msvcrt:crtexe.obj
 0001:00012740       ?terminate@@YAXXZ          00413740 f   msvcrt:MSVCR90.dll
 0001:00012748       __SEH_prolog4              00413748 f   msvcrt:sehprolg4.obj
 0001:0001278d       __SEH_epilog4              0041378d f   msvcrt:sehprolg4.obj
 0001:000127a1       ___report_gsfailure        004137a1 f   msvcrt:gs_report.obj
 0001:000128a8       __unlock                   004138a8 f   msvcrt:MSVCR90.dll
 0001:000128ae       ___dllonexit               004138ae f   msvcrt:MSVCR90.dll
 0001:000128b4       __encode_pointer           004138b4 f   msvcrt:MSVCR90.dll
 0001:000128ba       __lock                     004138ba f   msvcrt:MSVCR90.dll
 0001:000128c0       __decode_pointer           004138c0 f   msvcrt:MSVCR90.dll
 0001:000128c6       __except_handler4_common   004138c6 f   msvcrt:MSVCR90.dll
 0001:000128cc       ?__CxxUnhandledExceptionFilter@@YGJPAU_EXCEPTION_POINTERS@@@Z 004138cc f   msvcrt:unhandld.obj
 0001:0001290e       ___CxxSetUnhandledExceptionFilter 0041390e f   msvcrt:unhandld.obj
 0001:0001291c       __amsg_exit                0041391c f   msvcrt:MSVCR90.dll
 0001:00012922       ___getmainargs             00413922 f   msvcrt:MSVCR90.dll
 0001:00012928       __RTC_Initialize           00413928 f   msvcrt:_initsect_.obj
 0001:0001294e       __RTC_Terminate            0041394e f   msvcrt:_initsect_.obj
 0001:00012974       __cexit                    00413974 f   msvcrt:MSVCR90.dll
 0001:0001297a       __exit                     0041397a f   msvcrt:MSVCR90.dll
 0001:00012980       __XcptFilter               00413980 f   msvcrt:MSVCR90.dll
 0001:00012986       _exit                      00413986 f   msvcrt:MSVCR90.dll
 0001:00012990       __ValidateImageBase        00413990 f   msvcrt:pesect.obj
 0001:000129d0       __FindPESection            004139d0 f   msvcrt:pesect.obj
 0001:00012a20       __IsNonwritableInCurrentImage 00413a20 f   msvcrt:pesect.obj
 0001:00012ade       __initterm                 00413ade f   msvcrt:MSVCR90.dll
 0001:00012ae4       __initterm_e               00413ae4 f   msvcrt:MSVCR90.dll
 0001:00012aea       __configthreadlocale       00413aea f   msvcrt:MSVCR90.dll
 0001:00012af0       __invoke_watson_if_error   00413af0 f i msvcrt:fp8.obj
 0001:00012b14       __setdefaultprecision      00413b14 f   msvcrt:fp8.obj
 0001:00012b40       ___setusermatherr          00413b40 f   msvcrt:MSVCR90.dll
 0001:00012b46       __matherr                  00413b46 f   msvcrt:merr.obj
 0001:00012b49       __setargv                  00413b49 f   msvcrt:dllargv.obj
 0001:00012b4c       ___p__commode              00413b4c f   msvcrt:MSVCR90.dll
 0001:00012b52       ___p__fmode                00413b52 f   msvcrt:MSVCR90.dll
 0001:00012b58       ___set_app_type            00413b58 f   msvcrt:MSVCR90.dll
 0001:00012b5e       ___security_init_cookie    00413b5e f   msvcrt:gs_support.obj
 0001:00012bf4       ?_type_info_dtor_internal_method@type_info@@QAEXXZ 00413bf4 f   msvcrt:MSVCR90.dll
 0001:00012bf4       ??1type_info@@UAE@XZ       00413bf4 f   msvcrt:MSVCR90.dll
 0001:00012bfa       __crt_debugger_hook        00413bfa f   msvcrt:MSVCR90.dll
 0001:00012c00       __invoke_watson            00413c00 f   msvcrt:MSVCR90.dll
 0001:00012c06       __controlfp_s              00413c06 f   msvcrt:MSVCR90.dll
 0001:00012c0c       _FindNextFileA@8           00413c0c f   kernel32:KERNEL32.dll
 0001:00012c12       _FindFirstFileA@8          00413c12 f   kernel32:KERNEL32.dll
 0001:00012c18       _Sleep@4                   00413c18 f   kernel32:KERNEL32.dll
 0001:00012c1e       _SetPriorityClass@8        00413c1e f   kernel32:KERNEL32.dll
 0001:00012c24       _SetProcessAffinityMask@8  00413c24 f   kernel32:KERNEL32.dll
 0001:00012c2a       _GetProcessAffinityMask@12 00413c2a f   kernel32:KERNEL32.dll
 0001:00012c30       _GetCurrentProcess@0       00413c30 f   kernel32:KERNEL32.dll
 0001:00012c36       _SetUnhandledExceptionFilter@4 00413c36 f   kernel32:KERNEL32.dll
 0001:00012c3c       _CloseHandle@4             00413c3c f   kernel32:KERNEL32.dll
 0001:00012c42       _SetFilePointer@16         00413c42 f   kernel32:KERNEL32.dll
 0001:00012c48       _CreateFileA@28            00413c48 f   kernel32:KERNEL32.dll
 0001:00012c4e       _GetLocalTime@4            00413c4e f   kernel32:KERNEL32.dll
 0001:00012c54       _GetLastError@0            00413c54 f   kernel32:KERNEL32.dll
 0001:00012c5a       _CreateDirectoryA@8        00413c5a f   kernel32:KERNEL32.dll
 0001:00012c60       _GetModuleFileNameA@12     00413c60 f   kernel32:KERNEL32.dll
 0001:00012c66       _GetVersionExA@4           00413c66 f   kernel32:KERNEL32.dll
 0001:00012c6c       _GlobalMemoryStatus@4      00413c6c f   kernel32:KERNEL32.dll
 0001:00012c72       _GetSystemInfo@4           00413c72 f   kernel32:KERNEL32.dll
 0001:00012c78       _Thread32Next@8            00413c78 f   kernel32:KERNEL32.dll
 0001:00012c7e       _GetThreadContext@8        00413c7e f   kernel32:KERNEL32.dll
 0001:00012c84       _OpenThread@12             00413c84 f   kernel32:KERNEL32.dll
 0001:00012c8a       _Thread32First@8           00413c8a f   kernel32:KERNEL32.dll
 0001:00012c90       _CreateToolhelp32Snapshot@8 00413c90 f   kernel32:KERNEL32.dll
 0001:00012c96       _GetCurrentProcessId@0     00413c96 f   kernel32:KERNEL32.dll
 0001:00012c9c       _GetModuleHandleA@4        00413c9c f   kernel32:KERNEL32.dll
 0001:00012ca2       _FormatMessageA@28         00413ca2 f   kernel32:KERNEL32.dll
 0001:00012ca8       _VirtualQuery@12           00413ca8 f   kernel32:KERNEL32.dll
 0001:00012cae       _GetCurrentThread@0        00413cae f   kernel32:KERNEL32.dll
 0001:00012cb4       _LocalFree@4               00413cb4 f   kernel32:KERNEL32.dll
 0001:00012cba       _IsBadStringPtrA@8         00413cba f   kernel32:KERNEL32.dll
 0001:00012cc0       _WriteFile@20              00413cc0 f   kernel32:KERNEL32.dll
 0001:00012cc6       _InterlockedExchange@8     00413cc6 f   kernel32:KERNEL32.dll
 0001:00012ccc       _InterlockedCompareExchange@12 00413ccc f   kernel32:KERNEL32.dll
 0001:00012cd2       _TerminateProcess@8        00413cd2 f   kernel32:KERNEL32.dll
 0001:00012cd8       _UnhandledExceptionFilter@4 00413cd8 f   kernel32:KERNEL32.dll
 0001:00012cde       _IsDebuggerPresent@0       00413cde f   kernel32:KERNEL32.dll
 0001:00012ce4       _QueryPerformanceCounter@4 00413ce4 f   kernel32:KERNEL32.dll
 0001:00012cea       _GetTickCount@0            00413cea f   kernel32:KERNEL32.dll
 0001:00012cf0       _GetCurrentThreadId@0      00413cf0 f   kernel32:KERNEL32.dll
 0001:00012cf6       _GetSystemTimeAsFileTime@4 00413cf6 f   kernel32:KERNEL32.dll
 0001:00012d00       ??0TcpSocket@@QAE@AAVISocketHandler@@@Z 00413d00 f   sockets:TcpSocket.obj
 0001:00012e40       ??_GTcpSocket@@UAEPAXI@Z   00413e40 f i sockets:TcpSocket.obj
 0001:00012e40       ??_ETcpSocket@@UAEPAXI@Z   00413e40 f i sockets:TcpSocket.obj
 0001:00012e70       ??0TcpSocket@@QAE@AAVISocketHandler@@II@Z 00413e70 f   sockets:TcpSocket.obj
 0001:00012fb0       ??1TcpSocket@@UAE@XZ       00413fb0 f   sockets:TcpSocket.obj
 0001:000130f0       ?Open@TcpSocket@@QAE_NKG_N@Z 004140f0 f   sockets:TcpSocket.obj
 0001:000131a0       ?Open@TcpSocket@@QAE_NAAVSocketAddress@@_N@Z 004141a0 f   sockets:TcpSocket.obj
 0001:00013240       ?Open@TcpSocket@@QAE_NAAVSocketAddress@@0_N@Z 00414240 f   sockets:TcpSocket.obj
 0001:000138a0       ?Open@TcpSocket@@QAE_NABV?$basic_string@DU?$char_traits@D@std@@V?$allocator@D@2@@std@@G@Z 004148a0 f   sockets:TcpSocket.obj
 0001:000139c0       ?OnResolved@TcpSocket@@UAEXHKG@Z 004149c0 f   sockets:TcpSocket.obj
 0001:00013c20       ?OnRead@TcpSocket@@MAEXXZ  00414c20 f   sockets:TcpSocket.obj
 0001:00013fc0       ?OnRead@TcpSocket@@IAEXPADI@Z 00414fc0 f   sockets:TcpSocket.obj
 0001:00014220       ?OnWriteComplete@TcpSocket@@UAEXXZ 00415220 f   sockets:TcpSocket.obj
 0001:00014230       ?OnWrite@TcpSocket@@MAEXXZ 00415230 f   sockets:TcpSocket.obj
 0001:00014620       ?TryWrite@TcpSocket@@AAEHPBDI@Z 00415620 f   sockets:TcpSocket.obj
 0001:000147b0       ?Buffer@TcpSocket@@AAEXPBDI@Z 004157b0 f   sockets:TcpSocket.obj
 0001:000149a0       ?Send@TcpSocket@@UAEXABV?$basic_string@DU?$char_traits@D@std@@V?$allocator@D@2@@std@@H@Z 004159a0 f   sockets:TcpSocket.obj
 0001:000149e0       ?SendBuf@TcpSocket@@UAEXPBDIH@Z 004159e0 f   sockets:TcpSocket.obj
 0001:00014e60       ?OnLine@TcpSocket@@UAEXABV?$basic_string@DU?$char_traits@D@std@@V?$allocator@D@2@@std@@@Z 00415e60 f   sockets:TcpSocket.obj
 0001:00014e70       ??0TcpSocket@@IAE@ABV0@@Z  00415e70 f   sockets:TcpSocket.obj
 0001:00014f10       ??0Socket@@IAE@XZ          00415f10 f i sockets:TcpSocket.obj
 0001:00014fb0       ??_ESocket@@UAEPAXI@Z      00415fb0 f i sockets:TcpSocket.obj
 0001:00014fb0       ??_GSocket@@UAEPAXI@Z      00415fb0 f i sockets:TcpSocket.obj
 0001:00014fe0       ??_GStreamSocket@@UAEPAXI@Z 00415fe0 f i sockets:TcpSocket.obj
 0001:00014fe0       ??_EStreamSocket@@UAEPAXI@Z 00415fe0 f i sockets:TcpSocket.obj
 0001:00015010       ?Sendf@TcpSocket@@QAAXPBDZZ 00416010 f   sockets:TcpSocket.obj
 0001:000150c0       ?Close@TcpSocket@@UAEHXZ   004160c0 f   sockets:TcpSocket.obj
 0001:000153a0       ?SetReconnect@TcpSocket@@QAEX_N@Z 004163a0 f   sockets:TcpSocket.obj
 0001:000153c0       ?OnRawData@TcpSocket@@UAEXPBDI@Z 004163c0 f   sockets:TcpSocket.obj
 0001:000153d0       ?GetInputLength@TcpSocket@@QAEIXZ 004163d0 f   sockets:TcpSocket.obj
 0001:000153f0       ?GetOutputLength@TcpSocket@@QAEIXZ 004163f0 f   sockets:TcpSocket.obj
 0001:00015410       ?GetBytesReceived@TcpSocket@@UAE_K_N@Z 00416410 f   sockets:TcpSocket.obj
 0001:00015460       ?GetBytesSent@TcpSocket@@UAE_K_N@Z 00416460 f   sockets:TcpSocket.obj
 0001:000154b0       ?Reconnect@TcpSocket@@QAE_NXZ 004164b0 f   sockets:TcpSocket.obj
 0001:000154d0       ?SetIsReconnect@TcpSocket@@QAEX_N@Z 004164d0 f   sockets:TcpSocket.obj
 0001:000154f0       ?IsReconnect@TcpSocket@@QAE_NXZ 004164f0 f   sockets:TcpSocket.obj
 0001:00015510       ?DisableInputBuffer@TcpSocket@@QAEX_N@Z 00416510 f   sockets:TcpSocket.obj
 0001:00015530       ?OnOptions@TcpSocket@@UAEXHHHI@Z 00416530 f   sockets:TcpSocket.obj
 0001:00015560       ?SetLineProtocol@TcpSocket@@UAEX_N@Z 00416560 f   sockets:TcpSocket.obj
 0001:00015590       ?SetTcpNodelay@TcpSocket@@QAE_N_N@Z 00416590 f   sockets:TcpSocket.obj
 0001:00015680       ??0CircularBuffer@TcpSocket@@QAE@I@Z 00416680 f   sockets:TcpSocket.obj
 0001:000156e0       ??1CircularBuffer@TcpSocket@@QAE@XZ 004166e0 f   sockets:TcpSocket.obj
 0001:00015710       ?Write@CircularBuffer@TcpSocket@@QAE_NPBDI@Z 00416710 f   sockets:TcpSocket.obj
 0001:00015840       ?Read@CircularBuffer@TcpSocket@@QAE_NPADI@Z 00416840 f   sockets:TcpSocket.obj
 0001:00015960       ?SoftRead@CircularBuffer@TcpSocket@@QAE_NPADI@Z 00416960 f   sockets:TcpSocket.obj
 0001:00015a10       ?Remove@CircularBuffer@TcpSocket@@QAE_NI@Z 00416a10 f   sockets:TcpSocket.obj
 0001:00015a30       ?GetLength@CircularBuffer@TcpSocket@@QAEIXZ 00416a30 f   sockets:TcpSocket.obj
 0001:00015a50       ?GetStart@CircularBuffer@TcpSocket@@QAEPBDXZ 00416a50 f   sockets:TcpSocket.obj
 0001:00015a70       ?GetL@CircularBuffer@TcpSocket@@QAEIXZ 00416a70 f   sockets:TcpSocket.obj
 0001:00015ab0       ?Space@CircularBuffer@TcpSocket@@QAEIXZ 00416ab0 f   sockets:TcpSocket.obj
 0001:00015ad0       ?ByteCounter@CircularBuffer@TcpSocket@@QAEK_N@Z 00416ad0 f   sockets:TcpSocket.obj
 0001:00015b10       ?ReadString@CircularBuffer@TcpSocket@@QAE?AV?$basic_string@DU?$char_traits@D@std@@V?$allocator@D@2@@std@@I@Z 00416b10 f   sockets:TcpSocket.obj
 0001:00015c20       ?OnConnectTimeout@TcpSocket@@UAEXXZ 00416c20 f   sockets:TcpSocket.obj
 0001:00015d60       ?OnException@TcpSocket@@UAEXXZ 00416d60 f   sockets:TcpSocket.obj
 0001:00015e90       ?Protocol@TcpSocket@@UAEHXZ 00416e90 f   sockets:TcpSocket.obj
 0001:00015ea0       ?SetTransferLimit@TcpSocket@@QAEXI@Z 00416ea0 f   sockets:TcpSocket.obj
 0001:00015ec0       ?OnTransferLimit@TcpSocket@@UAEXXZ 00416ec0 f   sockets:TcpSocket.obj
 0001:00015ed0       ??1?$auto_ptr@VSocketAddress@@@std@@QAE@XZ 00416ed0 f i sockets:TcpSocket.obj
 0001:00015f20       ??0?$list@PAUOUTPUT@TcpSocket@@V?$allocator@PAUOUTPUT@TcpSocket@@@std@@@std@@QAE@XZ 00416f20 f i sockets:TcpSocket.obj
 0001:00015fb0       ??1?$list@PAUOUTPUT@TcpSocket@@V?$allocator@PAUOUTPUT@TcpSocket@@@std@@@std@@QAE@XZ 00416fb0 f i sockets:TcpSocket.obj
 0001:00016030       ?erase@?$list@PAUOUTPUT@TcpSocket@@V?$allocator@PAUOUTPUT@TcpSocket@@@std@@@std@@QAE?AV?$_Iterator@$0A@@12@V?$_Const_iterator@$0A@@12@@Z 00417030 f i sockets:TcpSocket.obj
 0001:000160c0       ??1?$_List_val@PAUOUTPUT@TcpSocket@@V?$allocator@PAUOUTPUT@TcpSocket@@@std@@@std@@QAE@XZ 004170c0 f i sockets:TcpSocket.obj
 0001:000160d0       ?_Insert@?$list@PAUOUTPUT@TcpSocket@@V?$allocator@PAUOUTPUT@TcpSocket@@@std@@@std@@QAEXV?$_Const_iterator@$0A@@12@ABQAUOUTPUT@TcpSocket@@@Z 004170d0 f i sockets:TcpSocket.obj
 0001:00016130       ?_Buynode@?$list@PAUOUTPUT@TcpSocket@@V?$allocator@PAUOUTPUT@TcpSocket@@@std@@@std@@IAEPAU_Node@?$_List_nod@PAUOUTPUT@TcpSocket@@V?$allocator@PAUOUTPUT@TcpSocket@@@std@@@2@XZ 00417130 f i sockets:TcpSocket.obj
 0001:00016230       ?clear@?$list@PAUOUTPUT@TcpSocket@@V?$allocator@PAUOUTPUT@TcpSocket@@@std@@@std@@QAEXXZ 00417230 f i sockets:TcpSocket.obj
 0001:000162b0       ?_Buynode@?$list@PAUOUTPUT@TcpSocket@@V?$allocator@PAUOUTPUT@TcpSocket@@@std@@@std@@IAEPAU_Node@?$_List_nod@PAUOUTPUT@TcpSocket@@V?$allocator@PAUOUTPUT@TcpSocket@@@std@@@2@PAU342@0ABQAUOUTPUT@TcpSocket@@@Z 004172b0 f i sockets:TcpSocket.obj
 0001:000163e0       ?_Incsize@?$list@PAUOUTPUT@TcpSocket@@V?$allocator@PAUOUTPUT@TcpSocket@@@std@@@std@@IAEXI@Z 004173e0 f i sockets:TcpSocket.obj
 0001:000164c0       ?allocate@?$allocator@U_Node@?$_List_nod@PAUOUTPUT@TcpSocket@@V?$allocator@PAUOUTPUT@TcpSocket@@@std@@@std@@@std@@QAEPAU_Node@?$_List_nod@PAUOUTPUT@TcpSocket@@V?$allocator@PAUOUTPUT@TcpSocket@@@std@@@2@I@Z 004174c0 f i sockets:TcpSocket.obj
 0001:000164e0       ??$_Allocate@U_Node@?$_List_nod@PAUOUTPUT@TcpSocket@@V?$allocator@PAUOUTPUT@TcpSocket@@@std@@@std@@@std@@YAPAU_Node@?$_List_nod@PAUOUTPUT@TcpSocket@@V?$allocator@PAUOUTPUT@TcpSocket@@@std@@@0@IPAU120@@Z 004174e0 f i sockets:TcpSocket.obj
 0001:00016540       ??0Socket@@QAE@AAVISocketHandler@@@Z 00417540 f   sockets:Socket.obj
 0001:00016680       ??1Socket@@UAE@XZ          00417680 f   sockets:Socket.obj
 0001:000167a0       ?Init@Socket@@UAEXXZ       004177a0 f   sockets:Socket.obj
 0001:000167b0       ?OnRead@Socket@@UAEXXZ     004177b0 f   sockets:Socket.obj
 0001:000167c0       ?OnWrite@Socket@@UAEXXZ    004177c0 f   sockets:Socket.obj
 0001:000167d0       ?OnException@Socket@@UAEXXZ 004177d0 f   sockets:Socket.obj
 0001:000168a0       ?OnDelete@Socket@@UAEXXZ   004178a0 f   sockets:Socket.obj
 0001:000168b0       ?OnConnect@Socket@@UAEXXZ  004178b0 f   sockets:Socket.obj
 0001:000168c0       ?OnAccept@Socket@@UAEXXZ   004178c0 f   sockets:Socket.obj
 0001:000168d0       ?Close@Socket@@UAEHXZ      004178d0 f   sockets:Socket.obj
 0001:00016b90       ?CreateSocket@Socket@@QAEIHHABV?$basic_string@DU?$char_traits@D@std@@V?$allocator@D@2@@std@@@Z 00417b90 f   sockets:Socket.obj
 0001:00016e00       ?Attach@Socket@@QAEXI@Z    00417e00 f   sockets:Socket.obj
 0001:00016e20       ?GetSocket@Socket@@QAEIXZ  00417e20 f   sockets:Socket.obj
 0001:00016e40       ?SetDeleteByHandler@Socket@@QAEX_N@Z 00417e40 f   sockets:Socket.obj
 0001:00016e60       ?DeleteByHandler@Socket@@QAE_NXZ 00417e60 f   sockets:Socket.obj
 0001:00016e80       ?SetCloseAndDelete@Socket@@QAEX_N@Z 00417e80 f   sockets:Socket.obj
 0001:00016ef0       ?CloseAndDelete@Socket@@QAE_NXZ 00417ef0 f   sockets:Socket.obj
 0001:00016f10       ?SetRemoteAddress@Socket@@QAEXAAVSocketAddress@@@Z 00417f10 f   sockets:Socket.obj
 0001:00016fa0       ?GetRemoteSocketAddress@Socket@@QAE?AV?$auto_ptr@VSocketAddress@@@std@@XZ 00417fa0 f   sockets:Socket.obj
 0001:00017080       ?Handler@Socket@@QBEAAVISocketHandler@@XZ 00418080 f   sockets:Socket.obj
 0001:000170b0       ?MasterHandler@Socket@@QBEAAVISocketHandler@@XZ 004180b0 f   sockets:Socket.obj
 0001:000170d0       ?GetRemoteIP4@Socket@@QAEKXZ 004180d0 f   sockets:Socket.obj
 0001:00017130       ?GetRemotePort@Socket@@QAEGXZ 00418130 f   sockets:Socket.obj
 0001:00017170       ?GetRemoteAddress@Socket@@QAE?AV?$basic_string@DU?$char_traits@D@std@@V?$allocator@D@2@@std@@XZ 00418170 f   sockets:Socket.obj
 0001:000171e0       ?GetRemoteHostname@Socket@@QAE?AV?$basic_string@DU?$char_traits@D@std@@V?$allocator@D@2@@std@@XZ 004181e0 f   sockets:Socket.obj
 0001:00017250       ?SetNonblocking@Socket@@QAE_N_N@Z 00418250 f   sockets:Socket.obj
 0001:00017330       ?SetNonblocking@Socket@@QAE_N_NI@Z 00418330 f   sockets:Socket.obj
 0001:00017410       ?Set@Socket@@QAEX_N00@Z    00418410 f   sockets:Socket.obj
 0001:00017450       ?Ready@Socket@@UAE_NXZ     00418450 f   sockets:Socket.obj
 0001:00017480       ?OnLine@Socket@@UAEXABV?$basic_string@DU?$char_traits@D@std@@V?$allocator@D@2@@std@@@Z 00418480 f   sockets:Socket.obj
 0001:00017490       ?OnConnectFailed@Socket@@UAEXXZ 00418490 f   sockets:Socket.obj
 0001:000174a0       ?GetParent@Socket@@QAEPAV1@XZ 004184a0 f   sockets:Socket.obj
 0001:000174c0       ?SetParent@Socket@@QAEXPAV1@@Z 004184c0 f   sockets:Socket.obj
 0001:000174e0       ?GetPort@Socket@@UAEGXZ    004184e0 f   sockets:Socket.obj
 0001:00017590       ?OnConnectRetry@Socket@@UAE_NXZ 00418590 f   sockets:Socket.obj
 0001:000175a0       ?OnReconnect@Socket@@UAEXXZ 004185a0 f   sockets:Socket.obj
 0001:000175b0       ?Uptime@Socket@@QAE_JXZ    004185b0 f   sockets:Socket.obj
 0001:000175e0       ?DisableRead@Socket@@QAEX_N@Z 004185e0 f   sockets:Socket.obj
 0001:00017600       ?IsDisableRead@Socket@@QAE_NXZ 00418600 f   sockets:Socket.obj
 0001:00017620       ?SendBuf@Socket@@UAEXPBDIH@Z 00418620 f   sockets:Socket.obj
 0001:00017630       ?Send@Socket@@UAEXABV?$basic_string@DU?$char_traits@D@std@@V?$allocator@D@2@@std@@H@Z 00418630 f   sockets:Socket.obj
 0001:00017640       ?SetConnected@Socket@@QAEX_N@Z 00418640 f   sockets:Socket.obj
 0001:00017660       ?IsConnected@Socket@@QAE_NXZ 00418660 f   sockets:Socket.obj
 0001:00017680       ?OnDisconnect@Socket@@UAEXXZ 00418680 f   sockets:Socket.obj
 0001:00017690       ?SetLost@Socket@@QAEXXZ    00418690 f   sockets:Socket.obj
 0001:000176b0       ?Lost@Socket@@QAE_NXZ      004186b0 f   sockets:Socket.obj
 0001:000176d0       ?SetErasedByHandler@Socket@@QAEX_N@Z 004186d0 f   sockets:Socket.obj
 0001:000176f0       ?ErasedByHandler@Socket@@QAE_NXZ 004186f0 f   sockets:Socket.obj
 0001:00017710       ?TimeSinceClose@Socket@@QAE_JXZ 00418710 f   sockets:Socket.obj
 0001:00017740       ?SetClientRemoteAddress@Socket@@QAEXAAVSocketAddress@@@Z 00418740 f   sockets:Socket.obj
 0001:00017870       ?GetClientRemoteAddress@Socket@@QAE?AV?$auto_ptr@VSocketAddress@@@std@@XZ 00418870 f   sockets:Socket.obj
 0001:000179d0       ?GetBytesSent@Socket@@UAE_K_N@Z 004189d0 f   sockets:Socket.obj
 0001:000179f0       ?GetBytesReceived@Socket@@UAE_K_N@Z 004189f0 f   sockets:Socket.obj
 0001:00017a10       ?CopyConnection@Socket@@QAEXPAV1@@Z 00418a10 f   sockets:Socket.obj
 0001:00017b50       ?SetIsClient@Socket@@QAEXXZ 00418b50 f   sockets:Socket.obj
 0001:00017b70       ?SetSocketType@Socket@@QAEXH@Z 00418b70 f   sockets:Socket.obj
 0001:00017b90       ?GetSocketType@Socket@@QAEHXZ 00418b90 f   sockets:Socket.obj
 0001:00017bb0       ?SetSocketProtocol@Socket@@QAEXABV?$basic_string@DU?$char_traits@D@std@@V?$allocator@D@2@@std@@@Z 00418bb0 f   sockets:Socket.obj
 0001:00017bd0       ?GetSocketProtocol@Socket@@QAEABV?$basic_string@DU?$char_traits@D@std@@V?$allocator@D@2@@std@@XZ 00418bd0 f   sockets:Socket.obj
 0001:00017bf0       ?SetRetain@Socket@@QAEXXZ  00418bf0 f   sockets:Socket.obj
 0001:00017c10       ?Retain@Socket@@QAE_NXZ    00418c10 f   sockets:Socket.obj
 0001:00017c30       ?Detach@Socket@@QAE_NXZ    00418c30 f   sockets:Socket.obj
 0001:00017c80       ?DetachSocket@Socket@@QAEXXZ 00418c80 f   sockets:Socket.obj
 0001:00017d20       ?OnDetached@Socket@@UAEXXZ 00418d20 f   sockets:Socket.obj
 0001:00017d30       ?SetDetach@Socket@@QAEX_N@Z 00418d30 f   sockets:Socket.obj
 0001:00017d70       ?IsDetach@Socket@@QAE_NXZ  00418d70 f   sockets:Socket.obj
 0001:00017d90       ?SetDetached@Socket@@QAEX_N@Z 00418d90 f   sockets:Socket.obj
 0001:00017db0       ?IsDetached@Socket@@QBE?B_NXZ 00418db0 f   sockets:Socket.obj
 0001:00017dd0       ?SetSlaveHandler@Socket@@QAEXPAVISocketHandler@@@Z 00418dd0 f   sockets:Socket.obj
 0001:00017df0       ??0SocketThread@Socket@@QAE@PAV1@@Z 00418df0 f   sockets:Socket.obj
 0001:00017e20       ??_GSocketThread@Socket@@UAEPAXI@Z 00418e20 f i sockets:Socket.obj
 0001:00017e20       ??_ESocketThread@Socket@@UAEPAXI@Z 00418e20 f i sockets:Socket.obj
 0001:00017e50       ??1SocketThread@Socket@@UAE@XZ 00418e50 f   sockets:Socket.obj
 0001:00017ee0       ?Run@SocketThread@Socket@@UAEXXZ 00418ee0 f   sockets:Socket.obj
 0001:00017fe0       ?Resolve@Socket@@QAEHABV?$basic_string@DU?$char_traits@D@std@@V?$allocator@D@2@@std@@G@Z 00418fe0 f   sockets:Socket.obj
 0001:00018020       ?Resolve@Socket@@QAEHK@Z   00419020 f   sockets:Socket.obj
 0001:00018050       ?OnResolved@Socket@@UAEXHKG@Z 00419050 f   sockets:Socket.obj
 0001:00018060       ?OnReverseResolved@Socket@@UAEXHABV?$basic_string@DU?$char_traits@D@std@@V?$allocator@D@2@@std@@@Z 00419060 f   sockets:Socket.obj
 0001:00018070       ?OnResolveFailed@Socket@@UAEXH@Z 00419070 f   sockets:Socket.obj
 0001:00018080       ?SetIpOptions@Socket@@QAE_NPBXH@Z 00419080 f   sockets:Socket.obj
 0001:00018160       ?SetIpPktinfo@Socket@@QAE_N_N@Z 00419160 f   sockets:Socket.obj
 0001:00018250       ?SetIpTOS@Socket@@QAE_NE@Z 00419250 f   sockets:Socket.obj
 0001:00018330       ?IpTOS@Socket@@QAEEXZ      00419330 f   sockets:Socket.obj
 0001:00018420       ?SetIpTTL@Socket@@QAE_NH@Z 00419420 f   sockets:Socket.obj
 0001:00018500       ?IpTTL@Socket@@QAEHXZ      00419500 f   sockets:Socket.obj
 0001:000185f0       ?SetIpHdrincl@Socket@@QAE_N_N@Z 004195f0 f   sockets:Socket.obj
 0001:000186e0       ?SetIpMulticastTTL@Socket@@QAE_NH@Z 004196e0 f   sockets:Socket.obj
 0001:000187c0       ?IpMulticastTTL@Socket@@QAEHXZ 004197c0 f   sockets:Socket.obj
 0001:000188b0       ?SetMulticastLoop@Socket@@QAE_N_N@Z 004198b0 f   sockets:Socket.obj
 0001:000189a0       ?IpAddMembership@Socket@@QAE_NAAUip_mreq@@@Z 004199a0 f   sockets:Socket.obj
 0001:00018a80       ?IpDropMembership@Socket@@QAE_NAAUip_mreq@@@Z 00419a80 f   sockets:Socket.obj
 0001:00018b60       ?SetSoReuseaddr@Socket@@QAE_N_N@Z 00419b60 f   sockets:Socket.obj
 0001:00018c50       ?SetSoKeepalive@Socket@@QAE_N_N@Z 00419c50 f   sockets:Socket.obj
 0001:00018d40       ?SoAcceptconn@Socket@@QAE_NXZ 00419d40 f   sockets:Socket.obj
 0001:00018e30       ?SetSoBroadcast@Socket@@QAE_N_N@Z 00419e30 f   sockets:Socket.obj
 0001:00018f20       ?SetSoDebug@Socket@@QAE_N_N@Z 00419f20 f   sockets:Socket.obj
 0001:00019010       ?SoError@Socket@@QAEHXZ    0041a010 f   sockets:Socket.obj
 0001:00019100       ?SetSoDontroute@Socket@@QAE_N_N@Z 0041a100 f   sockets:Socket.obj
 0001:000191f0       ?SetSoLinger@Socket@@QAE_NHH@Z 0041a1f0 f   sockets:Socket.obj
 0001:000192f0       ?SetSoOobinline@Socket@@QAE_N_N@Z 0041a2f0 f   sockets:Socket.obj
 0001:000193e0       ?SetSoRcvlowat@Socket@@QAE_NH@Z 0041a3e0 f   sockets:Socket.obj
 0001:000194d0       ?SetSoSndlowat@Socket@@QAE_NH@Z 0041a4d0 f   sockets:Socket.obj
 0001:000195c0       ?SetSoRcvtimeo@Socket@@QAE_NAAUtimeval@@@Z 0041a5c0 f   sockets:Socket.obj
 0001:000196b0       ?SetSoSndtimeo@Socket@@QAE_NAAUtimeval@@@Z 0041a6b0 f   sockets:Socket.obj
 0001:000197a0       ?SetSoRcvbuf@Socket@@QAE_NH@Z 0041a7a0 f   sockets:Socket.obj
 0001:00019890       ?SoRcvbuf@Socket@@QAEHXZ   0041a890 f   sockets:Socket.obj
 0001:00019980       ?SetSoSndbuf@Socket@@QAE_NH@Z 0041a980 f   sockets:Socket.obj
 0001:00019a70       ?SoSndbuf@Socket@@QAEHXZ   0041aa70 f   sockets:Socket.obj
 0001:00019b60       ?SoType@Socket@@QAEHXZ     0041ab60 f   sockets:Socket.obj
 0001:00019c50       ?SetTimeout@Socket@@QAEX_J@Z 0041ac50 f   sockets:Socket.obj
 0001:00019ce0       ?OnTimeout@Socket@@UAEXXZ  0041ace0 f   sockets:Socket.obj
 0001:00019cf0       ?OnConnectTimeout@Socket@@UAEXXZ 0041acf0 f   sockets:Socket.obj
 0001:00019d00       ?Timeout@Socket@@QAE_N_J@Z 0041ad00 f   sockets:Socket.obj
 0001:00019d50       ?GetSockPort@Socket@@QAEGXZ 0041ad50 f   sockets:Socket.obj
 0001:00019db0       ?GetSockIP4@Socket@@QAEKXZ 0041adb0 f   sockets:Socket.obj
 0001:00019e20       ?GetSockAddress@Socket@@QAE?AV?$basic_string@DU?$char_traits@D@std@@V?$allocator@D@2@@std@@XZ 0041ae20 f   sockets:Socket.obj
 0001:00019ee0       ??4?$auto_ptr@VSocketAddress@@@std@@QAEAAV01@U?$auto_ptr_ref@VSocketAddress@@@1@@Z 0041aee0 f i sockets:Socket.obj
 0001:00019f50       ??0StreamSocket@@QAE@AAVISocketHandler@@@Z 0041af50 f   sockets:StreamSocket.obj
 0001:00019fe0       ??1StreamSocket@@UAE@XZ    0041afe0 f   sockets:StreamSocket.obj
 0001:0001a000       ?SetConnecting@StreamSocket@@QAEX_N@Z 0041b000 f   sockets:StreamSocket.obj
 0001:0001a060       ?Connecting@StreamSocket@@QAE_NXZ 0041b060 f   sockets:StreamSocket.obj
 0001:0001a080       ?Ready@StreamSocket@@UAE_NXZ 0041b080 f   sockets:StreamSocket.obj
 0001:0001a0c0       ?SetConnectTimeout@StreamSocket@@QAEXH@Z 0041b0c0 f   sockets:StreamSocket.obj
 0001:0001a0e0       ?GetConnectTimeout@StreamSocket@@QAEHXZ 0041b0e0 f   sockets:StreamSocket.obj
 0001:0001a100       ?SetFlushBeforeClose@StreamSocket@@QAEX_N@Z 0041b100 f   sockets:StreamSocket.obj
 0001:0001a120       ?GetFlushBeforeClose@StreamSocket@@QAE_NXZ 0041b120 f   sockets:StreamSocket.obj
 0001:0001a140       ?GetConnectionRetry@StreamSocket@@QAEHXZ 0041b140 f   sockets:StreamSocket.obj
 0001:0001a160       ?SetConnectionRetry@StreamSocket@@QAEXH@Z 0041b160 f   sockets:StreamSocket.obj
 0001:0001a180       ?GetConnectionRetries@StreamSocket@@QAEHXZ 0041b180 f   sockets:StreamSocket.obj
 0001:0001a1a0       ?IncreaseConnectionRetries@StreamSocket@@QAEXXZ 0041b1a0 f   sockets:StreamSocket.obj
 0001:0001a1c0       ?ResetConnectionRetries@StreamSocket@@QAEXXZ 0041b1c0 f   sockets:StreamSocket.obj
 0001:0001a1e0       ?SetCallOnConnect@StreamSocket@@QAEX_N@Z 0041b1e0 f   sockets:StreamSocket.obj
 0001:0001a230       ?CallOnConnect@StreamSocket@@QAE_NXZ 0041b230 f   sockets:StreamSocket.obj
 0001:0001a250       ?SetRetryClientConnect@StreamSocket@@QAEX_N@Z 0041b250 f   sockets:StreamSocket.obj
 0001:0001a2a0       ?RetryClientConnect@StreamSocket@@QAE_NXZ 0041b2a0 f   sockets:StreamSocket.obj
 0001:0001a2c0       ?SetLineProtocol@StreamSocket@@UAEX_N@Z 0041b2c0 f   sockets:StreamSocket.obj
 0001:0001a2e0       ?LineProtocol@StreamSocket@@QAE_NXZ 0041b2e0 f   sockets:StreamSocket.obj
 0001:0001a300       ?SetShutdown@StreamSocket@@QAEXH@Z 0041b300 f   sockets:StreamSocket.obj
 0001:0001a320       ?GetShutdown@StreamSocket@@QAEHXZ 0041b320 f   sockets:StreamSocket.obj
 0001:0001a340       ??0SocketHandler@@QAE@PAVStdLog@@@Z 0041b340 f   sockets:SocketHandler.obj
 0001:0001a560       ??1ISocketHandler@@UAE@XZ  0041b560 f i sockets:SocketHandler.obj
 0001:0001a580       ??_EISocketHandler@@UAEPAXI@Z 0041b580 f i sockets:SocketHandler.obj
 0001:0001a580       ??_GISocketHandler@@UAEPAXI@Z 0041b580 f i sockets:SocketHandler.obj
 0001:0001a5b0       ??_GSocketHandler@@UAEPAXI@Z 0041b5b0 f i sockets:SocketHandler.obj
 0001:0001a5b0       ??_ESocketHandler@@UAEPAXI@Z 0041b5b0 f i sockets:SocketHandler.obj
 0001:0001a5e0       ??1?$map@IPAVSocket@@U?$less@I@std@@V?$allocator@U?$pair@$$CBIPAVSocket@@@std@@@3@@std@@QAE@XZ 0041b5e0 f i sockets:SocketHandler.obj
 0001:0001a630       ??0SocketHandler@@QAE@AAVMutex@@PAVStdLog@@@Z 0041b630 f   sockets:SocketHandler.obj
 0001:0001a860       ??1?$map@PAVSocket@@_NU?$less@PAVSocket@@@std@@V?$allocator@U?$pair@QAVSocket@@_N@std@@@3@@std@@QAE@XZ 0041b860 f i sockets:SocketHandler.obj
 0001:0001a8b0       ??1SocketHandler@@UAE@XZ   0041b8b0 f   sockets:SocketHandler.obj
 0001:0001ad70       ?GetMutex@SocketHandler@@UBEAAVMutex@@XZ 0041bd70 f   sockets:SocketHandler.obj
 0001:0001ad90       ?SetSlave@SocketHandler@@UAEX_N@Z 0041bd90 f   sockets:SocketHandler.obj
 0001:0001adb0       ?IsSlave@SocketHandler@@UAE_NXZ 0041bdb0 f   sockets:SocketHandler.obj
 0001:0001add0       ?RegStdLog@SocketHandler@@UAEXPAVStdLog@@@Z 0041bdd0 f   sockets:SocketHandler.obj
 0001:0001adf0       ?LogError@SocketHandler@@UAEXPAVSocket@@ABV?$basic_string@DU?$char_traits@D@std@@V?$allocator@D@2@@std@@H1W4loglevel_t@@@Z 0041bdf0 f   sockets:SocketHandler.obj
 0001:0001ae40       ?Add@SocketHandler@@UAEXPAVSocket@@@Z 0041be40 f   sockets:SocketHandler.obj
 0001:0001b0b0       ?Get@SocketHandler@@UAEXIAA_N00@Z 0041c0b0 f   sockets:SocketHandler.obj
 0001:0001b120       ?Set@SocketHandler@@UAEXI_N00@Z 0041c120 f   sockets:SocketHandler.obj
 0001:0001b490       ?Select@SocketHandler@@UAEHJJ@Z 0041c490 f   sockets:SocketHandler.obj
 0001:0001b4c0       ?Select@SocketHandler@@UAEHXZ 0041c4c0 f   sockets:SocketHandler.obj
 0001:0001b590       ?Select@SocketHandler@@UAEHPAUtimeval@@@Z 0041c590 f   sockets:SocketHandler.obj
 0001:0001dd30       ?OnRead@PoolSocket@ISocketHandler@@UAEXXZ 0041ed30 f i sockets:SocketHandler.obj
 0001:0001dde0       ?OnOptions@PoolSocket@ISocketHandler@@UAEXHHHI@Z 0041ede0 f i sockets:SocketHandler.obj
 0001:0001ddf0       ??_EPoolSocket@ISocketHandler@@UAEPAXI@Z 0041edf0 f i sockets:SocketHandler.obj
 0001:0001ddf0       ??_GPoolSocket@ISocketHandler@@UAEPAXI@Z 0041edf0 f i sockets:SocketHandler.obj
 0001:0001de20       ?Resolving@SocketHandler@@UAE_NPAVSocket@@@Z 0041ee20 f   sockets:SocketHandler.obj
 0001:0001de70       ?Valid@SocketHandler@@UAE_NPAVSocket@@@Z 0041ee70 f   sockets:SocketHandler.obj
 0001:0001def0       ?OkToAccept@SocketHandler@@UAE_NPAVSocket@@@Z 0041eef0 f   sockets:SocketHandler.obj
 0001:0001df00       ?GetCount@SocketHandler@@UAEIXZ 0041ef00 f   sockets:SocketHandler.obj
 0001:0001df40       ?Resolve@SocketHandler@@UAEHPAVSocket@@ABV?$basic_string@DU?$char_traits@D@std@@V?$allocator@D@2@@std@@G@Z 0041ef40 f   sockets:SocketHandler.obj
 0001:0001e130       ?Resolve@SocketHandler@@UAEHPAVSocket@@K@Z 0041f130 f   sockets:SocketHandler.obj
 0001:0001e310       ?EnableResolver@SocketHandler@@UAEXG@Z 0041f310 f   sockets:SocketHandler.obj
 0001:0001e3b0       ?ResolverReady@SocketHandler@@UAE_NXZ 0041f3b0 f   sockets:SocketHandler.obj
 0001:0001e3f0       ?ResolverEnabled@SocketHandler@@UAE_NXZ 0041f3f0 f   sockets:SocketHandler.obj
 0001:0001e410       ?GetResolverPort@SocketHandler@@UAEGXZ 0041f410 f   sockets:SocketHandler.obj
 0001:0001e430       ?FindConnection@SocketHandler@@UAEPAVPoolSocket@ISocketHandler@@HABV?$basic_string@DU?$char_traits@D@std@@V?$allocator@D@2@@std@@AAVSocketAddress@@@Z 0041f430 f   sockets:SocketHandler.obj
 0001:0001e630       ?EnablePool@SocketHandler@@UAEX_N@Z 0041f630 f   sockets:SocketHandler.obj
 0001:0001e650       ?PoolEnabled@SocketHandler@@UAE_NXZ 0041f650 f   sockets:SocketHandler.obj
 0001:0001e670       ?Remove@SocketHandler@@EAEXPAVSocket@@@Z 0041f670 f   sockets:SocketHandler.obj
 0001:0001eab0       ?CheckSanity@SocketHandler@@QAEXXZ 0041fab0 f   sockets:SocketHandler.obj
 0001:0001ecd0       ?CheckList@SocketHandler@@AAEXAAV?$list@IV?$allocator@I@std@@@std@@ABV?$basic_string@DU?$char_traits@D@std@@V?$allocator@D@2@@3@@Z 0041fcd0 f   sockets:SocketHandler.obj
 0001:0001eec0       ?AddList@SocketHandler@@UAEXIW4list_t@@_N@Z 0041fec0 f   sockets:SocketHandler.obj
 0001:0001f0f0       ??0?$map@IPAVSocket@@U?$less@I@std@@V?$allocator@U?$pair@$$CBIPAVSocket@@@std@@@3@@std@@QAE@XZ 004200f0 f i sockets:SocketHandler.obj
 0001:0001f110       ??A?$map@IPAVSocket@@U?$less@I@std@@V?$allocator@U?$pair@$$CBIPAVSocket@@@std@@@3@@std@@QAEAAPAVSocket@@ABI@Z 00420110 f i sockets:SocketHandler.obj
 0001:0001f1b0       ?erase@?$_Tree@V?$_Tmap_traits@IPAVSocket@@U?$less@I@std@@V?$allocator@U?$pair@$$CBIPAVSocket@@@std@@@3@$0A@@std@@@std@@QAE?AViterator@12@Vconst_iterator@12@@Z 004201b0 f i sockets:SocketHandler.obj
 0001:0001f760       ?find@?$_Tree@V?$_Tmap_traits@IPAVSocket@@U?$less@I@std@@V?$allocator@U?$pair@$$CBIPAVSocket@@@std@@@3@$0A@@std@@@std@@QAE?AViterator@12@ABI@Z 00420760 f i sockets:SocketHandler.obj
 0001:0001f800       ??0?$list@PAVSocket@@V?$allocator@PAVSocket@@@std@@@std@@QAE@XZ 00420800 f i sockets:SocketHandler.obj
 0001:0001f890       ??1?$list@PAVSocket@@V?$allocator@PAVSocket@@@std@@@std@@QAE@XZ 00420890 f i sockets:SocketHandler.obj
 0001:0001f910       ?erase@?$list@PAVSocket@@V?$allocator@PAVSocket@@@std@@@std@@QAE?AV?$_Iterator@$0A@@12@V?$_Const_iterator@$0A@@12@@Z 00420910 f i sockets:SocketHandler.obj
 0001:0001f9a0       ??0?$list@IV?$allocator@I@std@@@std@@QAE@XZ 004209a0 f i sockets:SocketHandler.obj
 0001:0001fa30       ??0?$list@IV?$allocator@I@std@@@std@@QAE@ABV01@@Z 00420a30 f i sockets:SocketHandler.obj
 0001:0001fb90       ??1?$list@IV?$allocator@I@std@@@std@@QAE@XZ 00420b90 f i sockets:SocketHandler.obj
 0001:0001fc10       ?erase@?$list@IV?$allocator@I@std@@@std@@QAE?AV?$_Iterator@$0A@@12@V?$_Const_iterator@$0A@@12@@Z 00420c10 f i sockets:SocketHandler.obj
 0001:0001fca0       ??0?$map@PAVSocket@@_NU?$less@PAVSocket@@@std@@V?$allocator@U?$pair@QAVSocket@@_N@std@@@3@@std@@QAE@XZ 00420ca0 f i sockets:SocketHandler.obj
 0001:0001fcc0       ??A?$map@PAVSocket@@_NU?$less@PAVSocket@@@std@@V?$allocator@U?$pair@QAVSocket@@_N@std@@@3@@std@@QAEAA_NABQAVSocket@@@Z 00420cc0 f i sockets:SocketHandler.obj
 0001:0001fd60       ?erase@?$_Tree@V?$_Tmap_traits@PAVSocket@@_NU?$less@PAVSocket@@@std@@V?$allocator@U?$pair@QAVSocket@@_N@std@@@3@$0A@@std@@@std@@QAE?AViterator@12@Vconst_iterator@12@@Z 00420d60 f i sockets:SocketHandler.obj
 0001:00020310       ?find@?$_Tree@V?$_Tmap_traits@PAVSocket@@_NU?$less@PAVSocket@@@std@@V?$allocator@U?$pair@QAVSocket@@_N@std@@@3@$0A@@std@@@std@@QAE?AViterator@12@ABQAVSocket@@@Z 00421310 f i sockets:SocketHandler.obj
 0001:000203b0       ??1?$_Tree_val@V?$_Tmap_traits@IPAVSocket@@U?$less@I@std@@V?$allocator@U?$pair@$$CBIPAVSocket@@@std@@@3@$0A@@std@@@std@@QAE@XZ 004213b0 f i sockets:SocketHandler.obj
 0001:000203c0       ??1?$_List_val@PAVSocket@@V?$allocator@PAVSocket@@@std@@@std@@QAE@XZ 004213c0 f i sockets:SocketHandler.obj
 0001:000203d0       ??1?$_List_val@IV?$allocator@I@std@@@std@@QAE@XZ 004213d0 f i sockets:SocketHandler.obj
 0001:000203e0       ??1?$_Tree_val@V?$_Tmap_traits@PAVSocket@@_NU?$less@PAVSocket@@@std@@V?$allocator@U?$pair@QAVSocket@@_N@std@@@3@$0A@@std@@@std@@QAE@XZ 004213e0 f i sockets:SocketHandler.obj
 0001:000203f0       ??0?$_Tree@V?$_Tmap_traits@IPAVSocket@@U?$less@I@std@@V?$allocator@U?$pair@$$CBIPAVSocket@@@std@@@3@$0A@@std@@@std@@QAE@ABU?$less@I@1@ABV?$allocator@U?$pair@$$CBIPAVSocket@@@std@@@1@@Z 004213f0 f i sockets:SocketHandler.obj
 0001:00020490       ?insert@?$_Tree@V?$_Tmap_traits@IPAVSocket@@U?$less@I@std@@V?$allocator@U?$pair@$$CBIPAVSocket@@@std@@@3@$0A@@std@@@std@@QAE?AViterator@12@Vconst_iterator@12@ABU?$pair@$$CBIPAVSocket@@@2@@Z 00421490 f i sockets:SocketHandler.obj
 0001:00020a60       ?_Lrotate@?$_Tree@V?$_Tmap_traits@IPAVSocket@@U?$less@I@std@@V?$allocator@U?$pair@$$CBIPAVSocket@@@std@@@3@$0A@@std@@@std@@IAEXPAU_Node@?$_Tree_nod@V?$_Tmap_traits@IPAVSocket@@U?$less@I@std@@V?$allocator@U?$pair@$$CBIPAVSocket@@@std@@@3@$0A@@std@@@2@@Z 00421a60 f i sockets:SocketHandler.obj
 0001:00020b10       ?_Rrotate@?$_Tree@V?$_Tmap_traits@IPAVSocket@@U?$less@I@std@@V?$allocator@U?$pair@$$CBIPAVSocket@@@std@@@3@$0A@@std@@@std@@IAEXPAU_Node@?$_Tree_nod@V?$_Tmap_traits@IPAVSocket@@U?$less@I@std@@V?$allocator@U?$pair@$$CBIPAVSocket@@@std@@@3@$0A@@std@@@2@@Z 00421b10 f i sockets:SocketHandler.obj
 0001:00020bc0       ?_Tidy@?$_Tree@V?$_Tmap_traits@IPAVSocket@@U?$less@I@std@@V?$allocator@U?$pair@$$CBIPAVSocket@@@std@@@3@$0A@@std@@@std@@IAEXXZ 00421bc0 f i sockets:SocketHandler.obj
 0001:00020c50       ?_Insert@?$list@PAVSocket@@V?$allocator@PAVSocket@@@std@@@std@@QAEXV?$_Const_iterator@$0A@@12@ABQAVSocket@@@Z 00421c50 f i sockets:SocketHandler.obj
 0001:00020cb0       ?_Buynode@?$list@PAVSocket@@V?$allocator@PAVSocket@@@std@@@std@@IAEPAU_Node@?$_List_nod@PAVSocket@@V?$allocator@PAVSocket@@@std@@@2@XZ 00421cb0 f i sockets:SocketHandler.obj
 0001:00020db0       ?_Insert@?$list@IV?$allocator@I@std@@@std@@QAEXV?$_Const_iterator@$0A@@12@ABI@Z 00421db0 f i sockets:SocketHandler.obj
 0001:00020e10       ?_Buynode@?$list@IV?$allocator@I@std@@@std@@IAEPAU_Node@?$_List_nod@IV?$allocator@I@std@@@2@XZ 00421e10 f i sockets:SocketHandler.obj
 0001:00020f10       ?_Tidy@?$list@IV?$allocator@I@std@@@std@@IAEXXZ 00421f10 f i sockets:SocketHandler.obj
 0001:00020f50       ??0?$_Tree@V?$_Tmap_traits@PAVSocket@@_NU?$less@PAVSocket@@@std@@V?$allocator@U?$pair@QAVSocket@@_N@std@@@3@$0A@@std@@@std@@QAE@ABU?$less@PAVSocket@@@1@ABV?$allocator@U?$pair@QAVSocket@@_N@std@@@1@@Z 00421f50 f i sockets:SocketHandler.obj
 0001:00020ff0       ?insert@?$_Tree@V?$_Tmap_traits@PAVSocket@@_NU?$less@PAVSocket@@@std@@V?$allocator@U?$pair@QAVSocket@@_N@std@@@3@$0A@@std@@@std@@QAE?AViterator@12@Vconst_iterator@12@ABU?$pair@QAVSocket@@_N@2@@Z 00421ff0 f i sockets:SocketHandler.obj
 0001:000215c0       ?_Lrotate@?$_Tree@V?$_Tmap_traits@PAVSocket@@_NU?$less@PAVSocket@@@std@@V?$allocator@U?$pair@QAVSocket@@_N@std@@@3@$0A@@std@@@std@@IAEXPAU_Node@?$_Tree_nod@V?$_Tmap_traits@PAVSocket@@_NU?$less@PAVSocket@@@std@@V?$allocator@U?$pair@QAVSocket@@_N@std@@@3@$0A@@std@@@2@@Z 004225c0 f i sockets:SocketHandler.obj
 0001:00021670       ?_Rrotate@?$_Tree@V?$_Tmap_traits@PAVSocket@@_NU?$less@PAVSocket@@@std@@V?$allocator@U?$pair@QAVSocket@@_N@std@@@3@$0A@@std@@@std@@IAEXPAU_Node@?$_Tree_nod@V?$_Tmap_traits@PAVSocket@@_NU?$less@PAVSocket@@@std@@V?$allocator@U?$pair@QAVSocket@@_N@std@@@3@$0A@@std@@@2@@Z 00422670 f i sockets:SocketHandler.obj
 0001:00021720       ?_Tidy@?$_Tree@V?$_Tmap_traits@PAVSocket@@_NU?$less@PAVSocket@@@std@@V?$allocator@U?$pair@QAVSocket@@_N@std@@@3@$0A@@std@@@std@@IAEXXZ 00422720 f i sockets:SocketHandler.obj
 0001:000217b0       ?insert@?$_Tree@V?$_Tmap_traits@IPAVSocket@@U?$less@I@std@@V?$allocator@U?$pair@$$CBIPAVSocket@@@std@@@3@$0A@@std@@@std@@QAE?AU?$pair@Viterator@?$_Tree@V?$_Tmap_traits@IPAVSocket@@U?$less@I@std@@V?$allocator@U?$pair@$$CBIPAVSocket@@@std@@@3@$0A@@std@@@std@@_N@2@ABU?$pair@$$CBIPAVSocket@@@2@@Z 004227b0 f i sockets:SocketHandler.obj
 0001:00021990       ?erase@?$_Tree@V?$_Tmap_traits@IPAVSocket@@U?$less@I@std@@V?$allocator@U?$pair@$$CBIPAVSocket@@@std@@@3@$0A@@std@@@std@@QAE?AViterator@12@Vconst_iterator@12@0@Z 00422990 f i sockets:SocketHandler.obj
 0001:00021a70       ?_Init@?$_Tree@V?$_Tmap_traits@IPAVSocket@@U?$less@I@std@@V?$allocator@U?$pair@$$CBIPAVSocket@@@std@@@3@$0A@@std@@@std@@IAEXXZ 00422a70 f i sockets:SocketHandler.obj
 0001:00021ae0       ?_Insert@?$_Tree@V?$_Tmap_traits@IPAVSocket@@U?$less@I@std@@V?$allocator@U?$pair@$$CBIPAVSocket@@@std@@@3@$0A@@std@@@std@@IAE?AViterator@12@_NPAU_Node@?$_Tree_nod@V?$_Tmap_traits@IPAVSocket@@U?$less@I@std@@V?$allocator@U?$pair@$$CBIPAVSocket@@@std@@@3@$0A@@std@@@2@ABU?$pair@$$CBIPAVSocket@@@2@@Z 00422ae0 f i sockets:SocketHandler.obj
 0001:00021e90       ?_Lbound@?$_Tree@V?$_Tmap_traits@IPAVSocket@@U?$less@I@std@@V?$allocator@U?$pair@$$CBIPAVSocket@@@std@@@3@$0A@@std@@@std@@IBEPAU_Node@?$_Tree_nod@V?$_Tmap_traits@IPAVSocket@@U?$less@I@std@@V?$allocator@U?$pair@$$CBIPAVSocket@@@std@@@3@$0A@@std@@@2@ABI@Z 00422e90 f i sockets:SocketHandler.obj
 0001:00021f00       ?clear@?$list@PAVSocket@@V?$allocator@PAVSocket@@@std@@@std@@QAEXXZ 00422f00 f i sockets:SocketHandler.obj
 0001:00021f80       ?_Buynode@?$list@PAVSocket@@V?$allocator@PAVSocket@@@std@@@std@@IAEPAU_Node@?$_List_nod@PAVSocket@@V?$allocator@PAVSocket@@@std@@@2@PAU342@0ABQAVSocket@@@Z 00422f80 f i sockets:SocketHandler.obj
 0001:000220b0       ?_Incsize@?$list@PAVSocket@@V?$allocator@PAVSocket@@@std@@@std@@IAEXI@Z 004230b0 f i sockets:SocketHandler.obj
 0001:00022190       ?allocate@?$allocator@U_Node@?$_List_nod@PAVSocket@@V?$allocator@PAVSocket@@@std@@@std@@@std@@QAEPAU_Node@?$_List_nod@PAVSocket@@V?$allocator@PAVSocket@@@std@@@2@I@Z 00423190 f i sockets:SocketHandler.obj
 0001:000221b0       ?clear@?$list@IV?$allocator@I@std@@@std@@QAEXXZ 004231b0 f i sockets:SocketHandler.obj
 0001:00022230       ?_Buynode@?$list@IV?$allocator@I@std@@@std@@IAEPAU_Node@?$_List_nod@IV?$allocator@I@std@@@2@PAU342@0ABI@Z 00423230 f i sockets:SocketHandler.obj
 0001:00022360       ?_Incsize@?$list@IV?$allocator@I@std@@@std@@IAEXI@Z 00423360 f i sockets:SocketHandler.obj
 0001:00022440       ?allocate@?$allocator@U_Node@?$_List_nod@IV?$allocator@I@std@@@std@@@std@@QAEPAU_Node@?$_List_nod@IV?$allocator@I@std@@@2@I@Z 00423440 f i sockets:SocketHandler.obj
 0001:00022460       ?insert@?$_Tree@V?$_Tmap_traits@PAVSocket@@_NU?$less@PAVSocket@@@std@@V?$allocator@U?$pair@QAVSocket@@_N@std@@@3@$0A@@std@@@std@@QAE?AU?$pair@Viterator@?$_Tree@V?$_Tmap_traits@PAVSocket@@_NU?$less@PAVSocket@@@std@@V?$allocator@U?$pair@QAVSocket@@_N@std@@@3@$0A@@std@@@std@@_N@2@ABU?$pair@QAVSocket@@_N@2@@Z 00423460 f i sockets:SocketHandler.obj
 0001:00022640       ?erase@?$_Tree@V?$_Tmap_traits@PAVSocket@@_NU?$less@PAVSocket@@@std@@V?$allocator@U?$pair@QAVSocket@@_N@std@@@3@$0A@@std@@@std@@QAE?AViterator@12@Vconst_iterator@12@0@Z 00423640 f i sockets:SocketHandler.obj
 0001:00022720       ?_Init@?$_Tree@V?$_Tmap_traits@PAVSocket@@_NU?$less@PAVSocket@@@std@@V?$allocator@U?$pair@QAVSocket@@_N@std@@@3@$0A@@std@@@std@@IAEXXZ 00423720 f i sockets:SocketHandler.obj
 0001:00022790       ?_Insert@?$_Tree@V?$_Tmap_traits@PAVSocket@@_NU?$less@PAVSocket@@@std@@V?$allocator@U?$pair@QAVSocket@@_N@std@@@3@$0A@@std@@@std@@IAE?AViterator@12@_NPAU_Node@?$_Tree_nod@V?$_Tmap_traits@PAVSocket@@_NU?$less@PAVSocket@@@std@@V?$allocator@U?$pair@QAVSocket@@_N@std@@@3@$0A@@std@@@2@ABU?$pair@QAVSocket@@_N@2@@Z 00423790 f i sockets:SocketHandler.obj
 0001:00022b40       ?_Lbound@?$_Tree@V?$_Tmap_traits@PAVSocket@@_NU?$less@PAVSocket@@@std@@V?$allocator@U?$pair@QAVSocket@@_N@std@@@3@$0A@@std@@@std@@IBEPAU_Node@?$_Tree_nod@V?$_Tmap_traits@PAVSocket@@_NU?$less@PAVSocket@@@std@@V?$allocator@U?$pair@QAVSocket@@_N@std@@@3@$0A@@std@@@2@ABQAVSocket@@@Z 00423b40 f i sockets:SocketHandler.obj
 0001:00022bb0       ?_Inc@const_iterator@?$_Tree@V?$_Tmap_traits@IPAVSocket@@U?$less@I@std@@V?$allocator@U?$pair@$$CBIPAVSocket@@@std@@@3@$0A@@std@@@std@@QAEXXZ 00423bb0 f i sockets:SocketHandler.obj
 0001:00022c50       ?_Inc@const_iterator@?$_Tree@V?$_Tmap_traits@PAVSocket@@_NU?$less@PAVSocket@@@std@@V?$allocator@U?$pair@QAVSocket@@_N@std@@@3@$0A@@std@@@std@@QAEXXZ 00423c50 f i sockets:SocketHandler.obj
 0001:00022cf0       ?clear@?$_Tree@V?$_Tmap_traits@IPAVSocket@@U?$less@I@std@@V?$allocator@U?$pair@$$CBIPAVSocket@@@std@@@3@$0A@@std@@@std@@QAEXXZ 00423cf0 f i sockets:SocketHandler.obj
 0001:00022d50       ?_Buynode@?$_Tree@V?$_Tmap_traits@IPAVSocket@@U?$less@I@std@@V?$allocator@U?$pair@$$CBIPAVSocket@@@std@@@3@$0A@@std@@@std@@IAEPAU_Node@?$_Tree_nod@V?$_Tmap_traits@IPAVSocket@@U?$less@I@std@@V?$allocator@U?$pair@$$CBIPAVSocket@@@std@@@3@$0A@@std@@@2@XZ 00423d50 f i sockets:SocketHandler.obj
 0001:00022ea0       ?_Buynode@?$_Tree@V?$_Tmap_traits@IPAVSocket@@U?$less@I@std@@V?$allocator@U?$pair@$$CBIPAVSocket@@@std@@@3@$0A@@std@@@std@@IAEPAU_Node@?$_Tree_nod@V?$_Tmap_traits@IPAVSocket@@U?$less@I@std@@V?$allocator@U?$pair@$$CBIPAVSocket@@@std@@@3@$0A@@std@@@2@PAU342@00ABU?$pair@$$CBIPAVSocket@@@2@D@Z 00423ea0 f i sockets:SocketHandler.obj
 0001:00022f90       ??0?$_List_nod@IV?$allocator@I@std@@@std@@IAE@V?$allocator@I@1@@Z 00423f90 f i sockets:SocketHandler.obj
 0001:00022fb0       ?clear@?$_Tree@V?$_Tmap_traits@PAVSocket@@_NU?$less@PAVSocket@@@std@@V?$allocator@U?$pair@QAVSocket@@_N@std@@@3@$0A@@std@@@std@@QAEXXZ 00423fb0 f i sockets:SocketHandler.obj
 0001:00023010       ?_Buynode@?$_Tree@V?$_Tmap_traits@PAVSocket@@_NU?$less@PAVSocket@@@std@@V?$allocator@U?$pair@QAVSocket@@_N@std@@@3@$0A@@std@@@std@@IAEPAU_Node@?$_Tree_nod@V?$_Tmap_traits@PAVSocket@@_NU?$less@PAVSocket@@@std@@V?$allocator@U?$pair@QAVSocket@@_N@std@@@3@$0A@@std@@@2@XZ 00424010 f i sockets:SocketHandler.obj
 0001:00023160       ?_Buynode@?$_Tree@V?$_Tmap_traits@PAVSocket@@_NU?$less@PAVSocket@@@std@@V?$allocator@U?$pair@QAVSocket@@_N@std@@@3@$0A@@std@@@std@@IAEPAU_Node@?$_Tree_nod@V?$_Tmap_traits@PAVSocket@@_NU?$less@PAVSocket@@@std@@V?$allocator@U?$pair@QAVSocket@@_N@std@@@3@$0A@@std@@@2@PAU342@00ABU?$pair@QAVSocket@@_N@2@D@Z 00424160 f i sockets:SocketHandler.obj
 0001:00023250       ?_Dec@const_iterator@?$_Tree@V?$_Tmap_traits@IPAVSocket@@U?$less@I@std@@V?$allocator@U?$pair@$$CBIPAVSocket@@@std@@@3@$0A@@std@@@std@@QAEXXZ 00424250 f i sockets:SocketHandler.obj
 0001:00023320       ?_Dec@const_iterator@?$_Tree@V?$_Tmap_traits@PAVSocket@@_NU?$less@PAVSocket@@@std@@V?$allocator@U?$pair@QAVSocket@@_N@std@@@3@$0A@@std@@@std@@QAEXXZ 00424320 f i sockets:SocketHandler.obj
 0001:000233f0       ?_Erase@?$_Tree@V?$_Tmap_traits@IPAVSocket@@U?$less@I@std@@V?$allocator@U?$pair@$$CBIPAVSocket@@@std@@@3@$0A@@std@@@std@@IAEXPAU_Node@?$_Tree_nod@V?$_Tmap_traits@IPAVSocket@@U?$less@I@std@@V?$allocator@U?$pair@$$CBIPAVSocket@@@std@@@3@$0A@@std@@@2@@Z 004243f0 f i sockets:SocketHandler.obj
 0001:00023440       ?allocate@?$allocator@U_Node@?$_Tree_nod@V?$_Tmap_traits@IPAVSocket@@U?$less@I@std@@V?$allocator@U?$pair@$$CBIPAVSocket@@@std@@@3@$0A@@std@@@std@@@std@@QAEPAU_Node@?$_Tree_nod@V?$_Tmap_traits@IPAVSocket@@U?$less@I@std@@V?$allocator@U?$pair@$$CBIPAVSocket@@@std@@@3@$0A@@std@@@2@I@Z 00424440 f i sockets:SocketHandler.obj
 0001:00023460       ?_Erase@?$_Tree@V?$_Tmap_traits@PAVSocket@@_NU?$less@PAVSocket@@@std@@V?$allocator@U?$pair@QAVSocket@@_N@std@@@3@$0A@@std@@@std@@IAEXPAU_Node@?$_Tree_nod@V?$_Tmap_traits@PAVSocket@@_NU?$less@PAVSocket@@@std@@V?$allocator@U?$pair@QAVSocket@@_N@std@@@3@$0A@@std@@@2@@Z 00424460 f i sockets:SocketHandler.obj
 0001:000234b0       ?allocate@?$allocator@U_Node@?$_Tree_nod@V?$_Tmap_traits@PAVSocket@@_NU?$less@PAVSocket@@@std@@V?$allocator@U?$pair@QAVSocket@@_N@std@@@3@$0A@@std@@@std@@@std@@QAEPAU_Node@?$_Tree_nod@V?$_Tmap_traits@PAVSocket@@_NU?$less@PAVSocket@@@std@@V?$allocator@U?$pair@QAVSocket@@_N@std@@@3@$0A@@std@@@2@I@Z 004244b0 f i sockets:SocketHandler.obj
 0001:000234d0       ??0?$_Tmap_traits@IPAVSocket@@U?$less@I@std@@V?$allocator@U?$pair@$$CBIPAVSocket@@@std@@@3@$0A@@std@@QAE@U?$less@I@1@V?$allocator@U?$pair@$$CBIPAVSocket@@@std@@@1@@Z 004244d0 f i sockets:SocketHandler.obj
 0001:000234f0       ??0?$_Tmap_traits@PAVSocket@@_NU?$less@PAVSocket@@@std@@V?$allocator@U?$pair@QAVSocket@@_N@std@@@3@$0A@@std@@QAE@U?$less@PAVSocket@@@1@V?$allocator@U?$pair@QAVSocket@@_N@std@@@1@@Z 004244f0 f i sockets:SocketHandler.obj
 0001:00023510       ??$_Allocate@U_Node@?$_List_nod@PAVSocket@@V?$allocator@PAVSocket@@@std@@@std@@@std@@YAPAU_Node@?$_List_nod@PAVSocket@@V?$allocator@PAVSocket@@@std@@@0@IPAU120@@Z 00424510 f i sockets:SocketHandler.obj
 0001:00023570       ??$_Allocate@U_Node@?$_List_nod@IV?$allocator@I@std@@@std@@@std@@YAPAU_Node@?$_List_nod@IV?$allocator@I@std@@@0@IPAU120@@Z 00424570 f i sockets:SocketHandler.obj
 0001:000235d0       ??$_Allocate@U_Node@?$_Tree_nod@V?$_Tmap_traits@IPAVSocket@@U?$less@I@std@@V?$allocator@U?$pair@$$CBIPAVSocket@@@std@@@3@$0A@@std@@@std@@@std@@YAPAU_Node@?$_Tree_nod@V?$_Tmap_traits@IPAVSocket@@U?$less@I@std@@V?$allocator@U?$pair@$$CBIPAVSocket@@@std@@@3@$0A@@std@@@0@IPAU120@@Z 004245d0 f i sockets:SocketHandler.obj
 0001:00023630       ??$_Allocate@U_Node@?$_Tree_nod@V?$_Tmap_traits@PAVSocket@@_NU?$less@PAVSocket@@@std@@V?$allocator@U?$pair@QAVSocket@@_N@std@@@3@$0A@@std@@@std@@@std@@YAPAU_Node@?$_Tree_nod@V?$_Tmap_traits@PAVSocket@@_NU?$less@PAVSocket@@@std@@V?$allocator@U?$pair@QAVSocket@@_N@std@@@3@$0A@@std@@@0@IPAU120@@Z 00424630 f i sockets:SocketHandler.obj
 0001:00023690       ??$_Insert@V?$_Const_iterator@$0A@@?$list@IV?$allocator@I@std@@@std@@@?$list@IV?$allocator@I@std@@@std@@QAEXV?$_Const_iterator@$0A@@01@00Uforward_iterator_tag@1@@Z 00424690 f i sockets:SocketHandler.obj
 0001:00023790       ??0Ipv4Address@@QAE@G@Z    00424790 f   sockets:Ipv4Address.obj
 0001:000237f0       ??_GSocketAddress@@UAEPAXI@Z 004247f0 f i sockets:Ipv4Address.obj
 0001:000237f0       ??_ESocketAddress@@UAEPAXI@Z 004247f0 f i sockets:Ipv4Address.obj
 0001:00023820       ??_GIpv4Address@@UAEPAXI@Z 00424820 f i sockets:Ipv4Address.obj
 0001:00023820       ??_EIpv4Address@@UAEPAXI@Z 00424820 f i sockets:Ipv4Address.obj
 0001:00023850       ??0Ipv4Address@@QAE@KG@Z   00424850 f   sockets:Ipv4Address.obj
 0001:000238c0       ??0Ipv4Address@@QAE@AAUin_addr@@G@Z 004248c0 f   sockets:Ipv4Address.obj
 0001:00023930       ??0Ipv4Address@@QAE@ABV?$basic_string@DU?$char_traits@D@std@@V?$allocator@D@2@@std@@G@Z 00424930 f   sockets:Ipv4Address.obj
 0001:00023a00       ??1SocketAddress@@UAE@XZ   00424a00 f i sockets:Ipv4Address.obj
 0001:00023a20       ??0Ipv4Address@@QAE@AAUsockaddr_in@@@Z 00424a20 f   sockets:Ipv4Address.obj
 0001:00023a80       ??1Ipv4Address@@UAE@XZ     00424a80 f   sockets:Ipv4Address.obj
 0001:00023aa0       ??BIpv4Address@@UAEPAUsockaddr@@XZ 00424aa0 f   sockets:Ipv4Address.obj
 0001:00023ac0       ??BIpv4Address@@UAEHXZ     00424ac0 f   sockets:Ipv4Address.obj
 0001:00023ad0       ?SetPort@Ipv4Address@@UAEXG@Z 00424ad0 f   sockets:Ipv4Address.obj
 0001:00023af0       ?GetPort@Ipv4Address@@UAEGXZ 00424af0 f   sockets:Ipv4Address.obj
 0001:00023b10       ?Resolve@Ipv4Address@@SA_NABV?$basic_string@DU?$char_traits@D@std@@V?$allocator@D@2@@std@@AAUin_addr@@@Z 00424b10 f   sockets:Ipv4Address.obj
 0001:00023bb0       ?Reverse@Ipv4Address@@SA_NAAUin_addr@@AAV?$basic_string@DU?$char_traits@D@std@@V?$allocator@D@2@@std@@@Z 00424bb0 f   sockets:Ipv4Address.obj
 0001:00023c10       ?Convert@Ipv4Address@@UAE?AV?$basic_string@DU?$char_traits@D@std@@V?$allocator@D@2@@std@@_N@Z 00424c10 f   sockets:Ipv4Address.obj
 0001:00023d40       ?Convert@Ipv4Address@@SA?AV?$basic_string@DU?$char_traits@D@std@@V?$allocator@D@2@@std@@AAUin_addr@@@Z 00424d40 f   sockets:Ipv4Address.obj
 0001:00023e00       ?SetAddress@Ipv4Address@@UAEXPAUsockaddr@@@Z 00424e00 f   sockets:Ipv4Address.obj
 0001:00023e30       ?GetFamily@Ipv4Address@@UAEHXZ 00424e30 f   sockets:Ipv4Address.obj
 0001:00023e50       ?IsValid@Ipv4Address@@UAE_NXZ 00424e50 f   sockets:Ipv4Address.obj
 0001:00023e70       ??8Ipv4Address@@UAE_NAAVSocketAddress@@@Z 00424e70 f   sockets:Ipv4Address.obj
 0001:00023f10       ?GetCopy@Ipv4Address@@UAE?AV?$auto_ptr@VSocketAddress@@@std@@XZ 00424f10 f   sockets:Ipv4Address.obj
 0001:00024020       ?Reverse@Ipv4Address@@UAE?AV?$basic_string@DU?$char_traits@D@std@@V?$allocator@D@2@@std@@XZ 00425020 f   sockets:Ipv4Address.obj
 0001:000240c0       ?StrError@@YAPBDH@Z        004250c0 f   sockets:socket_include.obj
 0001:000243e0       ?base64@Utility@@SA?AV?$basic_string@DU?$char_traits@D@std@@V?$allocator@D@2@@std@@ABV23@@Z 004253e0 f   sockets:Utility.obj
 0001:00024480       ?base64d@Utility@@SA?AV?$basic_string@DU?$char_traits@D@std@@V?$allocator@D@2@@std@@ABV23@@Z 00425480 f   sockets:Utility.obj
 0001:00024520       ?l2string@Utility@@SA?AV?$basic_string@DU?$char_traits@D@std@@V?$allocator@D@2@@std@@J@Z 00425520 f   sockets:Utility.obj
 0001:000245e0       ?bigint2string@Utility@@SA?AV?$basic_string@DU?$char_traits@D@std@@V?$allocator@D@2@@std@@_K@Z 004255e0 f   sockets:Utility.obj
 0001:00024710       ?atoi64@Utility@@SA_KABV?$basic_string@DU?$char_traits@D@std@@V?$allocator@D@2@@std@@@Z 00425710 f   sockets:Utility.obj
 0001:000247a0       ?hex2unsigned@Utility@@SAIABV?$basic_string@DU?$char_traits@D@std@@V?$allocator@D@2@@std@@@Z 004257a0 f   sockets:Utility.obj
 0001:00024870       ?rfc1738_encode@Utility@@SA?AV?$basic_string@DU?$char_traits@D@std@@V?$allocator@D@2@@std@@ABV23@@Z 00425870 f   sockets:Utility.obj
 0001:00024a20       ?rfc1738_decode@Utility@@SA?AV?$basic_string@DU?$char_traits@D@std@@V?$allocator@D@2@@std@@ABV23@@Z 00425a20 f   sockets:Utility.obj
 0001:00024cc0       ?isipv4@Utility@@SA_NABV?$basic_string@DU?$char_traits@D@std@@V?$allocator@D@2@@std@@@Z 00425cc0 f   sockets:Utility.obj
 0001:00024d60       ?isipv6@Utility@@SA_NABV?$basic_string@DU?$char_traits@D@std@@V?$allocator@D@2@@std@@@Z 00425d60 f   sockets:Utility.obj
 0001:00025190       ?u2ip@Utility@@SA_NABV?$basic_string@DU?$char_traits@D@std@@V?$allocator@D@2@@std@@AAK@Z 00426190 f   sockets:Utility.obj
 0001:000251e0       ?l2ip@Utility@@SAXKAAV?$basic_string@DU?$char_traits@D@std@@V?$allocator@D@2@@std@@@Z 004261e0 f   sockets:Utility.obj
 0001:00025240       ?l2ip@Utility@@SAXABUin_addr@@AAV?$basic_string@DU?$char_traits@D@std@@V?$allocator@D@2@@std@@@Z 00426240 f   sockets:Utility.obj
 0001:000252a0       ?ResolveLocal@Utility@@SAXXZ 004262a0 f   sockets:Utility.obj
 0001:00025380       ?GetLocalHostname@Utility@@SAABV?$basic_string@DU?$char_traits@D@std@@V?$allocator@D@2@@std@@XZ 00426380 f   sockets:Utility.obj
 0001:000253a0       ?GetLocalIP@Utility@@SAKXZ 004263a0 f   sockets:Utility.obj
 0001:000253c0       ?GetLocalAddress@Utility@@SAABV?$basic_string@DU?$char_traits@D@std@@V?$allocator@D@2@@std@@XZ 004263c0 f   sockets:Utility.obj
 0001:000253e0       ?SetEnv@Utility@@SAXABV?$basic_string@DU?$char_traits@D@std@@V?$allocator@D@2@@std@@0@Z 004263e0 f   sockets:Utility.obj
 0001:00025490       ?Sa2String@Utility@@SA?AV?$basic_string@DU?$char_traits@D@std@@V?$allocator@D@2@@std@@PAUsockaddr@@@Z 00426490 f   sockets:Utility.obj
 0001:000255e0       ?GetTime@Utility@@SAXPAUtimeval@@@Z 004265e0 f   sockets:Utility.obj
 0001:00025640       ?CreateAddress@Utility@@SA?AV?$auto_ptr@VSocketAddress@@@std@@PAUsockaddr@@H@Z 00426640 f   sockets:Utility.obj
 0001:00025800       ?u2ip@Utility@@SA_NABV?$basic_string@DU?$char_traits@D@std@@V?$allocator@D@2@@std@@AAUsockaddr_in@@H@Z 00426800 f   sockets:Utility.obj
 0001:00025980       ?reverse@Utility@@SA_NPAUsockaddr@@HAAV?$basic_string@DU?$char_traits@D@std@@V?$allocator@D@2@@std@@H@Z 00426980 f   sockets:Utility.obj
 0001:00025a10       ?reverse@Utility@@SA_NPAUsockaddr@@HAAV?$basic_string@DU?$char_traits@D@std@@V?$allocator@D@2@@std@@1H@Z 00426a10 f   sockets:Utility.obj
 0001:00025b00       ?u2service@Utility@@SA_NABV?$basic_string@DU?$char_traits@D@std@@V?$allocator@D@2@@std@@AAHH@Z 00426b00 f   sockets:Utility.obj
 0001:00025b10       ?ThreadID@Utility@@SAKXZ   00426b10 f   sockets:Utility.obj
 0001:00025b20       ?ToLower@Utility@@SA?AV?$basic_string@DU?$char_traits@D@std@@V?$allocator@D@2@@std@@ABV23@@Z 00426b20 f   sockets:Utility.obj
 0001:00025c80       ?ToUpper@Utility@@SA?AV?$basic_string@DU?$char_traits@D@std@@V?$allocator@D@2@@std@@ABV23@@Z 00426c80 f   sockets:Utility.obj
 0001:00025de0       ?ToString@Utility@@SA?AV?$basic_string@DU?$char_traits@D@std@@V?$allocator@D@2@@std@@N@Z 00426de0 f   sockets:Utility.obj
 0001:00025e40       ?Rnd@Utility@@SAKXZ        00426e40 f   sockets:Utility.obj
 0001:00025ec0       ??0Rng@Utility@@QAE@K@Z    00426ec0 f   sockets:Utility.obj
 0001:00025f30       ?Get@Rng@Utility@@QAEKXZ   00426f30 f   sockets:Utility.obj
 0001:00026090       ??0Thread@@QAE@_N@Z        00427090 f   sockets:Thread.obj
 0001:00026100       ??_GThread@@UAEPAXI@Z      00427100 f i sockets:Thread.obj
 0001:00026100       ??_EThread@@UAEPAXI@Z      00427100 f i sockets:Thread.obj
 0001:00026130       ??1Thread@@UAE@XZ          00427130 f   sockets:Thread.obj
 0001:00026190       ?StartThread@Thread@@SGIPAX@Z 00427190 f   sockets:Thread.obj
 0001:00026240       ?IsRunning@Thread@@QAE_NXZ 00427240 f   sockets:Thread.obj
 0001:00026260       ?SetRunning@Thread@@QAEX_N@Z 00427260 f   sockets:Thread.obj
 0001:00026280       ?IsReleased@Thread@@QAE_NXZ 00427280 f   sockets:Thread.obj
 0001:000262a0       ?SetRelease@Thread@@QAEX_N@Z 004272a0 f   sockets:Thread.obj
 0001:000262c0       ?DeleteOnExit@Thread@@QAE_NXZ 004272c0 f   sockets:Thread.obj
 0001:000262e0       ?SetDeleteOnExit@Thread@@QAEX_N@Z 004272e0 f   sockets:Thread.obj
 0001:00026300       ?IsDestructor@Thread@@QAE_NXZ 00427300 f   sockets:Thread.obj
 0001:00026320       ??0Mutex@@QAE@XZ           00427320 f   sockets:Mutex.obj
 0001:00026340       ??1Mutex@@QAE@XZ           00427340 f   sockets:Mutex.obj
 0001:00026360       ?Lock@Mutex@@QAEXXZ        00427360 f   sockets:Mutex.obj
 0001:00026380       ?Unlock@Mutex@@QAEXXZ      00427380 f   sockets:Mutex.obj
 0001:000263a0       ??0ResolvServer@@QAE@G@Z   004273a0 f   sockets:ResolvServer.obj
 0001:000263e0       ??_EResolvServer@@UAEPAXI@Z 004273e0 f i sockets:ResolvServer.obj
 0001:000263e0       ??_GResolvServer@@UAEPAXI@Z 004273e0 f i sockets:ResolvServer.obj
 0001:00026410       ??1ResolvServer@@UAE@XZ    00427410 f   sockets:ResolvServer.obj
 0001:00026430       ?Run@ResolvServer@@UAEXXZ  00427430 f   sockets:ResolvServer.obj
 0001:000265b0       ?Quit@ResolvServer@@QAEXXZ 004275b0 f   sockets:ResolvServer.obj
 0001:000265d0       ?Ready@ResolvServer@@QAE_NXZ 004275d0 f   sockets:ResolvServer.obj
 0001:000265f0       ??0?$ListenSocket@VResolvSocket@@@@QAE@AAVISocketHandler@@_N@Z 004275f0 f i sockets:ResolvServer.obj
 0001:00026750       ??1?$ListenSocket@VResolvSocket@@@@UAE@XZ 00427750 f i sockets:ResolvServer.obj
 0001:000267f0       ?Close@?$ListenSocket@VResolvSocket@@@@UAEHXZ 004277f0 f i sockets:ResolvServer.obj
 0001:00026820       ?Bind@?$ListenSocket@VResolvSocket@@@@QAEHABV?$basic_string@DU?$char_traits@D@std@@V?$allocator@D@2@@std@@GH@Z 00427820 f i sockets:ResolvServer.obj
 0001:00026980       ?GetPort@?$ListenSocket@VResolvSocket@@@@UAEGXZ 00427980 f i sockets:ResolvServer.obj
 0001:000269a0       ?OnRead@?$ListenSocket@VResolvSocket@@@@UAEXXZ 004279a0 f i sockets:ResolvServer.obj
 0001:00026df0       ?Accept@?$ListenSocket@VResolvSocket@@@@UAEIIPAUsockaddr@@PAH@Z 00427df0 f i sockets:ResolvServer.obj
 0001:00026e10       ?OnOptions@?$ListenSocket@VResolvSocket@@@@UAEXHHHI@Z 00427e10 f i sockets:ResolvServer.obj
 0001:00026e30       ??_G?$ListenSocket@VResolvSocket@@@@UAEPAXI@Z 00427e30 f i sockets:ResolvServer.obj
 0001:00026e30       ??_E?$ListenSocket@VResolvSocket@@@@UAEPAXI@Z 00427e30 f i sockets:ResolvServer.obj
 0001:00026e60       ?Bind@?$ListenSocket@VResolvSocket@@@@QAEHAAVSocketAddress@@ABV?$basic_string@DU?$char_traits@D@std@@V?$allocator@D@2@@std@@H@Z 00427e60 f i sockets:ResolvServer.obj
 0001:00027070       ??0ResolvSocket@@QAE@AAVISocketHandler@@@Z 00428070 f   sockets:ResolvSocket.obj
 0001:00027140       ?OnAccept@ResolvSocket@@UAEXXZ 00428140 f i sockets:ResolvSocket.obj
 0001:00027160       ??_EResolvSocket@@UAEPAXI@Z 00428160 f i sockets:ResolvSocket.obj
 0001:00027160       ??_GResolvSocket@@UAEPAXI@Z 00428160 f i sockets:ResolvSocket.obj
 0001:00027190       ??0ResolvSocket@@QAE@AAVISocketHandler@@PAVSocket@@ABV?$basic_string@DU?$char_traits@D@std@@V?$allocator@D@2@@std@@G_N@Z 00428190 f   sockets:ResolvSocket.obj
 0001:00027270       ??0ResolvSocket@@QAE@AAVISocketHandler@@PAVSocket@@K@Z 00428270 f   sockets:ResolvSocket.obj
 0001:00027350       ??1ResolvSocket@@UAE@XZ    00428350 f   sockets:ResolvSocket.obj
 0001:000273e0       ?OnLine@ResolvSocket@@UAEXABV?$basic_string@DU?$char_traits@D@std@@V?$allocator@D@2@@std@@@Z 004283e0 f   sockets:ResolvSocket.obj
 0001:00027f80       ?OnDetached@ResolvSocket@@UAEXXZ 00428f80 f   sockets:ResolvSocket.obj
 0001:00028530       ?OnConnect@ResolvSocket@@UAEXXZ 00429530 f   sockets:ResolvSocket.obj
 0001:00028740       ?OnDelete@ResolvSocket@@UAEXXZ 00429740 f   sockets:ResolvSocket.obj
 0001:00028930       ??A?$map@V?$basic_string@DU?$char_traits@D@std@@V?$allocator@D@2@@std@@V?$map@V?$basic_string@DU?$char_traits@D@std@@V?$allocator@D@2@@std@@V12@U?$less@V?$basic_string@DU?$char_traits@D@std@@V?$allocator@D@2@@std@@@2@V?$allocator@U?$pair@$$CBV?$basic_string@DU?$char_traits@D@std@@V?$allocator@D@2@@std@@V12@@std@@@2@@2@U?$less@V?$basic_string@DU?$char_traits@D@std@@V?$allocator@D@2@@std@@@2@V?$allocator@U?$pair@$$CBV?$basic_string@DU?$char_traits@D@std@@V?$allocator@D@2@@std@@V?$map@V?$basic_string@DU?$char_traits@D@std@@V?$allocator@D@2@@std@@V12@U?$less@V?$basic_string@DU?$char_traits@D@std@@V?$allocator@D@2@@std@@@2@V?$allocator@U?$pair@$$CBV?$basic_string@DU?$char_traits@D@std@@V?$allocator@D@2@@std@@V12@@std@@@2@@2@@std@@@2@@std@@QAEAAV?$map@V?$basic_string@DU?$char_traits@D@std@@V?$allocator@D@2@@std@@V12@U?$less@V?$basic_string@DU?$char_traits@D@std@@V?$allocator@D@2@@std@@@2@V?$allocator@U?$pair@$$CBV?$basic_string@DU?$char_traits@D@std@@V?$allocator@D@2@@std@@V12@@std@@@2@@1@ABV?$basic_string@DU?$char_traits@D@std@@V?$allocator@D@2@@1@@Z 00429930 f i sockets:ResolvSocket.obj
 0001:00028aa0       ??A?$map@V?$basic_string@DU?$char_traits@D@std@@V?$allocator@D@2@@std@@V?$map@V?$basic_string@DU?$char_traits@D@std@@V?$allocator@D@2@@std@@_JU?$less@V?$basic_string@DU?$char_traits@D@std@@V?$allocator@D@2@@std@@@2@V?$allocator@U?$pair@$$CBV?$basic_string@DU?$char_traits@D@std@@V?$allocator@D@2@@std@@_J@std@@@2@@2@U?$less@V?$basic_string@DU?$char_traits@D@std@@V?$allocator@D@2@@std@@@2@V?$allocator@U?$pair@$$CBV?$basic_string@DU?$char_traits@D@std@@V?$allocator@D@2@@std@@V?$map@V?$basic_string@DU?$char_traits@D@std@@V?$allocator@D@2@@std@@_JU?$less@V?$basic_string@DU?$char_traits@D@std@@V?$allocator@D@2@@std@@@2@V?$allocator@U?$pair@$$CBV?$basic_string@DU?$char_traits@D@std@@V?$allocator@D@2@@std@@_J@std@@@2@@2@@std@@@2@@std@@QAEAAV?$map@V?$basic_string@DU?$char_traits@D@std@@V?$allocator@D@2@@std@@_JU?$less@V?$basic_string@DU?$char_traits@D@std@@V?$allocator@D@2@@std@@@2@V?$allocator@U?$pair@$$CBV?$basic_string@DU?$char_traits@D@std@@V?$allocator@D@2@@std@@_J@std@@@2@@1@ABV?$basic_string@DU?$char_traits@D@std@@V?$allocator@D@2@@1@@Z 00429aa0 f i sockets:ResolvSocket.obj
 0001:00028c10       ??A?$map@V?$basic_string@DU?$char_traits@D@std@@V?$allocator@D@2@@std@@V12@U?$less@V?$basic_string@DU?$char_traits@D@std@@V?$allocator@D@2@@std@@@2@V?$allocator@U?$pair@$$CBV?$basic_string@DU?$char_traits@D@std@@V?$allocator@D@2@@std@@V12@@std@@@2@@std@@QAEAAV?$basic_string@DU?$char_traits@D@std@@V?$allocator@D@2@@1@ABV21@@Z 00429c10 f i sockets:ResolvSocket.obj
 0001:00028d60       ?find@?$_Tree@V?$_Tmap_traits@V?$basic_string@DU?$char_traits@D@std@@V?$allocator@D@2@@std@@V12@U?$less@V?$basic_string@DU?$char_traits@D@std@@V?$allocator@D@2@@std@@@2@V?$allocator@U?$pair@$$CBV?$basic_string@DU?$char_traits@D@std@@V?$allocator@D@2@@std@@V12@@std@@@2@$0A@@std@@@std@@QAE?AViterator@12@ABV?$basic_string@DU?$char_traits@D@std@@V?$allocator@D@2@@2@@Z 00429d60 f i sockets:ResolvSocket.obj
 0001:00028e00       ??A?$map@V?$basic_string@DU?$char_traits@D@std@@V?$allocator@D@2@@std@@_JU?$less@V?$basic_string@DU?$char_traits@D@std@@V?$allocator@D@2@@std@@@2@V?$allocator@U?$pair@$$CBV?$basic_string@DU?$char_traits@D@std@@V?$allocator@D@2@@std@@_J@std@@@2@@std@@QAEAA_JABV?$basic_string@DU?$char_traits@D@std@@V?$allocator@D@2@@1@@Z 00429e00 f i sockets:ResolvSocket.obj
 0001:00028f00       ??1?$map@V?$basic_string@DU?$char_traits@D@std@@V?$allocator@D@2@@std@@V12@U?$less@V?$basic_string@DU?$char_traits@D@std@@V?$allocator@D@2@@std@@@2@V?$allocator@U?$pair@$$CBV?$basic_string@DU?$char_traits@D@std@@V?$allocator@D@2@@std@@V12@@std@@@2@@std@@QAE@XZ 00429f00 f i sockets:ResolvSocket.obj
 0001:00028f50       ??1?$pair@$$CBV?$basic_string@DU?$char_traits@D@std@@V?$allocator@D@2@@std@@V?$map@V?$basic_string@DU?$char_traits@D@std@@V?$allocator@D@2@@std@@V12@U?$less@V?$basic_string@DU?$char_traits@D@std@@V?$allocator@D@2@@std@@@2@V?$allocator@U?$pair@$$CBV?$basic_string@DU?$char_traits@D@std@@V?$allocator@D@2@@std@@V12@@std@@@2@@2@@std@@QAE@XZ 00429f50 f i sockets:ResolvSocket.obj
 0001:00028fc0       ??1?$map@V?$basic_string@DU?$char_traits@D@std@@V?$allocator@D@2@@std@@_JU?$less@V?$basic_string@DU?$char_traits@D@std@@V?$allocator@D@2@@std@@@2@V?$allocator@U?$pair@$$CBV?$basic_string@DU?$char_traits@D@std@@V?$allocator@D@2@@std@@_J@std@@@2@@std@@QAE@XZ 00429fc0 f i sockets:ResolvSocket.obj
 0001:00029010       ??1?$pair@$$CBV?$basic_string@DU?$char_traits@D@std@@V?$allocator@D@2@@std@@V?$map@V?$basic_string@DU?$char_traits@D@std@@V?$allocator@D@2@@std@@_JU?$less@V?$basic_string@DU?$char_traits@D@std@@V?$allocator@D@2@@std@@@2@V?$allocator@U?$pair@$$CBV?$basic_string@DU?$char_traits@D@std@@V?$allocator@D@2@@std@@_J@std@@@2@@2@@std@@QAE@XZ 0042a010 f i sockets:ResolvSocket.obj
 0001:00029080       ??1?$pair@$$CBV?$basic_string@DU?$char_traits@D@std@@V?$allocator@D@2@@std@@V12@@std@@QAE@XZ 0042a080 f i sockets:ResolvSocket.obj
 0001:000290e0       ??1?$pair@$$CBV?$basic_string@DU?$char_traits@D@std@@V?$allocator@D@2@@std@@_J@std@@QAE@XZ 0042a0e0 f i sockets:ResolvSocket.obj
 0001:00029100       ?insert@?$_Tree@V?$_Tmap_traits@V?$basic_string@DU?$char_traits@D@std@@V?$allocator@D@2@@std@@V?$map@V?$basic_string@DU?$char_traits@D@std@@V?$allocator@D@2@@std@@V12@U?$less@V?$basic_string@DU?$char_traits@D@std@@V?$allocator@D@2@@std@@@2@V?$allocator@U?$pair@$$CBV?$basic_string@DU?$char_traits@D@std@@V?$allocator@D@2@@std@@V12@@std@@@2@@2@U?$less@V?$basic_string@DU?$char_traits@D@std@@V?$allocator@D@2@@std@@@2@V?$allocator@U?$pair@$$CBV?$basic_string@DU?$char_traits@D@std@@V?$allocator@D@2@@std@@V?$map@V?$basic_string@DU?$char_traits@D@std@@V?$allocator@D@2@@std@@V12@U?$less@V?$basic_string@DU?$char_traits@D@std@@V?$allocator@D@2@@std@@@2@V?$allocator@U?$pair@$$CBV?$basic_string@DU?$char_traits@D@std@@V?$allocator@D@2@@std@@V12@@std@@@2@@2@@std@@@2@$0A@@std@@@std@@QAE?AViterator@12@Vconst_iterator@12@ABU?$pair@$$CBV?$basic_string@DU?$char_traits@D@std@@V?$allocator@D@2@@std@@V?$map@V?$basic_string@DU?$char_traits@D@std@@V?$allocator@D@2@@std@@V12@U?$less@V?$basic_string@DU?$char_traits@D@std@@V?$allocator@D@2@@std@@@2@V?$allocator@U?$pair@$$CBV?$basic_string@DU?$char_traits@D@std@@V?$allocator@D@2@@std@@V12@@std@@@2@@2@@2@@Z 0042a100 f i sockets:ResolvSocket.obj
 0001:00029700       ?insert@?$_Tree@V?$_Tmap_traits@V?$basic_string@DU?$char_traits@D@std@@V?$allocator@D@2@@std@@V?$map@V?$basic_string@DU?$char_traits@D@std@@V?$allocator@D@2@@std@@_JU?$less@V?$basic_string@DU?$char_traits@D@std@@V?$allocator@D@2@@std@@@2@V?$allocator@U?$pair@$$CBV?$basic_string@DU?$char_traits@D@std@@V?$allocator@D@2@@std@@_J@std@@@2@@2@U?$less@V?$basic_string@DU?$char_traits@D@std@@V?$allocator@D@2@@std@@@2@V?$allocator@U?$pair@$$CBV?$basic_string@DU?$char_traits@D@std@@V?$allocator@D@2@@std@@V?$map@V?$basic_string@DU?$char_traits@D@std@@V?$allocator@D@2@@std@@_JU?$less@V?$basic_string@DU?$char_traits@D@std@@V?$allocator@D@2@@std@@@2@V?$allocator@U?$pair@$$CBV?$basic_string@DU?$char_traits@D@std@@V?$allocator@D@2@@std@@_J@std@@@2@@2@@std@@@2@$0A@@std@@@std@@QAE?AViterator@12@Vconst_iterator@12@ABU?$pair@$$CBV?$basic_string@DU?$char_traits@D@std@@V?$allocator@D@2@@std@@V?$map@V?$basic_string@DU?$char_traits@D@std@@V?$allocator@D@2@@std@@_JU?$less@V?$basic_string@DU?$char_traits@D@std@@V?$allocator@D@2@@std@@@2@V?$allocator@U?$pair@$$CBV?$basic_string@DU?$char_traits@D@std@@V?$allocator@D@2@@std@@_J@std@@@2@@2@@2@@Z 0042a700 f i sockets:ResolvSocket.obj
 0001:00029d00       ??0?$map@V?$basic_string@DU?$char_traits@D@std@@V?$allocator@D@2@@std@@V12@U?$less@V?$basic_string@DU?$char_traits@D@std@@V?$allocator@D@2@@std@@@2@V?$allocator@U?$pair@$$CBV?$basic_string@DU?$char_traits@D@std@@V?$allocator@D@2@@std@@V12@@std@@@2@@std@@QAE@XZ 0042ad00 f i sockets:ResolvSocket.obj
 0001:00029d20       ?insert@?$_Tree@V?$_Tmap_traits@V?$basic_string@DU?$char_traits@D@std@@V?$allocator@D@2@@std@@V12@U?$less@V?$basic_string@DU?$char_traits@D@std@@V?$allocator@D@2@@std@@@2@V?$allocator@U?$pair@$$CBV?$basic_string@DU?$char_traits@D@std@@V?$allocator@D@2@@std@@V12@@std@@@2@$0A@@std@@@std@@QAE?AViterator@12@Vconst_iterator@12@ABU?$pair@$$CBV?$basic_string@DU?$char_traits@D@std@@V?$allocator@D@2@@std@@V12@@2@@Z 0042ad20 f i sockets:ResolvSocket.obj
 0001:0002a320       ??0?$map@V?$basic_string@DU?$char_traits@D@std@@V?$allocator@D@2@@std@@_JU?$less@V?$basic_string@DU?$char_traits@D@std@@V?$allocator@D@2@@std@@@2@V?$allocator@U?$pair@$$CBV?$basic_string@DU?$char_traits@D@std@@V?$allocator@D@2@@std@@_J@std@@@2@@std@@QAE@XZ 0042b320 f i sockets:ResolvSocket.obj
 0001:0002a340       ?insert@?$_Tree@V?$_Tmap_traits@V?$basic_string@DU?$char_traits@D@std@@V?$allocator@D@2@@std@@_JU?$less@V?$basic_string@DU?$char_traits@D@std@@V?$allocator@D@2@@std@@@2@V?$allocator@U?$pair@$$CBV?$basic_string@DU?$char_traits@D@std@@V?$allocator@D@2@@std@@_J@std@@@2@$0A@@std@@@std@@QAE?AViterator@12@Vconst_iterator@12@ABU?$pair@$$CBV?$basic_string@DU?$char_traits@D@std@@V?$allocator@D@2@@std@@_J@2@@Z 0042b340 f i sockets:ResolvSocket.obj
 0001:0002a940       ??1?$_Tree_val@V?$_Tmap_traits@V?$basic_string@DU?$char_traits@D@std@@V?$allocator@D@2@@std@@V12@U?$less@V?$basic_string@DU?$char_traits@D@std@@V?$allocator@D@2@@std@@@2@V?$allocator@U?$pair@$$CBV?$basic_string@DU?$char_traits@D@std@@V?$allocator@D@2@@std@@V12@@std@@@2@$0A@@std@@@std@@QAE@XZ 0042b940 f i sockets:ResolvSocket.obj
 0001:0002a950       ??1?$_Tree_val@V?$_Tmap_traits@V?$basic_string@DU?$char_traits@D@std@@V?$allocator@D@2@@std@@_JU?$less@V?$basic_string@DU?$char_traits@D@std@@V?$allocator@D@2@@std@@@2@V?$allocator@U?$pair@$$CBV?$basic_string@DU?$char_traits@D@std@@V?$allocator@D@2@@std@@_J@std@@@2@$0A@@std@@@std@@QAE@XZ 0042b950 f i sockets:ResolvSocket.obj
 0001:0002a960       ?insert@?$_Tree@V?$_Tmap_traits@V?$basic_string@DU?$char_traits@D@std@@V?$allocator@D@2@@std@@V?$map@V?$basic_string@DU?$char_traits@D@std@@V?$allocator@D@2@@std@@V12@U?$less@V?$basic_string@DU?$char_traits@D@std@@V?$allocator@D@2@@std@@@2@V?$allocator@U?$pair@$$CBV?$basic_string@DU?$char_traits@D@std@@V?$allocator@D@2@@std@@V12@@std@@@2@@2@U?$less@V?$basic_string@DU?$char_traits@D@std@@V?$allocator@D@2@@std@@@2@V?$allocator@U?$pair@$$CBV?$basic_string@DU?$char_traits@D@std@@V?$allocator@D@2@@std@@V?$map@V?$basic_string@DU?$char_traits@D@std@@V?$allocator@D@2@@std@@V12@U?$less@V?$basic_string@DU?$char_traits@D@std@@V?$allocator@D@2@@std@@@2@V?$allocator@U?$pair@$$CBV?$basic_string@DU?$char_traits@D@std@@V?$allocator@D@2@@std@@V12@@std@@@2@@2@@std@@@2@$0A@@std@@@std@@QAE?AU?$pair@Viterator@?$_Tree@V?$_Tmap_traits@V?$basic_string@DU?$char_traits@D@std@@V?$allocator@D@2@@std@@V?$map@V?$basic_string@DU?$char_traits@D@std@@V?$allocator@D@2@@std@@V12@U?$less@V?$basic_string@DU?$char_traits@D@std@@V?$allocator@D@2@@std@@@2@V?$allocator@U?$pair@$$CBV?$basic_string@DU?$char_traits@D@std@@V?$allocator@D@2@@std@@V12@@std@@@2@@2@U?$less@V?$basic_string@DU?$char_traits@D@std@@V?$allocator@D@2@@std@@@2@V?$allocator@U?$pair@$$CBV?$basic_string@DU?$char_traits@D@std@@V?$allocator@D@2@@std@@V?$map@V?$basic_string@DU?$char_traits@D@std@@V?$allocator@D@2@@std@@V12@U?$less@V?$basic_string@DU?$char_traits@D@std@@V?$allocator@D@2@@std@@@2@V?$allocator@U?$pair@$$CBV?$basic_string@DU?$char_traits@D@std@@V?$allocator@D@2@@std@@V12@@std@@@2@@2@@std@@@2@$0A@@std@@@std@@_N@2@ABU?$pair@$$CBV?$basic_string@DU?$char_traits@D@std@@V?$allocator@D@2@@std@@V?$map@V?$basic_string@DU?$char_traits@D@std@@V?$allocator@D@2@@std@@V12@U?$less@V?$basic_string@DU?$char_traits@D@std@@V?$allocator@D@2@@std@@@2@V?$allocator@U?$pair@$$CBV?$basic_string@DU?$char_traits@D@std@@V?$allocator@D@2@@std@@V12@@std@@@2@@2@@2@@Z 0042b960 f i sockets:ResolvSocket.obj
 0001:0002ab50       ?_Insert@?$_Tree@V?$_Tmap_traits@V?$basic_string@DU?$char_traits@D@std@@V?$allocator@D@2@@std@@V?$map@V?$basic_string@DU?$char_traits@D@std@@V?$allocator@D@2@@std@@V12@U?$less@V?$basic_string@DU?$char_traits@D@std@@V?$allocator@D@2@@std@@@2@V?$allocator@U?$pair@$$CBV?$basic_string@DU?$char_traits@D@std@@V?$allocator@D@2@@std@@V12@@std@@@2@@2@U?$less@V?$basic_string@DU?$char_traits@D@std@@V?$allocator@D@2@@std@@@2@V?$allocator@U?$pair@$$CBV?$basic_string@DU?$char_traits@D@std@@V?$allocator@D@2@@std@@V?$map@V?$basic_string@DU?$char_traits@D@std@@V?$allocator@D@2@@std@@V12@U?$less@V?$basic_string@DU?$char_traits@D@std@@V?$allocator@D@2@@std@@@2@V?$allocator@U?$pair@$$CBV?$basic_string@DU?$char_traits@D@std@@V?$allocator@D@2@@std@@V12@@std@@@2@@2@@std@@@2@$0A@@std@@@std@@IAE?AViterator@12@_NPAU_Node@?$_Tree_nod@V?$_Tmap_traits@V?$basic_string@DU?$char_traits@D@std@@V?$allocator@D@2@@std@@V?$map@V?$basic_string@DU?$char_traits@D@std@@V?$allocator@D@2@@std@@V12@U?$less@V?$basic_string@DU?$char_traits@D@std@@V?$allocator@D@2@@std@@@2@V?$allocator@U?$pair@$$CBV?$basic_string@DU?$char_traits@D@std@@V?$allocator@D@2@@std@@V12@@std@@@2@@2@U?$less@V?$basic_string@DU?$char_traits@D@std@@V?$allocator@D@2@@std@@@2@V?$allocator@U?$pair@$$CBV?$basic_string@DU?$char_traits@D@std@@V?$allocator@D@2@@std@@V?$map@V?$basic_string@DU?$char_traits@D@std@@V?$allocator@D@2@@std@@V12@U?$less@V?$basic_string@DU?$char_traits@D@std@@V?$allocator@D@2@@std@@@2@V?$allocator@U?$pair@$$CBV?$basic_string@DU?$char_traits@D@std@@V?$allocator@D@2@@std@@V12@@std@@@2@@2@@std@@@2@$0A@@std@@@2@ABU?$pair@$$CBV?$basic_string@DU?$char_traits@D@std@@V?$allocator@D@2@@std@@V?$map@V?$basic_string@DU?$char_traits@D@std@@V?$allocator@D@2@@std@@V12@U?$less@V?$basic_string@DU?$char_traits@D@std@@V?$allocator@D@2@@std@@@2@V?$allocator@U?$pair@$$CBV?$basic_string@DU?$char_traits@D@std@@V?$allocator@D@2@@std@@V12@@std@@@2@@2@@2@@Z 0042bb50 f i sockets:ResolvSocket.obj
 0001:0002af00       ?_Lbound@?$_Tree@V?$_Tmap_traits@V?$basic_string@DU?$char_traits@D@std@@V?$allocator@D@2@@std@@V?$map@V?$basic_string@DU?$char_traits@D@std@@V?$allocator@D@2@@std@@V12@U?$less@V?$basic_string@DU?$char_traits@D@std@@V?$allocator@D@2@@std@@@2@V?$allocator@U?$pair@$$CBV?$basic_string@DU?$char_traits@D@std@@V?$allocator@D@2@@std@@V12@@std@@@2@@2@U?$less@V?$basic_string@DU?$char_traits@D@std@@V?$allocator@D@2@@std@@@2@V?$allocator@U?$pair@$$CBV?$basic_string@DU?$char_traits@D@std@@V?$allocator@D@2@@std@@V?$map@V?$basic_string@DU?$char_traits@D@std@@V?$allocator@D@2@@std@@V12@U?$less@V?$basic_string@DU?$char_traits@D@std@@V?$allocator@D@2@@std@@@2@V?$allocator@U?$pair@$$CBV?$basic_string@DU?$char_traits@D@std@@V?$allocator@D@2@@std@@V12@@std@@@2@@2@@std@@@2@$0A@@std@@@std@@IBEPAU_Node@?$_Tree_nod@V?$_Tmap_traits@V?$basic_string@DU?$char_traits@D@std@@V?$allocator@D@2@@std@@V?$map@V?$basic_string@DU?$char_traits@D@std@@V?$allocator@D@2@@std@@V12@U?$less@V?$basic_string@DU?$char_traits@D@std@@V?$allocator@D@2@@std@@@2@V?$allocator@U?$pair@$$CBV?$basic_string@DU?$char_traits@D@std@@V?$allocator@D@2@@std@@V12@@std@@@2@@2@U?$less@V?$basic_string@DU?$char_traits@D@std@@V?$allocator@D@2@@std@@@2@V?$allocator@U?$pair@$$CBV?$basic_string@DU?$char_traits@D@std@@V?$allocator@D@2@@std@@V?$map@V?$basic_string@DU?$char_traits@D@std@@V?$allocator@D@2@@std@@V12@U?$less@V?$basic_string@DU?$char_traits@D@std@@V?$allocator@D@2@@std@@@2@V?$allocator@U?$pair@$$CBV?$basic_string@DU?$char_traits@D@std@@V?$allocator@D@2@@std@@V12@@std@@@2@@2@@std@@@2@$0A@@std@@@2@ABV?$basic_string@DU?$char_traits@D@std@@V?$allocator@D@2@@2@@Z 0042bf00 f i sockets:ResolvSocket.obj
 0001:0002af70       ?insert@?$_Tree@V?$_Tmap_traits@V?$basic_string@DU?$char_traits@D@std@@V?$allocator@D@2@@std@@V?$map@V?$basic_string@DU?$char_traits@D@std@@V?$allocator@D@2@@std@@_JU?$less@V?$basic_string@DU?$char_traits@D@std@@V?$allocator@D@2@@std@@@2@V?$allocator@U?$pair@$$CBV?$basic_string@DU?$char_traits@D@std@@V?$allocator@D@2@@std@@_J@std@@@2@@2@U?$less@V?$basic_string@DU?$char_traits@D@std@@V?$allocator@D@2@@std@@@2@V?$allocator@U?$pair@$$CBV?$basic_string@DU?$char_traits@D@std@@V?$allocator@D@2@@std@@V?$map@V?$basic_string@DU?$char_traits@D@std@@V?$allocator@D@2@@std@@_JU?$less@V?$basic_string@DU?$char_traits@D@std@@V?$allocator@D@2@@std@@@2@V?$allocator@U?$pair@$$CBV?$basic_string@DU?$char_traits@D@std@@V?$allocator@D@2@@std@@_J@std@@@2@@2@@std@@@2@$0A@@std@@@std@@QAE?AU?$pair@Viterator@?$_Tree@V?$_Tmap_traits@V?$basic_string@DU?$char_traits@D@std@@V?$allocator@D@2@@std@@V?$map@V?$basic_string@DU?$char_traits@D@std@@V?$allocator@D@2@@std@@_JU?$less@V?$basic_string@DU?$char_traits@D@std@@V?$allocator@D@2@@std@@@2@V?$allocator@U?$pair@$$CBV?$basic_string@DU?$char_traits@D@std@@V?$allocator@D@2@@std@@_J@std@@@2@@2@U?$less@V?$basic_string@DU?$char_traits@D@std@@V?$allocator@D@2@@std@@@2@V?$allocator@U?$pair@$$CBV?$basic_string@DU?$char_traits@D@std@@V?$allocator@D@2@@std@@V?$map@V?$basic_string@DU?$char_traits@D@std@@V?$allocator@D@2@@std@@_JU?$less@V?$basic_string@DU?$char_traits@D@std@@V?$allocator@D@2@@std@@@2@V?$allocator@U?$pair@$$CBV?$basic_string@DU?$char_traits@D@std@@V?$allocator@D@2@@std@@_J@std@@@2@@2@@std@@@2@$0A@@std@@@std@@_N@2@ABU?$pair@$$CBV?$basic_string@DU?$char_traits@D@std@@V?$allocator@D@2@@std@@V?$map@V?$basic_string@DU?$char_traits@D@std@@V?$allocator@D@2@@std@@_JU?$less@V?$basic_string@DU?$char_traits@D@std@@V?$allocator@D@2@@std@@@2@V?$allocator@U?$pair@$$CBV?$basic_string@DU?$char_traits@D@std@@V?$allocator@D@2@@std@@_J@std@@@2@@2@@2@@Z 0042bf70 f i sockets:ResolvSocket.obj
 0001:0002b160       ?_Insert@?$_Tree@V?$_Tmap_traits@V?$basic_string@DU?$char_traits@D@std@@V?$allocator@D@2@@std@@V?$map@V?$basic_string@DU?$char_traits@D@std@@V?$allocator@D@2@@std@@_JU?$less@V?$basic_string@DU?$char_traits@D@std@@V?$allocator@D@2@@std@@@2@V?$allocator@U?$pair@$$CBV?$basic_string@DU?$char_traits@D@std@@V?$allocator@D@2@@std@@_J@std@@@2@@2@U?$less@V?$basic_string@DU?$char_traits@D@std@@V?$allocator@D@2@@std@@@2@V?$allocator@U?$pair@$$CBV?$basic_string@DU?$char_traits@D@std@@V?$allocator@D@2@@std@@V?$map@V?$basic_string@DU?$char_traits@D@std@@V?$allocator@D@2@@std@@_JU?$less@V?$basic_string@DU?$char_traits@D@std@@V?$allocator@D@2@@std@@@2@V?$allocator@U?$pair@$$CBV?$basic_string@DU?$char_traits@D@std@@V?$allocator@D@2@@std@@_J@std@@@2@@2@@std@@@2@$0A@@std@@@std@@IAE?AViterator@12@_NPAU_Node@?$_Tree_nod@V?$_Tmap_traits@V?$basic_string@DU?$char_traits@D@std@@V?$allocator@D@2@@std@@V?$map@V?$basic_string@DU?$char_traits@D@std@@V?$allocator@D@2@@std@@_JU?$less@V?$basic_string@DU?$char_traits@D@std@@V?$allocator@D@2@@std@@@2@V?$allocator@U?$pair@$$CBV?$basic_string@DU?$char_traits@D@std@@V?$allocator@D@2@@std@@_J@std@@@2@@2@U?$less@V?$basic_string@DU?$char_traits@D@std@@V?$allocator@D@2@@std@@@2@V?$allocator@U?$pair@$$CBV?$basic_string@DU?$char_traits@D@std@@V?$allocator@D@2@@std@@V?$map@V?$basic_string@DU?$char_traits@D@std@@V?$allocator@D@2@@std@@_JU?$less@V?$basic_string@DU?$char_traits@D@std@@V?$allocator@D@2@@std@@@2@V?$allocator@U?$pair@$$CBV?$basic_string@DU?$char_traits@D@std@@V?$allocator@D@2@@std@@_J@std@@@2@@2@@std@@@2@$0A@@std@@@2@ABU?$pair@$$CBV?$basic_string@DU?$char_traits@D@std@@V?$allocator@D@2@@std@@V?$map@V?$basic_string@DU?$char_traits@D@std@@V?$allocator@D@2@@std@@_JU?$less@V?$basic_string@DU?$char_traits@D@std@@V?$allocator@D@2@@std@@@2@V?$allocator@U?$pair@$$CBV?$basic_string@DU?$char_traits@D@std@@V?$allocator@D@2@@std@@_J@std@@@2@@2@@2@@Z 0042c160 f i sockets:ResolvSocket.obj
 0001:0002b510       ?_Lbound@?$_Tree@V?$_Tmap_traits@V?$basic_string@DU?$char_traits@D@std@@V?$allocator@D@2@@std@@V?$map@V?$basic_string@DU?$char_traits@D@std@@V?$allocator@D@2@@std@@_JU?$less@V?$basic_string@DU?$char_traits@D@std@@V?$allocator@D@2@@std@@@2@V?$allocator@U?$pair@$$CBV?$basic_string@DU?$char_traits@D@std@@V?$allocator@D@2@@std@@_J@std@@@2@@2@U?$less@V?$basic_string@DU?$char_traits@D@std@@V?$allocator@D@2@@std@@@2@V?$allocator@U?$pair@$$CBV?$basic_string@DU?$char_traits@D@std@@V?$allocator@D@2@@std@@V?$map@V?$basic_string@DU?$char_traits@D@std@@V?$allocator@D@2@@std@@_JU?$less@V?$basic_string@DU?$char_traits@D@std@@V?$allocator@D@2@@std@@@2@V?$allocator@U?$pair@$$CBV?$basic_string@DU?$char_traits@D@std@@V?$allocator@D@2@@std@@_J@std@@@2@@2@@std@@@2@$0A@@std@@@std@@IBEPAU_Node@?$_Tree_nod@V?$_Tmap_traits@V?$basic_string@DU?$char_traits@D@std@@V?$allocator@D@2@@std@@V?$map@V?$basic_string@DU?$char_traits@D@std@@V?$allocator@D@2@@std@@_JU?$less@V?$basic_string@DU?$char_traits@D@std@@V?$allocator@D@2@@std@@@2@V?$allocator@U?$pair@$$CBV?$basic_string@DU?$char_traits@D@std@@V?$allocator@D@2@@std@@_J@std@@@2@@2@U?$less@V?$basic_string@DU?$char_traits@D@std@@V?$allocator@D@2@@std@@@2@V?$allocator@U?$pair@$$CBV?$basic_string@DU?$char_traits@D@std@@V?$allocator@D@2@@std@@V?$map@V?$basic_string@DU?$char_traits@D@std@@V?$allocator@D@2@@std@@_JU?$less@V?$basic_string@DU?$char_traits@D@std@@V?$allocator@D@2@@std@@@2@V?$allocator@U?$pair@$$CBV?$basic_string@DU?$char_traits@D@std@@V?$allocator@D@2@@std@@_J@std@@@2@@2@@std@@@2@$0A@@std@@@2@ABV?$basic_string@DU?$char_traits@D@std@@V?$allocator@D@2@@2@@Z 0042c510 f i sockets:ResolvSocket.obj
 0001:0002b580       ??0?$_Tree@V?$_Tmap_traits@V?$basic_string@DU?$char_traits@D@std@@V?$allocator@D@2@@std@@V12@U?$less@V?$basic_string@DU?$char_traits@D@std@@V?$allocator@D@2@@std@@@2@V?$allocator@U?$pair@$$CBV?$basic_string@DU?$char_traits@D@std@@V?$allocator@D@2@@std@@V12@@std@@@2@$0A@@std@@@std@@QAE@ABU?$less@V?$basic_string@DU?$char_traits@D@std@@V?$allocator@D@2@@std@@@1@ABV?$allocator@U?$pair@$$CBV?$basic_string@DU?$char_traits@D@std@@V?$allocator@D@2@@std@@V12@@std@@@1@@Z 0042c580 f i sockets:ResolvSocket.obj
 0001:0002b620       ??0?$_Tree@V?$_Tmap_traits@V?$basic_string@DU?$char_traits@D@std@@V?$allocator@D@2@@std@@V12@U?$less@V?$basic_string@DU?$char_traits@D@std@@V?$allocator@D@2@@std@@@2@V?$allocator@U?$pair@$$CBV?$basic_string@DU?$char_traits@D@std@@V?$allocator@D@2@@std@@V12@@std@@@2@$0A@@std@@@std@@QAE@ABV01@@Z 0042c620 f i sockets:ResolvSocket.obj
 0001:0002b710       ?insert@?$_Tree@V?$_Tmap_traits@V?$basic_string@DU?$char_traits@D@std@@V?$allocator@D@2@@std@@V12@U?$less@V?$basic_string@DU?$char_traits@D@std@@V?$allocator@D@2@@std@@@2@V?$allocator@U?$pair@$$CBV?$basic_string@DU?$char_traits@D@std@@V?$allocator@D@2@@std@@V12@@std@@@2@$0A@@std@@@std@@QAE?AU?$pair@Viterator@?$_Tree@V?$_Tmap_traits@V?$basic_string@DU?$char_traits@D@std@@V?$allocator@D@2@@std@@V12@U?$less@V?$basic_string@DU?$char_traits@D@std@@V?$allocator@D@2@@std@@@2@V?$allocator@U?$pair@$$CBV?$basic_string@DU?$char_traits@D@std@@V?$allocator@D@2@@std@@V12@@std@@@2@$0A@@std@@@std@@_N@2@ABU?$pair@$$CBV?$basic_string@DU?$char_traits@D@std@@V?$allocator@D@2@@std@@V12@@2@@Z 0042c710 f i sockets:ResolvSocket.obj
 0001:0002b900       ?_Insert@?$_Tree@V?$_Tmap_traits@V?$basic_string@DU?$char_traits@D@std@@V?$allocator@D@2@@std@@V12@U?$less@V?$basic_string@DU?$char_traits@D@std@@V?$allocator@D@2@@std@@@2@V?$allocator@U?$pair@$$CBV?$basic_string@DU?$char_traits@D@std@@V?$allocator@D@2@@std@@V12@@std@@@2@$0A@@std@@@std@@IAE?AViterator@12@_NPAU_Node@?$_Tree_nod@V?$_Tmap_traits@V?$basic_string@DU?$char_traits@D@std@@V?$allocator@D@2@@std@@V12@U?$less@V?$basic_string@DU?$char_traits@D@std@@V?$allocator@D@2@@std@@@2@V?$allocator@U?$pair@$$CBV?$basic_string@DU?$char_traits@D@std@@V?$allocator@D@2@@std@@V12@@std@@@2@$0A@@std@@@2@ABU?$pair@$$CBV?$basic_string@DU?$char_traits@D@std@@V?$allocator@D@2@@std@@V12@@2@@Z 0042c900 f i sockets:ResolvSocket.obj
 0001:0002bcb0       ?_Lbound@?$_Tree@V?$_Tmap_traits@V?$basic_string@DU?$char_traits@D@std@@V?$allocator@D@2@@std@@V12@U?$less@V?$basic_string@DU?$char_traits@D@std@@V?$allocator@D@2@@std@@@2@V?$allocator@U?$pair@$$CBV?$basic_string@DU?$char_traits@D@std@@V?$allocator@D@2@@std@@V12@@std@@@2@$0A@@std@@@std@@IBEPAU_Node@?$_Tree_nod@V?$_Tmap_traits@V?$basic_string@DU?$char_traits@D@std@@V?$allocator@D@2@@std@@V12@U?$less@V?$basic_string@DU?$char_traits@D@std@@V?$allocator@D@2@@std@@@2@V?$allocator@U?$pair@$$CBV?$basic_string@DU?$char_traits@D@std@@V?$allocator@D@2@@std@@V12@@std@@@2@$0A@@std@@@2@ABV?$basic_string@DU?$char_traits@D@std@@V?$allocator@D@2@@2@@Z 0042ccb0 f i sockets:ResolvSocket.obj
 0001:0002bd20       ?_Tidy@?$_Tree@V?$_Tmap_traits@V?$basic_string@DU?$char_traits@D@std@@V?$allocator@D@2@@std@@V12@U?$less@V?$basic_string@DU?$char_traits@D@std@@V?$allocator@D@2@@std@@@2@V?$allocator@U?$pair@$$CBV?$basic_string@DU?$char_traits@D@std@@V?$allocator@D@2@@std@@V12@@std@@@2@$0A@@std@@@std@@IAEXXZ 0042cd20 f i sockets:ResolvSocket.obj
 0001:0002bdb0       ??0?$_Tree@V?$_Tmap_traits@V?$basic_string@DU?$char_traits@D@std@@V?$allocator@D@2@@std@@_JU?$less@V?$basic_string@DU?$char_traits@D@std@@V?$allocator@D@2@@std@@@2@V?$allocator@U?$pair@$$CBV?$basic_string@DU?$char_traits@D@std@@V?$allocator@D@2@@std@@_J@std@@@2@$0A@@std@@@std@@QAE@ABU?$less@V?$basic_string@DU?$char_traits@D@std@@V?$allocator@D@2@@std@@@1@ABV?$allocator@U?$pair@$$CBV?$basic_string@DU?$char_traits@D@std@@V?$allocator@D@2@@std@@_J@std@@@1@@Z 0042cdb0 f i sockets:ResolvSocket.obj
 0001:0002be50       ??0?$_Tree@V?$_Tmap_traits@V?$basic_string@DU?$char_traits@D@std@@V?$allocator@D@2@@std@@_JU?$less@V?$basic_string@DU?$char_traits@D@std@@V?$allocator@D@2@@std@@@2@V?$allocator@U?$pair@$$CBV?$basic_string@DU?$char_traits@D@std@@V?$allocator@D@2@@std@@_J@std@@@2@$0A@@std@@@std@@QAE@ABV01@@Z 0042ce50 f i sockets:ResolvSocket.obj
 0001:0002bf40       ?insert@?$_Tree@V?$_Tmap_traits@V?$basic_string@DU?$char_traits@D@std@@V?$allocator@D@2@@std@@_JU?$less@V?$basic_string@DU?$char_traits@D@std@@V?$allocator@D@2@@std@@@2@V?$allocator@U?$pair@$$CBV?$basic_string@DU?$char_traits@D@std@@V?$allocator@D@2@@std@@_J@std@@@2@$0A@@std@@@std@@QAE?AU?$pair@Viterator@?$_Tree@V?$_Tmap_traits@V?$basic_string@DU?$char_traits@D@std@@V?$allocator@D@2@@std@@_JU?$less@V?$basic_string@DU?$char_traits@D@std@@V?$allocator@D@2@@std@@@2@V?$allocator@U?$pair@$$CBV?$basic_string@DU?$char_traits@D@std@@V?$allocator@D@2@@std@@_J@std@@@2@$0A@@std@@@std@@_N@2@ABU?$pair@$$CBV?$basic_string@DU?$char_traits@D@std@@V?$allocator@D@2@@std@@_J@2@@Z 0042cf40 f i sockets:ResolvSocket.obj
 0001:0002c130       ?_Insert@?$_Tree@V?$_Tmap_traits@V?$basic_string@DU?$char_traits@D@std@@V?$allocator@D@2@@std@@_JU?$less@V?$basic_string@DU?$char_traits@D@std@@V?$allocator@D@2@@std@@@2@V?$allocator@U?$pair@$$CBV?$basic_string@DU?$char_traits@D@std@@V?$allocator@D@2@@std@@_J@std@@@2@$0A@@std@@@std@@IAE?AViterator@12@_NPAU_Node@?$_Tree_nod@V?$_Tmap_traits@V?$basic_string@DU?$char_traits@D@std@@V?$allocator@D@2@@std@@_JU?$less@V?$basic_string@DU?$char_traits@D@std@@V?$allocator@D@2@@std@@@2@V?$allocator@U?$pair@$$CBV?$basic_string@DU?$char_traits@D@std@@V?$allocator@D@2@@std@@_J@std@@@2@$0A@@std@@@2@ABU?$pair@$$CBV?$basic_string@DU?$char_traits@D@std@@V?$allocator@D@2@@std@@_J@2@@Z 0042d130 f i sockets:ResolvSocket.obj
 0001:0002c4e0       ?_Lbound@?$_Tree@V?$_Tmap_traits@V?$basic_string@DU?$char_traits@D@std@@V?$allocator@D@2@@std@@_JU?$less@V?$basic_string@DU?$char_traits@D@std@@V?$allocator@D@2@@std@@@2@V?$allocator@U?$pair@$$CBV?$basic_string@DU?$char_traits@D@std@@V?$allocator@D@2@@std@@_J@std@@@2@$0A@@std@@@std@@IBEPAU_Node@?$_Tree_nod@V?$_Tmap_traits@V?$basic_string@DU?$char_traits@D@std@@V?$allocator@D@2@@std@@_JU?$less@V?$basic_string@DU?$char_traits@D@std@@V?$allocator@D@2@@std@@@2@V?$allocator@U?$pair@$$CBV?$basic_string@DU?$char_traits@D@std@@V?$allocator@D@2@@std@@_J@std@@@2@$0A@@std@@@2@ABV?$basic_string@DU?$char_traits@D@std@@V?$allocator@D@2@@2@@Z 0042d4e0 f i sockets:ResolvSocket.obj
 0001:0002c550       ?_Tidy@?$_Tree@V?$_Tmap_traits@V?$basic_string@DU?$char_traits@D@std@@V?$allocator@D@2@@std@@_JU?$less@V?$basic_string@DU?$char_traits@D@std@@V?$allocator@D@2@@std@@@2@V?$allocator@U?$pair@$$CBV?$basic_string@DU?$char_traits@D@std@@V?$allocator@D@2@@std@@_J@std@@@2@$0A@@std@@@std@@IAEXXZ 0042d550 f i sockets:ResolvSocket.obj
 0001:0002c5e0       ?_Lrotate@?$_Tree@V?$_Tmap_traits@V?$basic_string@DU?$char_traits@D@std@@V?$allocator@D@2@@std@@V?$map@V?$basic_string@DU?$char_traits@D@std@@V?$allocator@D@2@@std@@V12@U?$less@V?$basic_string@DU?$char_traits@D@std@@V?$allocator@D@2@@std@@@2@V?$allocator@U?$pair@$$CBV?$basic_string@DU?$char_traits@D@std@@V?$allocator@D@2@@std@@V12@@std@@@2@@2@U?$less@V?$basic_string@DU?$char_traits@D@std@@V?$allocator@D@2@@std@@@2@V?$allocator@U?$pair@$$CBV?$basic_string@DU?$char_traits@D@std@@V?$allocator@D@2@@std@@V?$map@V?$basic_string@DU?$char_traits@D@std@@V?$allocator@D@2@@std@@V12@U?$less@V?$basic_string@DU?$char_traits@D@std@@V?$allocator@D@2@@std@@@2@V?$allocator@U?$pair@$$CBV?$basic_string@DU?$char_traits@D@std@@V?$allocator@D@2@@std@@V12@@std@@@2@@2@@std@@@2@$0A@@std@@@std@@IAEXPAU_Node@?$_Tree_nod@V?$_Tmap_traits@V?$basic_string@DU?$char_traits@D@std@@V?$allocator@D@2@@std@@V?$map@V?$basic_string@DU?$char_traits@D@std@@V?$allocator@D@2@@std@@V12@U?$less@V?$basic_string@DU?$char_traits@D@std@@V?$allocator@D@2@@std@@@2@V?$allocator@U?$pair@$$CBV?$basic_string@DU?$char_traits@D@std@@V?$allocator@D@2@@std@@V12@@std@@@2@@2@U?$less@V?$basic_string@DU?$char_traits@D@std@@V?$allocator@D@2@@std@@@2@V?$allocator@U?$pair@$$CBV?$basic_string@DU?$char_traits@D@std@@V?$allocator@D@2@@std@@V?$map@V?$basic_string@DU?$char_traits@D@std@@V?$allocator@D@2@@std@@V12@U?$less@V?$basic_string@DU?$char_traits@D@std@@V?$allocator@D@2@@std@@@2@V?$allocator@U?$pair@$$CBV?$basic_string@DU?$char_traits@D@std@@V?$allocator@D@2@@std@@V12@@std@@@2@@2@@std@@@2@$0A@@std@@@2@@Z 0042d5e0 f i sockets:ResolvSocket.obj
 0001:0002c690       ?_Rrotate@?$_Tree@V?$_Tmap_traits@V?$basic_string@DU?$char_traits@D@std@@V?$allocator@D@2@@std@@V?$map@V?$basic_string@DU?$char_traits@D@std@@V?$allocator@D@2@@std@@V12@U?$less@V?$basic_string@DU?$char_traits@D@std@@V?$allocator@D@2@@std@@@2@V?$allocator@U?$pair@$$CBV?$basic_string@DU?$char_traits@D@std@@V?$allocator@D@2@@std@@V12@@std@@@2@@2@U?$less@V?$basic_string@DU?$char_traits@D@std@@V?$allocator@D@2@@std@@@2@V?$allocator@U?$pair@$$CBV?$basic_string@DU?$char_traits@D@std@@V?$allocator@D@2@@std@@V?$map@V?$basic_string@DU?$char_traits@D@std@@V?$allocator@D@2@@std@@V12@U?$less@V?$basic_string@DU?$char_traits@D@std@@V?$allocator@D@2@@std@@@2@V?$allocator@U?$pair@$$CBV?$basic_string@DU?$char_traits@D@std@@V?$allocator@D@2@@std@@V12@@std@@@2@@2@@std@@@2@$0A@@std@@@std@@IAEXPAU_Node@?$_Tree_nod@V?$_Tmap_traits@V?$basic_string@DU?$char_traits@D@std@@V?$allocator@D@2@@std@@V?$map@V?$basic_string@DU?$char_traits@D@std@@V?$allocator@D@2@@std@@V12@U?$less@V?$basic_string@DU?$char_traits@D@std@@V?$allocator@D@2@@std@@@2@V?$allocator@U?$pair@$$CBV?$basic_string@DU?$char_traits@D@std@@V?$allocator@D@2@@std@@V12@@std@@@2@@2@U?$less@V?$basic_string@DU?$char_traits@D@std@@V?$allocator@D@2@@std@@@2@V?$allocator@U?$pair@$$CBV?$basic_string@DU?$char_traits@D@std@@V?$allocator@D@2@@std@@V?$map@V?$basic_string@DU?$char_traits@D@std@@V?$allocator@D@2@@std@@V12@U?$less@V?$basic_string@DU?$char_traits@D@std@@V?$allocator@D@2@@std@@@2@V?$allocator@U?$pair@$$CBV?$basic_string@DU?$char_traits@D@std@@V?$allocator@D@2@@std@@V12@@std@@@2@@2@@std@@@2@$0A@@std@@@2@@Z 0042d690 f i sockets:ResolvSocket.obj
 0001:0002c740       ?_Buynode@?$_Tree@V?$_Tmap_traits@V?$basic_string@DU?$char_traits@D@std@@V?$allocator@D@2@@std@@V?$map@V?$basic_string@DU?$char_traits@D@std@@V?$allocator@D@2@@std@@V12@U?$less@V?$basic_string@DU?$char_traits@D@std@@V?$allocator@D@2@@std@@@2@V?$allocator@U?$pair@$$CBV?$basic_string@DU?$char_traits@D@std@@V?$allocator@D@2@@std@@V12@@std@@@2@@2@U?$less@V?$basic_string@DU?$char_traits@D@std@@V?$allocator@D@2@@std@@@2@V?$allocator@U?$pair@$$CBV?$basic_string@DU?$char_traits@D@std@@V?$allocator@D@2@@std@@V?$map@V?$basic_string@DU?$char_traits@D@std@@V?$allocator@D@2@@std@@V12@U?$less@V?$basic_string@DU?$char_traits@D@std@@V?$allocator@D@2@@std@@@2@V?$allocator@U?$pair@$$CBV?$basic_string@DU?$char_traits@D@std@@V?$allocator@D@2@@std@@V12@@std@@@2@@2@@std@@@2@$0A@@std@@@std@@IAEPAU_Node@?$_Tree_nod@V?$_Tmap_traits@V?$basic_string@DU?$char_traits@D@std@@V?$allocator@D@2@@std@@V?$map@V?$basic_string@DU?$char_traits@D@std@@V?$allocator@D@2@@std@@V12@U?$less@V?$basic_string@DU?$char_traits@D@std@@V?$allocator@D@2@@std@@@2@V?$allocator@U?$pair@$$CBV?$basic_string@DU?$char_traits@D@std@@V?$allocator@D@2@@std@@V12@@std@@@2@@2@U?$less@V?$basic_string@DU?$char_traits@D@std@@V?$allocator@D@2@@std@@@2@V?$allocator@U?$pair@$$CBV?$basic_string@DU?$char_traits@D@std@@V?$allocator@D@2@@std@@V?$map@V?$basic_string@DU?$char_traits@D@std@@V?$allocator@D@2@@std@@V12@U?$less@V?$basic_string@DU?$char_traits@D@std@@V?$allocator@D@2@@std@@@2@V?$allocator@U?$pair@$$CBV?$basic_string@DU?$char_traits@D@std@@V?$allocator@D@2@@std@@V12@@std@@@2@@2@@std@@@2@$0A@@std@@@2@PAU342@00ABU?$pair@$$CBV?$basic_string@DU?$char_traits@D@std@@V?$allocator@D@2@@std@@V?$map@V?$basic_string@DU?$char_traits@D@std@@V?$allocator@D@2@@std@@V12@U?$less@V?$basic_string@DU?$char_traits@D@std@@V?$allocator@D@2@@std@@@2@V?$allocator@U?$pair@$$CBV?$basic_string@DU?$char_traits@D@std@@V?$allocator@D@2@@std@@V12@@std@@@2@@2@@2@D@Z 0042d740 f i sockets:ResolvSocket.obj
 0001:0002c860       ?_Lrotate@?$_Tree@V?$_Tmap_traits@V?$basic_string@DU?$char_traits@D@std@@V?$allocator@D@2@@std@@V?$map@V?$basic_string@DU?$char_traits@D@std@@V?$allocator@D@2@@std@@_JU?$less@V?$basic_string@DU?$char_traits@D@std@@V?$allocator@D@2@@std@@@2@V?$allocator@U?$pair@$$CBV?$basic_string@DU?$char_traits@D@std@@V?$allocator@D@2@@std@@_J@std@@@2@@2@U?$less@V?$basic_string@DU?$char_traits@D@std@@V?$allocator@D@2@@std@@@2@V?$allocator@U?$pair@$$CBV?$basic_string@DU?$char_traits@D@std@@V?$allocator@D@2@@std@@V?$map@V?$basic_string@DU?$char_traits@D@std@@V?$allocator@D@2@@std@@_JU?$less@V?$basic_string@DU?$char_traits@D@std@@V?$allocator@D@2@@std@@@2@V?$allocator@U?$pair@$$CBV?$basic_string@DU?$char_traits@D@std@@V?$allocator@D@2@@std@@_J@std@@@2@@2@@std@@@2@$0A@@std@@@std@@IAEXPAU_Node@?$_Tree_nod@V?$_Tmap_traits@V?$basic_string@DU?$char_traits@D@std@@V?$allocator@D@2@@std@@V?$map@V?$basic_string@DU?$char_traits@D@std@@V?$allocator@D@2@@std@@_JU?$less@V?$basic_string@DU?$char_traits@D@std@@V?$allocator@D@2@@std@@@2@V?$allocator@U?$pair@$$CBV?$basic_string@DU?$char_traits@D@std@@V?$allocator@D@2@@std@@_J@std@@@2@@2@U?$less@V?$basic_string@DU?$char_traits@D@std@@V?$allocator@D@2@@std@@@2@V?$allocator@U?$pair@$$CBV?$basic_string@DU?$char_traits@D@std@@V?$allocator@D@2@@std@@V?$map@V?$basic_string@DU?$char_traits@D@std@@V?$allocator@D@2@@std@@_JU?$less@V?$basic_string@DU?$char_traits@D@std@@V?$allocator@D@2@@std@@@2@V?$allocator@U?$pair@$$CBV?$basic_string@DU?$char_traits@D@std@@V?$allocator@D@2@@std@@_J@std@@@2@@2@@std@@@2@$0A@@std@@@2@@Z 0042d860 f i sockets:ResolvSocket.obj
 0001:0002c910       ?_Rrotate@?$_Tree@V?$_Tmap_traits@V?$basic_string@DU?$char_traits@D@std@@V?$allocator@D@2@@std@@V?$map@V?$basic_string@DU?$char_traits@D@std@@V?$allocator@D@2@@std@@_JU?$less@V?$basic_string@DU?$char_traits@D@std@@V?$allocator@D@2@@std@@@2@V?$allocator@U?$pair@$$CBV?$basic_string@DU?$char_traits@D@std@@V?$allocator@D@2@@std@@_J@std@@@2@@2@U?$less@V?$basic_string@DU?$char_traits@D@std@@V?$allocator@D@2@@std@@@2@V?$allocator@U?$pair@$$CBV?$basic_string@DU?$char_traits@D@std@@V?$allocator@D@2@@std@@V?$map@V?$basic_string@DU?$char_traits@D@std@@V?$allocator@D@2@@std@@_JU?$less@V?$basic_string@DU?$char_traits@D@std@@V?$allocator@D@2@@std@@@2@V?$allocator@U?$pair@$$CBV?$basic_string@DU?$char_traits@D@std@@V?$allocator@D@2@@std@@_J@std@@@2@@2@@std@@@2@$0A@@std@@@std@@IAEXPAU_Node@?$_Tree_nod@V?$_Tmap_traits@V?$basic_string@DU?$char_traits@D@std@@V?$allocator@D@2@@std@@V?$map@V?$basic_string@DU?$char_traits@D@std@@V?$allocator@D@2@@std@@_JU?$less@V?$basic_string@DU?$char_traits@D@std@@V?$allocator@D@2@@std@@@2@V?$allocator@U?$pair@$$CBV?$basic_string@DU?$char_traits@D@std@@V?$allocator@D@2@@std@@_J@std@@@2@@2@U?$less@V?$basic_string@DU?$char_traits@D@std@@V?$allocator@D@2@@std@@@2@V?$allocator@U?$pair@$$CBV?$basic_string@DU?$char_traits@D@std@@V?$allocator@D@2@@std@@V?$map@V?$basic_string@DU?$char_traits@D@std@@V?$allocator@D@2@@std@@_JU?$less@V?$basic_string@DU?$char_traits@D@std@@V?$allocator@D@2@@std@@@2@V?$allocator@U?$pair@$$CBV?$basic_string@DU?$char_traits@D@std@@V?$allocator@D@2@@std@@_J@std@@@2@@2@@std@@@2@$0A@@std@@@2@@Z 0042d910 f i sockets:ResolvSocket.obj
 0001:0002c9c0       ?_Buynode@?$_Tree@V?$_Tmap_traits@V?$basic_string@DU?$char_traits@D@std@@V?$allocator@D@2@@std@@V?$map@V?$basic_string@DU?$char_traits@D@std@@V?$allocator@D@2@@std@@_JU?$less@V?$basic_string@DU?$char_traits@D@std@@V?$allocator@D@2@@std@@@2@V?$allocator@U?$pair@$$CBV?$basic_string@DU?$char_traits@D@std@@V?$allocator@D@2@@std@@_J@std@@@2@@2@U?$less@V?$basic_string@DU?$char_traits@D@std@@V?$allocator@D@2@@std@@@2@V?$allocator@U?$pair@$$CBV?$basic_string@DU?$char_traits@D@std@@V?$allocator@D@2@@std@@V?$map@V?$basic_string@DU?$char_traits@D@std@@V?$allocator@D@2@@std@@_JU?$less@V?$basic_string@DU?$char_traits@D@std@@V?$allocator@D@2@@std@@@2@V?$allocator@U?$pair@$$CBV?$basic_string@DU?$char_traits@D@std@@V?$allocator@D@2@@std@@_J@std@@@2@@2@@std@@@2@$0A@@std@@@std@@IAEPAU_Node@?$_Tree_nod@V?$_Tmap_traits@V?$basic_string@DU?$char_traits@D@std@@V?$allocator@D@2@@std@@V?$map@V?$basic_string@DU?$char_traits@D@std@@V?$allocator@D@2@@std@@_JU?$less@V?$basic_string@DU?$char_traits@D@std@@V?$allocator@D@2@@std@@@2@V?$allocator@U?$pair@$$CBV?$basic_string@DU?$char_traits@D@std@@V?$allocator@D@2@@std@@_J@std@@@2@@2@U?$less@V?$basic_string@DU?$char_traits@D@std@@V?$allocator@D@2@@std@@@2@V?$allocator@U?$pair@$$CBV?$basic_string@DU?$char_traits@D@std@@V?$allocator@D@2@@std@@V?$map@V?$basic_string@DU?$char_traits@D@std@@V?$allocator@D@2@@std@@_JU?$less@V?$basic_string@DU?$char_traits@D@std@@V?$allocator@D@2@@std@@@2@V?$allocator@U?$pair@$$CBV?$basic_string@DU?$char_traits@D@std@@V?$allocator@D@2@@std@@_J@std@@@2@@2@@std@@@2@$0A@@std@@@2@PAU342@00ABU?$pair@$$CBV?$basic_string@DU?$char_traits@D@std@@V?$allocator@D@2@@std@@V?$map@V?$basic_string@DU?$char_traits@D@std@@V?$allocator@D@2@@std@@_JU?$less@V?$basic_string@DU?$char_traits@D@std@@V?$allocator@D@2@@std@@@2@V?$allocator@U?$pair@$$CBV?$basic_string@DU?$char_traits@D@std@@V?$allocator@D@2@@std@@_J@std@@@2@@2@@2@D@Z 0042d9c0 f i sockets:ResolvSocket.obj
 0001:0002cae0       ?erase@?$_Tree@V?$_Tmap_traits@V?$basic_string@DU?$char_traits@D@std@@V?$allocator@D@2@@std@@V12@U?$less@V?$basic_string@DU?$char_traits@D@std@@V?$allocator@D@2@@std@@@2@V?$allocator@U?$pair@$$CBV?$basic_string@DU?$char_traits@D@std@@V?$allocator@D@2@@std@@V12@@std@@@2@$0A@@std@@@std@@QAE?AViterator@12@Vconst_iterator@12@0@Z 0042dae0 f i sockets:ResolvSocket.obj
 0001:0002cbc0       ?_Copy@?$_Tree@V?$_Tmap_traits@V?$basic_string@DU?$char_traits@D@std@@V?$allocator@D@2@@std@@V12@U?$less@V?$basic_string@DU?$char_traits@D@std@@V?$allocator@D@2@@std@@@2@V?$allocator@U?$pair@$$CBV?$basic_string@DU?$char_traits@D@std@@V?$allocator@D@2@@std@@V12@@std@@@2@$0A@@std@@@std@@IAEXABV12@@Z 0042dbc0 f i sockets:ResolvSocket.obj
 0001:0002ccd0       ?_Init@?$_Tree@V?$_Tmap_traits@V?$basic_string@DU?$char_traits@D@std@@V?$allocator@D@2@@std@@V12@U?$less@V?$basic_string@DU?$char_traits@D@std@@V?$allocator@D@2@@std@@@2@V?$allocator@U?$pair@$$CBV?$basic_string@DU?$char_traits@D@std@@V?$allocator@D@2@@std@@V12@@std@@@2@$0A@@std@@@std@@IAEXXZ 0042dcd0 f i sockets:ResolvSocket.obj
 0001:0002cd40       ?_Lrotate@?$_Tree@V?$_Tmap_traits@V?$basic_string@DU?$char_traits@D@std@@V?$allocator@D@2@@std@@V12@U?$less@V?$basic_string@DU?$char_traits@D@std@@V?$allocator@D@2@@std@@@2@V?$allocator@U?$pair@$$CBV?$basic_string@DU?$char_traits@D@std@@V?$allocator@D@2@@std@@V12@@std@@@2@$0A@@std@@@std@@IAEXPAU_Node@?$_Tree_nod@V?$_Tmap_traits@V?$basic_string@DU?$char_traits@D@std@@V?$allocator@D@2@@std@@V12@U?$less@V?$basic_string@DU?$char_traits@D@std@@V?$allocator@D@2@@std@@@2@V?$allocator@U?$pair@$$CBV?$basic_string@DU?$char_traits@D@std@@V?$allocator@D@2@@std@@V12@@std@@@2@$0A@@std@@@2@@Z 0042dd40 f i sockets:ResolvSocket.obj
 0001:0002cdf0       ?_Rrotate@?$_Tree@V?$_Tmap_traits@V?$basic_string@DU?$char_traits@D@std@@V?$allocator@D@2@@std@@V12@U?$less@V?$basic_string@DU?$char_traits@D@std@@V?$allocator@D@2@@std@@@2@V?$allocator@U?$pair@$$CBV?$basic_string@DU?$char_traits@D@std@@V?$allocator@D@2@@std@@V12@@std@@@2@$0A@@std@@@std@@IAEXPAU_Node@?$_Tree_nod@V?$_Tmap_traits@V?$basic_string@DU?$char_traits@D@std@@V?$allocator@D@2@@std@@V12@U?$less@V?$basic_string@DU?$char_traits@D@std@@V?$allocator@D@2@@std@@@2@V?$allocator@U?$pair@$$CBV?$basic_string@DU?$char_traits@D@std@@V?$allocator@D@2@@std@@V12@@std@@@2@$0A@@std@@@2@@Z 0042ddf0 f i sockets:ResolvSocket.obj
 0001:0002cea0       ?_Buynode@?$_Tree@V?$_Tmap_traits@V?$basic_string@DU?$char_traits@D@std@@V?$allocator@D@2@@std@@V12@U?$less@V?$basic_string@DU?$char_traits@D@std@@V?$allocator@D@2@@std@@@2@V?$allocator@U?$pair@$$CBV?$basic_string@DU?$char_traits@D@std@@V?$allocator@D@2@@std@@V12@@std@@@2@$0A@@std@@@std@@IAEPAU_Node@?$_Tree_nod@V?$_Tmap_traits@V?$basic_string@DU?$char_traits@D@std@@V?$allocator@D@2@@std@@V12@U?$less@V?$basic_string@DU?$char_traits@D@std@@V?$allocator@D@2@@std@@@2@V?$allocator@U?$pair@$$CBV?$basic_string@DU?$char_traits@D@std@@V?$allocator@D@2@@std@@V12@@std@@@2@$0A@@std@@@2@PAU342@00ABU?$pair@$$CBV?$basic_string@DU?$char_traits@D@std@@V?$allocator@D@2@@std@@V12@@2@D@Z 0042dea0 f i sockets:ResolvSocket.obj
 0001:0002cfb0       ?_Dec@const_iterator@?$_Tree@V?$_Tmap_traits@V?$basic_string@DU?$char_traits@D@std@@V?$allocator@D@2@@std@@V12@U?$less@V?$basic_string@DU?$char_traits@D@std@@V?$allocator@D@2@@std@@@2@V?$allocator@U?$pair@$$CBV?$basic_string@DU?$char_traits@D@std@@V?$allocator@D@2@@std@@V12@@std@@@2@$0A@@std@@@std@@QAEXXZ 0042dfb0 f i sockets:ResolvSocket.obj
 0001:0002d080       ?_Inc@const_iterator@?$_Tree@V?$_Tmap_traits@V?$basic_string@DU?$char_traits@D@std@@V?$allocator@D@2@@std@@V12@U?$less@V?$basic_string@DU?$char_traits@D@std@@V?$allocator@D@2@@std@@@2@V?$allocator@U?$pair@$$CBV?$basic_string@DU?$char_traits@D@std@@V?$allocator@D@2@@std@@V12@@std@@@2@$0A@@std@@@std@@QAEXXZ 0042e080 f i sockets:ResolvSocket.obj
 0001:0002d120       ?erase@?$_Tree@V?$_Tmap_traits@V?$basic_string@DU?$char_traits@D@std@@V?$allocator@D@2@@std@@_JU?$less@V?$basic_string@DU?$char_traits@D@std@@V?$allocator@D@2@@std@@@2@V?$allocator@U?$pair@$$CBV?$basic_string@DU?$char_traits@D@std@@V?$allocator@D@2@@std@@_J@std@@@2@$0A@@std@@@std@@QAE?AViterator@12@Vconst_iterator@12@0@Z 0042e120 f i sockets:ResolvSocket.obj
 0001:0002d200       ?_Copy@?$_Tree@V?$_Tmap_traits@V?$basic_string@DU?$char_traits@D@std@@V?$allocator@D@2@@std@@_JU?$less@V?$basic_string@DU?$char_traits@D@std@@V?$allocator@D@2@@std@@@2@V?$allocator@U?$pair@$$CBV?$basic_string@DU?$char_traits@D@std@@V?$allocator@D@2@@std@@_J@std@@@2@$0A@@std@@@std@@IAEXABV12@@Z 0042e200 f i sockets:ResolvSocket.obj
 0001:0002d310       ?_Init@?$_Tree@V?$_Tmap_traits@V?$basic_string@DU?$char_traits@D@std@@V?$allocator@D@2@@std@@_JU?$less@V?$basic_string@DU?$char_traits@D@std@@V?$allocator@D@2@@std@@@2@V?$allocator@U?$pair@$$CBV?$basic_string@DU?$char_traits@D@std@@V?$allocator@D@2@@std@@_J@std@@@2@$0A@@std@@@std@@IAEXXZ 0042e310 f i sockets:ResolvSocket.obj
 0001:0002d380       ?_Lrotate@?$_Tree@V?$_Tmap_traits@V?$basic_string@DU?$char_traits@D@std@@V?$allocator@D@2@@std@@_JU?$less@V?$basic_string@DU?$char_traits@D@std@@V?$allocator@D@2@@std@@@2@V?$allocator@U?$pair@$$CBV?$basic_string@DU?$char_traits@D@std@@V?$allocator@D@2@@std@@_J@std@@@2@$0A@@std@@@std@@IAEXPAU_Node@?$_Tree_nod@V?$_Tmap_traits@V?$basic_string@DU?$char_traits@D@std@@V?$allocator@D@2@@std@@_JU?$less@V?$basic_string@DU?$char_traits@D@std@@V?$allocator@D@2@@std@@@2@V?$allocator@U?$pair@$$CBV?$basic_string@DU?$char_traits@D@std@@V?$allocator@D@2@@std@@_J@std@@@2@$0A@@std@@@2@@Z 0042e380 f i sockets:ResolvSocket.obj
 0001:0002d430       ?_Rrotate@?$_Tree@V?$_Tmap_traits@V?$basic_string@DU?$char_traits@D@std@@V?$allocator@D@2@@std@@_JU?$less@V?$basic_string@DU?$char_traits@D@std@@V?$allocator@D@2@@std@@@2@V?$allocator@U?$pair@$$CBV?$basic_string@DU?$char_traits@D@std@@V?$allocator@D@2@@std@@_J@std@@@2@$0A@@std@@@std@@IAEXPAU_Node@?$_Tree_nod@V?$_Tmap_traits@V?$basic_string@DU?$char_traits@D@std@@V?$allocator@D@2@@std@@_JU?$less@V?$basic_string@DU?$char_traits@D@std@@V?$allocator@D@2@@std@@@2@V?$allocator@U?$pair@$$CBV?$basic_string@DU?$char_traits@D@std@@V?$allocator@D@2@@std@@_J@std@@@2@$0A@@std@@@2@@Z 0042e430 f i sockets:ResolvSocket.obj
 0001:0002d4e0       ?_Buynode@?$_Tree@V?$_Tmap_traits@V?$basic_string@DU?$char_traits@D@std@@V?$allocator@D@2@@std@@_JU?$less@V?$basic_string@DU?$char_traits@D@std@@V?$allocator@D@2@@std@@@2@V?$allocator@U?$pair@$$CBV?$basic_string@DU?$char_traits@D@std@@V?$allocator@D@2@@std@@_J@std@@@2@$0A@@std@@@std@@IAEPAU_Node@?$_Tree_nod@V?$_Tmap_traits@V?$basic_string@DU?$char_traits@D@std@@V?$allocator@D@2@@std@@_JU?$less@V?$basic_string@DU?$char_traits@D@std@@V?$allocator@D@2@@std@@@2@V?$allocator@U?$pair@$$CBV?$basic_string@DU?$char_traits@D@std@@V?$allocator@D@2@@std@@_J@std@@@2@$0A@@std@@@2@PAU342@00ABU?$pair@$$CBV?$basic_string@DU?$char_traits@D@std@@V?$allocator@D@2@@std@@_J@2@D@Z 0042e4e0 f i sockets:ResolvSocket.obj
 0001:0002d5f0       ?_Dec@const_iterator@?$_Tree@V?$_Tmap_traits@V?$basic_string@DU?$char_traits@D@std@@V?$allocator@D@2@@std@@V?$map@V?$basic_string@DU?$char_traits@D@std@@V?$allocator@D@2@@std@@V12@U?$less@V?$basic_string@DU?$char_traits@D@std@@V?$allocator@D@2@@std@@@2@V?$allocator@U?$pair@$$CBV?$basic_string@DU?$char_traits@D@std@@V?$allocator@D@2@@std@@V12@@std@@@2@@2@U?$less@V?$basic_string@DU?$char_traits@D@std@@V?$allocator@D@2@@std@@@2@V?$allocator@U?$pair@$$CBV?$basic_string@DU?$char_traits@D@std@@V?$allocator@D@2@@std@@V?$map@V?$basic_string@DU?$char_traits@D@std@@V?$allocator@D@2@@std@@V12@U?$less@V?$basic_string@DU?$char_traits@D@std@@V?$allocator@D@2@@std@@@2@V?$allocator@U?$pair@$$CBV?$basic_string@DU?$char_traits@D@std@@V?$allocator@D@2@@std@@V12@@std@@@2@@2@@std@@@2@$0A@@std@@@std@@QAEXXZ 0042e5f0 f i sockets:ResolvSocket.obj
 0001:0002d6c0       ?_Inc@const_iterator@?$_Tree@V?$_Tmap_traits@V?$basic_string@DU?$char_traits@D@std@@V?$allocator@D@2@@std@@V?$map@V?$basic_string@DU?$char_traits@D@std@@V?$allocator@D@2@@std@@V12@U?$less@V?$basic_string@DU?$char_traits@D@std@@V?$allocator@D@2@@std@@@2@V?$allocator@U?$pair@$$CBV?$basic_string@DU?$char_traits@D@std@@V?$allocator@D@2@@std@@V12@@std@@@2@@2@U?$less@V?$basic_string@DU?$char_traits@D@std@@V?$allocator@D@2@@std@@@2@V?$allocator@U?$pair@$$CBV?$basic_string@DU?$char_traits@D@std@@V?$allocator@D@2@@std@@V?$map@V?$basic_string@DU?$char_traits@D@std@@V?$allocator@D@2@@std@@V12@U?$less@V?$basic_string@DU?$char_traits@D@std@@V?$allocator@D@2@@std@@@2@V?$allocator@U?$pair@$$CBV?$basic_string@DU?$char_traits@D@std@@V?$allocator@D@2@@std@@V12@@std@@@2@@2@@std@@@2@$0A@@std@@@std@@QAEXXZ 0042e6c0 f i sockets:ResolvSocket.obj
 0001:0002d760       ?_Dec@const_iterator@?$_Tree@V?$_Tmap_traits@V?$basic_string@DU?$char_traits@D@std@@V?$allocator@D@2@@std@@V?$map@V?$basic_string@DU?$char_traits@D@std@@V?$allocator@D@2@@std@@_JU?$less@V?$basic_string@DU?$char_traits@D@std@@V?$allocator@D@2@@std@@@2@V?$allocator@U?$pair@$$CBV?$basic_string@DU?$char_traits@D@std@@V?$allocator@D@2@@std@@_J@std@@@2@@2@U?$less@V?$basic_string@DU?$char_traits@D@std@@V?$allocator@D@2@@std@@@2@V?$allocator@U?$pair@$$CBV?$basic_string@DU?$char_traits@D@std@@V?$allocator@D@2@@std@@V?$map@V?$basic_string@DU?$char_traits@D@std@@V?$allocator@D@2@@std@@_JU?$less@V?$basic_string@DU?$char_traits@D@std@@V?$allocator@D@2@@std@@@2@V?$allocator@U?$pair@$$CBV?$basic_string@DU?$char_traits@D@std@@V?$allocator@D@2@@std@@_J@std@@@2@@2@@std@@@2@$0A@@std@@@std@@QAEXXZ 0042e760 f i sockets:ResolvSocket.obj
 0001:0002d830       ?_Inc@const_iterator@?$_Tree@V?$_Tmap_traits@V?$basic_string@DU?$char_traits@D@std@@V?$allocator@D@2@@std@@V?$map@V?$basic_string@DU?$char_traits@D@std@@V?$allocator@D@2@@std@@_JU?$less@V?$basic_string@DU?$char_traits@D@std@@V?$allocator@D@2@@std@@@2@V?$allocator@U?$pair@$$CBV?$basic_string@DU?$char_traits@D@std@@V?$allocator@D@2@@std@@_J@std@@@2@@2@U?$less@V?$basic_string@DU?$char_traits@D@std@@V?$allocator@D@2@@std@@@2@V?$allocator@U?$pair@$$CBV?$basic_string@DU?$char_traits@D@std@@V?$allocator@D@2@@std@@V?$map@V?$basic_string@DU?$char_traits@D@std@@V?$allocator@D@2@@std@@_JU?$less@V?$basic_string@DU?$char_traits@D@std@@V?$allocator@D@2@@std@@@2@V?$allocator@U?$pair@$$CBV?$basic_string@DU?$char_traits@D@std@@V?$allocator@D@2@@std@@_J@std@@@2@@2@@std@@@2@$0A@@std@@@std@@QAEXXZ 0042e830 f i sockets:ResolvSocket.obj
 0001:0002d8d0       ?_Dec@const_iterator@?$_Tree@V?$_Tmap_traits@V?$basic_string@DU?$char_traits@D@std@@V?$allocator@D@2@@std@@_JU?$less@V?$basic_string@DU?$char_traits@D@std@@V?$allocator@D@2@@std@@@2@V?$allocator@U?$pair@$$CBV?$basic_string@DU?$char_traits@D@std@@V?$allocator@D@2@@std@@_J@std@@@2@$0A@@std@@@std@@QAEXXZ 0042e8d0 f i sockets:ResolvSocket.obj
 0001:0002d9a0       ?_Inc@const_iterator@?$_Tree@V?$_Tmap_traits@V?$basic_string@DU?$char_traits@D@std@@V?$allocator@D@2@@std@@_JU?$less@V?$basic_string@DU?$char_traits@D@std@@V?$allocator@D@2@@std@@@2@V?$allocator@U?$pair@$$CBV?$basic_string@DU?$char_traits@D@std@@V?$allocator@D@2@@std@@_J@std@@@2@$0A@@std@@@std@@QAEXXZ 0042e9a0 f i sockets:ResolvSocket.obj
 0001:0002da40       ?erase@?$_Tree@V?$_Tmap_traits@V?$basic_string@DU?$char_traits@D@std@@V?$allocator@D@2@@std@@V12@U?$less@V?$basic_string@DU?$char_traits@D@std@@V?$allocator@D@2@@std@@@2@V?$allocator@U?$pair@$$CBV?$basic_string@DU?$char_traits@D@std@@V?$allocator@D@2@@std@@V12@@std@@@2@$0A@@std@@@std@@QAE?AViterator@12@Vconst_iterator@12@@Z 0042ea40 f i sockets:ResolvSocket.obj
 0001:0002dff0       ?clear@?$_Tree@V?$_Tmap_traits@V?$basic_string@DU?$char_traits@D@std@@V?$allocator@D@2@@std@@V12@U?$less@V?$basic_string@DU?$char_traits@D@std@@V?$allocator@D@2@@std@@@2@V?$allocator@U?$pair@$$CBV?$basic_string@DU?$char_traits@D@std@@V?$allocator@D@2@@std@@V12@@std@@@2@$0A@@std@@@std@@QAEXXZ 0042eff0 f i sockets:ResolvSocket.obj
 0001:0002e050       ?_Copy@?$_Tree@V?$_Tmap_traits@V?$basic_string@DU?$char_traits@D@std@@V?$allocator@D@2@@std@@V12@U?$less@V?$basic_string@DU?$char_traits@D@std@@V?$allocator@D@2@@std@@@2@V?$allocator@U?$pair@$$CBV?$basic_string@DU?$char_traits@D@std@@V?$allocator@D@2@@std@@V12@@std@@@2@$0A@@std@@@std@@IAEPAU_Node@?$_Tree_nod@V?$_Tmap_traits@V?$basic_string@DU?$char_traits@D@std@@V?$allocator@D@2@@std@@V12@U?$less@V?$basic_string@DU?$char_traits@D@std@@V?$allocator@D@2@@std@@@2@V?$allocator@U?$pair@$$CBV?$basic_string@DU?$char_traits@D@std@@V?$allocator@D@2@@std@@V12@@std@@@2@$0A@@std@@@2@PAU342@0@Z 0042f050 f i sockets:ResolvSocket.obj
 0001:0002e160       ?_Buynode@?$_Tree@V?$_Tmap_traits@V?$basic_string@DU?$char_traits@D@std@@V?$allocator@D@2@@std@@V12@U?$less@V?$basic_string@DU?$char_traits@D@std@@V?$allocator@D@2@@std@@@2@V?$allocator@U?$pair@$$CBV?$basic_string@DU?$char_traits@D@std@@V?$allocator@D@2@@std@@V12@@std@@@2@$0A@@std@@@std@@IAEPAU_Node@?$_Tree_nod@V?$_Tmap_traits@V?$basic_string@DU?$char_traits@D@std@@V?$allocator@D@2@@std@@V12@U?$less@V?$basic_string@DU?$char_traits@D@std@@V?$allocator@D@2@@std@@@2@V?$allocator@U?$pair@$$CBV?$basic_string@DU?$char_traits@D@std@@V?$allocator@D@2@@std@@V12@@std@@@2@$0A@@std@@@2@XZ 0042f160 f i sockets:ResolvSocket.obj
 0001:0002e2b0       ?allocate@?$allocator@U_Node@?$_Tree_nod@V?$_Tmap_traits@V?$basic_string@DU?$char_traits@D@std@@V?$allocator@D@2@@std@@V12@U?$less@V?$basic_string@DU?$char_traits@D@std@@V?$allocator@D@2@@std@@@2@V?$allocator@U?$pair@$$CBV?$basic_string@DU?$char_traits@D@std@@V?$allocator@D@2@@std@@V12@@std@@@2@$0A@@std@@@std@@@std@@QAEPAU_Node@?$_Tree_nod@V?$_Tmap_traits@V?$basic_string@DU?$char_traits@D@std@@V?$allocator@D@2@@std@@V12@U?$less@V?$basic_string@DU?$char_traits@D@std@@V?$allocator@D@2@@std@@@2@V?$allocator@U?$pair@$$CBV?$basic_string@DU?$char_traits@D@std@@V?$allocator@D@2@@std@@V12@@std@@@2@$0A@@std@@@2@I@Z 0042f2b0 f i sockets:ResolvSocket.obj
 0001:0002e2d0       ?erase@?$_Tree@V?$_Tmap_traits@V?$basic_string@DU?$char_traits@D@std@@V?$allocator@D@2@@std@@_JU?$less@V?$basic_string@DU?$char_traits@D@std@@V?$allocator@D@2@@std@@@2@V?$allocator@U?$pair@$$CBV?$basic_string@DU?$char_traits@D@std@@V?$allocator@D@2@@std@@_J@std@@@2@$0A@@std@@@std@@QAE?AViterator@12@Vconst_iterator@12@@Z 0042f2d0 f i sockets:ResolvSocket.obj
 0001:0002e8a0       ?clear@?$_Tree@V?$_Tmap_traits@V?$basic_string@DU?$char_traits@D@std@@V?$allocator@D@2@@std@@_JU?$less@V?$basic_string@DU?$char_traits@D@std@@V?$allocator@D@2@@std@@@2@V?$allocator@U?$pair@$$CBV?$basic_string@DU?$char_traits@D@std@@V?$allocator@D@2@@std@@_J@std@@@2@$0A@@std@@@std@@QAEXXZ 0042f8a0 f i sockets:ResolvSocket.obj
 0001:0002e900       ?_Copy@?$_Tree@V?$_Tmap_traits@V?$basic_string@DU?$char_traits@D@std@@V?$allocator@D@2@@std@@_JU?$less@V?$basic_string@DU?$char_traits@D@std@@V?$allocator@D@2@@std@@@2@V?$allocator@U?$pair@$$CBV?$basic_string@DU?$char_traits@D@std@@V?$allocator@D@2@@std@@_J@std@@@2@$0A@@std@@@std@@IAEPAU_Node@?$_Tree_nod@V?$_Tmap_traits@V?$basic_string@DU?$char_traits@D@std@@V?$allocator@D@2@@std@@_JU?$less@V?$basic_string@DU?$char_traits@D@std@@V?$allocator@D@2@@std@@@2@V?$allocator@U?$pair@$$CBV?$basic_string@DU?$char_traits@D@std@@V?$allocator@D@2@@std@@_J@std@@@2@$0A@@std@@@2@PAU342@0@Z 0042f900 f i sockets:ResolvSocket.obj
 0001:0002ea10       ?_Buynode@?$_Tree@V?$_Tmap_traits@V?$basic_string@DU?$char_traits@D@std@@V?$allocator@D@2@@std@@_JU?$less@V?$basic_string@DU?$char_traits@D@std@@V?$allocator@D@2@@std@@@2@V?$allocator@U?$pair@$$CBV?$basic_string@DU?$char_traits@D@std@@V?$allocator@D@2@@std@@_J@std@@@2@$0A@@std@@@std@@IAEPAU_Node@?$_Tree_nod@V?$_Tmap_traits@V?$basic_string@DU?$char_traits@D@std@@V?$allocator@D@2@@std@@_JU?$less@V?$basic_string@DU?$char_traits@D@std@@V?$allocator@D@2@@std@@@2@V?$allocator@U?$pair@$$CBV?$basic_string@DU?$char_traits@D@std@@V?$allocator@D@2@@std@@_J@std@@@2@$0A@@std@@@2@XZ 0042fa10 f i sockets:ResolvSocket.obj
 0001:0002eb60       ?allocate@?$allocator@U_Node@?$_Tree_nod@V?$_Tmap_traits@V?$basic_string@DU?$char_traits@D@std@@V?$allocator@D@2@@std@@_JU?$less@V?$basic_string@DU?$char_traits@D@std@@V?$allocator@D@2@@std@@@2@V?$allocator@U?$pair@$$CBV?$basic_string@DU?$char_traits@D@std@@V?$allocator@D@2@@std@@_J@std@@@2@$0A@@std@@@std@@@std@@QAEPAU_Node@?$_Tree_nod@V?$_Tmap_traits@V?$basic_string@DU?$char_traits@D@std@@V?$allocator@D@2@@std@@_JU?$less@V?$basic_string@DU?$char_traits@D@std@@V?$allocator@D@2@@std@@@2@V?$allocator@U?$pair@$$CBV?$basic_string@DU?$char_traits@D@std@@V?$allocator@D@2@@std@@_J@std@@@2@$0A@@std@@@2@I@Z 0042fb60 f i sockets:ResolvSocket.obj
 0001:0002eb80       ?_Erase@?$_Tree@V?$_Tmap_traits@V?$basic_string@DU?$char_traits@D@std@@V?$allocator@D@2@@std@@V12@U?$less@V?$basic_string@DU?$char_traits@D@std@@V?$allocator@D@2@@std@@@2@V?$allocator@U?$pair@$$CBV?$basic_string@DU?$char_traits@D@std@@V?$allocator@D@2@@std@@V12@@std@@@2@$0A@@std@@@std@@IAEXPAU_Node@?$_Tree_nod@V?$_Tmap_traits@V?$basic_string@DU?$char_traits@D@std@@V?$allocator@D@2@@std@@V12@U?$less@V?$basic_string@DU?$char_traits@D@std@@V?$allocator@D@2@@std@@@2@V?$allocator@U?$pair@$$CBV?$basic_string@DU?$char_traits@D@std@@V?$allocator@D@2@@std@@V12@@std@@@2@$0A@@std@@@2@@Z 0042fb80 f i sockets:ResolvSocket.obj
 0001:0002ebe0       ??0?$_Tree_nod@V?$_Tmap_traits@V?$basic_string@DU?$char_traits@D@std@@V?$allocator@D@2@@std@@V12@U?$less@V?$basic_string@DU?$char_traits@D@std@@V?$allocator@D@2@@std@@@2@V?$allocator@U?$pair@$$CBV?$basic_string@DU?$char_traits@D@std@@V?$allocator@D@2@@std@@V12@@std@@@2@$0A@@std@@@std@@IAE@ABU?$less@V?$basic_string@DU?$char_traits@D@std@@V?$allocator@D@2@@std@@@1@V?$allocator@U?$pair@$$CBV?$basic_string@DU?$char_traits@D@std@@V?$allocator@D@2@@std@@V12@@std@@@1@@Z 0042fbe0 f i sockets:ResolvSocket.obj
 0001:0002ec20       ?_Erase@?$_Tree@V?$_Tmap_traits@V?$basic_string@DU?$char_traits@D@std@@V?$allocator@D@2@@std@@_JU?$less@V?$basic_string@DU?$char_traits@D@std@@V?$allocator@D@2@@std@@@2@V?$allocator@U?$pair@$$CBV?$basic_string@DU?$char_traits@D@std@@V?$allocator@D@2@@std@@_J@std@@@2@$0A@@std@@@std@@IAEXPAU_Node@?$_Tree_nod@V?$_Tmap_traits@V?$basic_string@DU?$char_traits@D@std@@V?$allocator@D@2@@std@@_JU?$less@V?$basic_string@DU?$char_traits@D@std@@V?$allocator@D@2@@std@@@2@V?$allocator@U?$pair@$$CBV?$basic_string@DU?$char_traits@D@std@@V?$allocator@D@2@@std@@_J@std@@@2@$0A@@std@@@2@@Z 0042fc20 f i sockets:ResolvSocket.obj
 0001:0002eca0       ??0?$_Tree_nod@V?$_Tmap_traits@V?$basic_string@DU?$char_traits@D@std@@V?$allocator@D@2@@std@@_JU?$less@V?$basic_string@DU?$char_traits@D@std@@V?$allocator@D@2@@std@@@2@V?$allocator@U?$pair@$$CBV?$basic_string@DU?$char_traits@D@std@@V?$allocator@D@2@@std@@_J@std@@@2@$0A@@std@@@std@@IAE@ABU?$less@V?$basic_string@DU?$char_traits@D@std@@V?$allocator@D@2@@std@@@1@V?$allocator@U?$pair@$$CBV?$basic_string@DU?$char_traits@D@std@@V?$allocator@D@2@@std@@_J@std@@@1@@Z 0042fca0 f i sockets:ResolvSocket.obj
 0001:0002ece0       ??0?$_Tmap_traits@V?$basic_string@DU?$char_traits@D@std@@V?$allocator@D@2@@std@@V12@U?$less@V?$basic_string@DU?$char_traits@D@std@@V?$allocator@D@2@@std@@@2@V?$allocator@U?$pair@$$CBV?$basic_string@DU?$char_traits@D@std@@V?$allocator@D@2@@std@@V12@@std@@@2@$0A@@std@@QAE@U?$less@V?$basic_string@DU?$char_traits@D@std@@V?$allocator@D@2@@std@@@1@V?$allocator@U?$pair@$$CBV?$basic_string@DU?$char_traits@D@std@@V?$allocator@D@2@@std@@V12@@std@@@1@@Z 0042fce0 f i sockets:ResolvSocket.obj
 0001:0002ed00       ??0?$_Tmap_traits@V?$basic_string@DU?$char_traits@D@std@@V?$allocator@D@2@@std@@_JU?$less@V?$basic_string@DU?$char_traits@D@std@@V?$allocator@D@2@@std@@@2@V?$allocator@U?$pair@$$CBV?$basic_string@DU?$char_traits@D@std@@V?$allocator@D@2@@std@@_J@std@@@2@$0A@@std@@QAE@U?$less@V?$basic_string@DU?$char_traits@D@std@@V?$allocator@D@2@@std@@@1@V?$allocator@U?$pair@$$CBV?$basic_string@DU?$char_traits@D@std@@V?$allocator@D@2@@std@@_J@std@@@1@@Z 0042fd00 f i sockets:ResolvSocket.obj
 0001:0002ed20       ??$_Allocate@U_Node@?$_Tree_nod@V?$_Tmap_traits@V?$basic_string@DU?$char_traits@D@std@@V?$allocator@D@2@@std@@V?$map@V?$basic_string@DU?$char_traits@D@std@@V?$allocator@D@2@@std@@V12@U?$less@V?$basic_string@DU?$char_traits@D@std@@V?$allocator@D@2@@std@@@2@V?$allocator@U?$pair@$$CBV?$basic_string@DU?$char_traits@D@std@@V?$allocator@D@2@@std@@V12@@std@@@2@@2@U?$less@V?$basic_string@DU?$char_traits@D@std@@V?$allocator@D@2@@std@@@2@V?$allocator@U?$pair@$$CBV?$basic_string@DU?$char_traits@D@std@@V?$allocator@D@2@@std@@V?$map@V?$basic_string@DU?$char_traits@D@std@@V?$allocator@D@2@@std@@V12@U?$less@V?$basic_string@DU?$char_traits@D@std@@V?$allocator@D@2@@std@@@2@V?$allocator@U?$pair@$$CBV?$basic_string@DU?$char_traits@D@std@@V?$allocator@D@2@@std@@V12@@std@@@2@@2@@std@@@2@$0A@@std@@@std@@@std@@YAPAU_Node@?$_Tree_nod@V?$_Tmap_traits@V?$basic_string@DU?$char_traits@D@std@@V?$allocator@D@2@@std@@V?$map@V?$basic_string@DU?$char_traits@D@std@@V?$allocator@D@2@@std@@V12@U?$less@V?$basic_string@DU?$char_traits@D@std@@V?$allocator@D@2@@std@@@2@V?$allocator@U?$pair@$$CBV?$basic_string@DU?$char_traits@D@std@@V?$allocator@D@2@@std@@V12@@std@@@2@@2@U?$less@V?$basic_string@DU?$char_traits@D@std@@V?$allocator@D@2@@std@@@2@V?$allocator@U?$pair@$$CBV?$basic_string@DU?$char_traits@D@std@@V?$allocator@D@2@@std@@V?$map@V?$basic_string@DU?$char_traits@D@std@@V?$allocator@D@2@@std@@V12@U?$less@V?$basic_string@DU?$char_traits@D@std@@V?$allocator@D@2@@std@@@2@V?$allocator@U?$pair@$$CBV?$basic_string@DU?$char_traits@D@std@@V?$allocator@D@2@@std@@V12@@std@@@2@@2@@std@@@2@$0A@@std@@@0@IPAU120@@Z 0042fd20 f i sockets:ResolvSocket.obj
 0001:0002ed80       ??$_Allocate@U_Node@?$_Tree_nod@V?$_Tmap_traits@V?$basic_string@DU?$char_traits@D@std@@V?$allocator@D@2@@std@@V?$map@V?$basic_string@DU?$char_traits@D@std@@V?$allocator@D@2@@std@@_JU?$less@V?$basic_string@DU?$char_traits@D@std@@V?$allocator@D@2@@std@@@2@V?$allocator@U?$pair@$$CBV?$basic_string@DU?$char_traits@D@std@@V?$allocator@D@2@@std@@_J@std@@@2@@2@U?$less@V?$basic_string@DU?$char_traits@D@std@@V?$allocator@D@2@@std@@@2@V?$allocator@U?$pair@$$CBV?$basic_string@DU?$char_traits@D@std@@V?$allocator@D@2@@std@@V?$map@V?$basic_string@DU?$char_traits@D@std@@V?$allocator@D@2@@std@@_JU?$less@V?$basic_string@DU?$char_traits@D@std@@V?$allocator@D@2@@std@@@2@V?$allocator@U?$pair@$$CBV?$basic_string@DU?$char_traits@D@std@@V?$allocator@D@2@@std@@_J@std@@@2@@2@@std@@@2@$0A@@std@@@std@@@std@@YAPAU_Node@?$_Tree_nod@V?$_Tmap_traits@V?$basic_string@DU?$char_traits@D@std@@V?$allocator@D@2@@std@@V?$map@V?$basic_string@DU?$char_traits@D@std@@V?$allocator@D@2@@std@@_JU?$less@V?$basic_string@DU?$char_traits@D@std@@V?$allocator@D@2@@std@@@2@V?$allocator@U?$pair@$$CBV?$basic_string@DU?$char_traits@D@std@@V?$allocator@D@2@@std@@_J@std@@@2@@2@U?$less@V?$basic_string@DU?$char_traits@D@std@@V?$allocator@D@2@@std@@@2@V?$allocator@U?$pair@$$CBV?$basic_string@DU?$char_traits@D@std@@V?$allocator@D@2@@std@@V?$map@V?$basic_string@DU?$char_traits@D@std@@V?$allocator@D@2@@std@@_JU?$less@V?$basic_string@DU?$char_traits@D@std@@V?$allocator@D@2@@std@@@2@V?$allocator@U?$pair@$$CBV?$basic_string@DU?$char_traits@D@std@@V?$allocator@D@2@@std@@_J@std@@@2@@2@@std@@@2@$0A@@std@@@0@IPAU120@@Z 0042fd80 f i sockets:ResolvSocket.obj
 0001:0002ede0       ??$_Allocate@U_Node@?$_Tree_nod@V?$_Tmap_traits@V?$basic_string@DU?$char_traits@D@std@@V?$allocator@D@2@@std@@V12@U?$less@V?$basic_string@DU?$char_traits@D@std@@V?$allocator@D@2@@std@@@2@V?$allocator@U?$pair@$$CBV?$basic_string@DU?$char_traits@D@std@@V?$allocator@D@2@@std@@V12@@std@@@2@$0A@@std@@@std@@@std@@YAPAU_Node@?$_Tree_nod@V?$_Tmap_traits@V?$basic_string@DU?$char_traits@D@std@@V?$allocator@D@2@@std@@V12@U?$less@V?$basic_string@DU?$char_traits@D@std@@V?$allocator@D@2@@std@@@2@V?$allocator@U?$pair@$$CBV?$basic_string@DU?$char_traits@D@std@@V?$allocator@D@2@@std@@V12@@std@@@2@$0A@@std@@@0@IPAU120@@Z 0042fde0 f i sockets:ResolvSocket.obj
 0001:0002ee40       ??$_Allocate@U_Node@?$_Tree_nod@V?$_Tmap_traits@V?$basic_string@DU?$char_traits@D@std@@V?$allocator@D@2@@std@@_JU?$less@V?$basic_string@DU?$char_traits@D@std@@V?$allocator@D@2@@std@@@2@V?$allocator@U?$pair@$$CBV?$basic_string@DU?$char_traits@D@std@@V?$allocator@D@2@@std@@_J@std@@@2@$0A@@std@@@std@@@std@@YAPAU_Node@?$_Tree_nod@V?$_Tmap_traits@V?$basic_string@DU?$char_traits@D@std@@V?$allocator@D@2@@std@@_JU?$less@V?$basic_string@DU?$char_traits@D@std@@V?$allocator@D@2@@std@@@2@V?$allocator@U?$pair@$$CBV?$basic_string@DU?$char_traits@D@std@@V?$allocator@D@2@@std@@_J@std@@@2@$0A@@std@@@0@IPAU120@@Z 0042fe40 f i sockets:ResolvSocket.obj
 0001:0002eea0       ??$_Destroy@U_Node@?$_Tree_nod@V?$_Tmap_traits@V?$basic_string@DU?$char_traits@D@std@@V?$allocator@D@2@@std@@V12@U?$less@V?$basic_string@DU?$char_traits@D@std@@V?$allocator@D@2@@std@@@2@V?$allocator@U?$pair@$$CBV?$basic_string@DU?$char_traits@D@std@@V?$allocator@D@2@@std@@V12@@std@@@2@$0A@@std@@@std@@@std@@YAXPAU_Node@?$_Tree_nod@V?$_Tmap_traits@V?$basic_string@DU?$char_traits@D@std@@V?$allocator@D@2@@std@@V12@U?$less@V?$basic_string@DU?$char_traits@D@std@@V?$allocator@D@2@@std@@@2@V?$allocator@U?$pair@$$CBV?$basic_string@DU?$char_traits@D@std@@V?$allocator@D@2@@std@@V12@@std@@@2@$0A@@std@@@0@@Z 0042fea0 f i sockets:ResolvSocket.obj
 0001:0002ef20       ??0?$_Tree@V?$_Tmap_traits@V?$basic_string@DU?$char_traits@D@std@@V?$allocator@D@2@@std@@V?$map@V?$basic_string@DU?$char_traits@D@std@@V?$allocator@D@2@@std@@V12@U?$less@V?$basic_string@DU?$char_traits@D@std@@V?$allocator@D@2@@std@@@2@V?$allocator@U?$pair@$$CBV?$basic_string@DU?$char_traits@D@std@@V?$allocator@D@2@@std@@V12@@std@@@2@@2@U?$less@V?$basic_string@DU?$char_traits@D@std@@V?$allocator@D@2@@std@@@2@V?$allocator@U?$pair@$$CBV?$basic_string@DU?$char_traits@D@std@@V?$allocator@D@2@@std@@V?$map@V?$basic_string@DU?$char_traits@D@std@@V?$allocator@D@2@@std@@V12@U?$less@V?$basic_string@DU?$char_traits@D@std@@V?$allocator@D@2@@std@@@2@V?$allocator@U?$pair@$$CBV?$basic_string@DU?$char_traits@D@std@@V?$allocator@D@2@@std@@V12@@std@@@2@@2@@std@@@2@$0A@@std@@@std@@QAE@ABU?$less@V?$basic_string@DU?$char_traits@D@std@@V?$allocator@D@2@@std@@@1@ABV?$allocator@U?$pair@$$CBV?$basic_string@DU?$char_traits@D@std@@V?$allocator@D@2@@std@@V?$map@V?$basic_string@DU?$char_traits@D@std@@V?$allocator@D@2@@std@@V12@U?$less@V?$basic_string@DU?$char_traits@D@std@@V?$allocator@D@2@@std@@@2@V?$allocator@U?$pair@$$CBV?$basic_string@DU?$char_traits@D@std@@V?$allocator@D@2@@std@@V12@@std@@@2@@2@@std@@@1@@Z 0042ff20 f i sockets:ResolvSocket.obj
 0001:0002efc0       ??1?$_Tree_val@V?$_Tmap_traits@V?$basic_string@DU?$char_traits@D@std@@V?$allocator@D@2@@std@@V?$map@V?$basic_string@DU?$char_traits@D@std@@V?$allocator@D@2@@std@@V12@U?$less@V?$basic_string@DU?$char_traits@D@std@@V?$allocator@D@2@@std@@@2@V?$allocator@U?$pair@$$CBV?$basic_string@DU?$char_traits@D@std@@V?$allocator@D@2@@std@@V12@@std@@@2@@2@U?$less@V?$basic_string@DU?$char_traits@D@std@@V?$allocator@D@2@@std@@@2@V?$allocator@U?$pair@$$CBV?$basic_string@DU?$char_traits@D@std@@V?$allocator@D@2@@std@@V?$map@V?$basic_string@DU?$char_traits@D@std@@V?$allocator@D@2@@std@@V12@U?$less@V?$basic_string@DU?$char_traits@D@std@@V?$allocator@D@2@@std@@@2@V?$allocator@U?$pair@$$CBV?$basic_string@DU?$char_traits@D@std@@V?$allocator@D@2@@std@@V12@@std@@@2@@2@@std@@@2@$0A@@std@@@std@@QAE@XZ 0042ffc0 f i sockets:ResolvSocket.obj
 0001:0002efd0       ?_Init@?$_Tree@V?$_Tmap_traits@V?$basic_string@DU?$char_traits@D@std@@V?$allocator@D@2@@std@@V?$map@V?$basic_string@DU?$char_traits@D@std@@V?$allocator@D@2@@std@@V12@U?$less@V?$basic_string@DU?$char_traits@D@std@@V?$allocator@D@2@@std@@@2@V?$allocator@U?$pair@$$CBV?$basic_string@DU?$char_traits@D@std@@V?$allocator@D@2@@std@@V12@@std@@@2@@2@U?$less@V?$basic_string@DU?$char_traits@D@std@@V?$allocator@D@2@@std@@@2@V?$allocator@U?$pair@$$CBV?$basic_string@DU?$char_traits@D@std@@V?$allocator@D@2@@std@@V?$map@V?$basic_string@DU?$char_traits@D@std@@V?$allocator@D@2@@std@@V12@U?$less@V?$basic_string@DU?$char_traits@D@std@@V?$allocator@D@2@@std@@@2@V?$allocator@U?$pair@$$CBV?$basic_string@DU?$char_traits@D@std@@V?$allocator@D@2@@std@@V12@@std@@@2@@2@@std@@@2@$0A@@std@@@std@@IAEXXZ 0042ffd0 f i sockets:ResolvSocket.obj
 0001:0002f040       ?_Buynode@?$_Tree@V?$_Tmap_traits@V?$basic_string@DU?$char_traits@D@std@@V?$allocator@D@2@@std@@V?$map@V?$basic_string@DU?$char_traits@D@std@@V?$allocator@D@2@@std@@V12@U?$less@V?$basic_string@DU?$char_traits@D@std@@V?$allocator@D@2@@std@@@2@V?$allocator@U?$pair@$$CBV?$basic_string@DU?$char_traits@D@std@@V?$allocator@D@2@@std@@V12@@std@@@2@@2@U?$less@V?$basic_string@DU?$char_traits@D@std@@V?$allocator@D@2@@std@@@2@V?$allocator@U?$pair@$$CBV?$basic_string@DU?$char_traits@D@std@@V?$allocator@D@2@@std@@V?$map@V?$basic_string@DU?$char_traits@D@std@@V?$allocator@D@2@@std@@V12@U?$less@V?$basic_string@DU?$char_traits@D@std@@V?$allocator@D@2@@std@@@2@V?$allocator@U?$pair@$$CBV?$basic_string@DU?$char_traits@D@std@@V?$allocator@D@2@@std@@V12@@std@@@2@@2@@std@@@2@$0A@@std@@@std@@IAEPAU_Node@?$_Tree_nod@V?$_Tmap_traits@V?$basic_string@DU?$char_traits@D@std@@V?$allocator@D@2@@std@@V?$map@V?$basic_string@DU?$char_traits@D@std@@V?$allocator@D@2@@std@@V12@U?$less@V?$basic_string@DU?$char_traits@D@std@@V?$allocator@D@2@@std@@@2@V?$allocator@U?$pair@$$CBV?$basic_string@DU?$char_traits@D@std@@V?$allocator@D@2@@std@@V12@@std@@@2@@2@U?$less@V?$basic_string@DU?$char_traits@D@std@@V?$allocator@D@2@@std@@@2@V?$allocator@U?$pair@$$CBV?$basic_string@DU?$char_traits@D@std@@V?$allocator@D@2@@std@@V?$map@V?$basic_string@DU?$char_traits@D@std@@V?$allocator@D@2@@std@@V12@U?$less@V?$basic_string@DU?$char_traits@D@std@@V?$allocator@D@2@@std@@@2@V?$allocator@U?$pair@$$CBV?$basic_string@DU?$char_traits@D@std@@V?$allocator@D@2@@std@@V12@@std@@@2@@2@@std@@@2@$0A@@std@@@2@XZ 00430040 f i sockets:ResolvSocket.obj
 0001:0002f190       ?allocate@?$allocator@U_Node@?$_Tree_nod@V?$_Tmap_traits@V?$basic_string@DU?$char_traits@D@std@@V?$allocator@D@2@@std@@V?$map@V?$basic_string@DU?$char_traits@D@std@@V?$allocator@D@2@@std@@V12@U?$less@V?$basic_string@DU?$char_traits@D@std@@V?$allocator@D@2@@std@@@2@V?$allocator@U?$pair@$$CBV?$basic_string@DU?$char_traits@D@std@@V?$allocator@D@2@@std@@V12@@std@@@2@@2@U?$less@V?$basic_string@DU?$char_traits@D@std@@V?$allocator@D@2@@std@@@2@V?$allocator@U?$pair@$$CBV?$basic_string@DU?$char_traits@D@std@@V?$allocator@D@2@@std@@V?$map@V?$basic_string@DU?$char_traits@D@std@@V?$allocator@D@2@@std@@V12@U?$less@V?$basic_string@DU?$char_traits@D@std@@V?$allocator@D@2@@std@@@2@V?$allocator@U?$pair@$$CBV?$basic_string@DU?$char_traits@D@std@@V?$allocator@D@2@@std@@V12@@std@@@2@@2@@std@@@2@$0A@@std@@@std@@@std@@QAEPAU_Node@?$_Tree_nod@V?$_Tmap_traits@V?$basic_string@DU?$char_traits@D@std@@V?$allocator@D@2@@std@@V?$map@V?$basic_string@DU?$char_traits@D@std@@V?$allocator@D@2@@std@@V12@U?$less@V?$basic_string@DU?$char_traits@D@std@@V?$allocator@D@2@@std@@@2@V?$allocator@U?$pair@$$CBV?$basic_string@DU?$char_traits@D@std@@V?$allocator@D@2@@std@@V12@@std@@@2@@2@U?$less@V?$basic_string@DU?$char_traits@D@std@@V?$allocator@D@2@@std@@@2@V?$allocator@U?$pair@$$CBV?$basic_string@DU?$char_traits@D@std@@V?$allocator@D@2@@std@@V?$map@V?$basic_string@DU?$char_traits@D@std@@V?$allocator@D@2@@std@@V12@U?$less@V?$basic_string@DU?$char_traits@D@std@@V?$allocator@D@2@@std@@@2@V?$allocator@U?$pair@$$CBV?$basic_string@DU?$char_traits@D@std@@V?$allocator@D@2@@std@@V12@@std@@@2@@2@@std@@@2@$0A@@std@@@2@I@Z 00430190 f i sockets:ResolvSocket.obj
 0001:0002f1b0       ??0?$_Tmap_traits@V?$basic_string@DU?$char_traits@D@std@@V?$allocator@D@2@@std@@V?$map@V?$basic_string@DU?$char_traits@D@std@@V?$allocator@D@2@@std@@V12@U?$less@V?$basic_string@DU?$char_traits@D@std@@V?$allocator@D@2@@std@@@2@V?$allocator@U?$pair@$$CBV?$basic_string@DU?$char_traits@D@std@@V?$allocator@D@2@@std@@V12@@std@@@2@@2@U?$less@V?$basic_string@DU?$char_traits@D@std@@V?$allocator@D@2@@std@@@2@V?$allocator@U?$pair@$$CBV?$basic_string@DU?$char_traits@D@std@@V?$allocator@D@2@@std@@V?$map@V?$basic_string@DU?$char_traits@D@std@@V?$allocator@D@2@@std@@V12@U?$less@V?$basic_string@DU?$char_traits@D@std@@V?$allocator@D@2@@std@@@2@V?$allocator@U?$pair@$$CBV?$basic_string@DU?$char_traits@D@std@@V?$allocator@D@2@@std@@V12@@std@@@2@@2@@std@@@2@$0A@@std@@QAE@U?$less@V?$basic_string@DU?$char_traits@D@std@@V?$allocator@D@2@@std@@@1@V?$allocator@U?$pair@$$CBV?$basic_string@DU?$char_traits@D@std@@V?$allocator@D@2@@std@@V?$map@V?$basic_string@DU?$char_traits@D@std@@V?$allocator@D@2@@std@@V12@U?$less@V?$basic_string@DU?$char_traits@D@std@@V?$allocator@D@2@@std@@@2@V?$allocator@U?$pair@$$CBV?$basic_string@DU?$char_traits@D@std@@V?$allocator@D@2@@std@@V12@@std@@@2@@2@@std@@@1@@Z 004301b0 f i sockets:ResolvSocket.obj
 0001:0002f1d0       ??0?$_Tree@V?$_Tmap_traits@V?$basic_string@DU?$char_traits@D@std@@V?$allocator@D@2@@std@@V?$map@V?$basic_string@DU?$char_traits@D@std@@V?$allocator@D@2@@std@@_JU?$less@V?$basic_string@DU?$char_traits@D@std@@V?$allocator@D@2@@std@@@2@V?$allocator@U?$pair@$$CBV?$basic_string@DU?$char_traits@D@std@@V?$allocator@D@2@@std@@_J@std@@@2@@2@U?$less@V?$basic_string@DU?$char_traits@D@std@@V?$allocator@D@2@@std@@@2@V?$allocator@U?$pair@$$CBV?$basic_string@DU?$char_traits@D@std@@V?$allocator@D@2@@std@@V?$map@V?$basic_string@DU?$char_traits@D@std@@V?$allocator@D@2@@std@@_JU?$less@V?$basic_string@DU?$char_traits@D@std@@V?$allocator@D@2@@std@@@2@V?$allocator@U?$pair@$$CBV?$basic_string@DU?$char_traits@D@std@@V?$allocator@D@2@@std@@_J@std@@@2@@2@@std@@@2@$0A@@std@@@std@@QAE@ABU?$less@V?$basic_string@DU?$char_traits@D@std@@V?$allocator@D@2@@std@@@1@ABV?$allocator@U?$pair@$$CBV?$basic_string@DU?$char_traits@D@std@@V?$allocator@D@2@@std@@V?$map@V?$basic_string@DU?$char_traits@D@std@@V?$allocator@D@2@@std@@_JU?$less@V?$basic_string@DU?$char_traits@D@std@@V?$allocator@D@2@@std@@@2@V?$allocator@U?$pair@$$CBV?$basic_string@DU?$char_traits@D@std@@V?$allocator@D@2@@std@@_J@std@@@2@@2@@std@@@1@@Z 004301d0 f i sockets:ResolvSocket.obj
 0001:0002f270       ??1?$_Tree_val@V?$_Tmap_traits@V?$basic_string@DU?$char_traits@D@std@@V?$allocator@D@2@@std@@V?$map@V?$basic_string@DU?$char_traits@D@std@@V?$allocator@D@2@@std@@_JU?$less@V?$basic_string@DU?$char_traits@D@std@@V?$allocator@D@2@@std@@@2@V?$allocator@U?$pair@$$CBV?$basic_string@DU?$char_traits@D@std@@V?$allocator@D@2@@std@@_J@std@@@2@@2@U?$less@V?$basic_string@DU?$char_traits@D@std@@V?$allocator@D@2@@std@@@2@V?$allocator@U?$pair@$$CBV?$basic_string@DU?$char_traits@D@std@@V?$allocator@D@2@@std@@V?$map@V?$basic_string@DU?$char_traits@D@std@@V?$allocator@D@2@@std@@_JU?$less@V?$basic_string@DU?$char_traits@D@std@@V?$allocator@D@2@@std@@@2@V?$allocator@U?$pair@$$CBV?$basic_string@DU?$char_traits@D@std@@V?$allocator@D@2@@std@@_J@std@@@2@@2@@std@@@2@$0A@@std@@@std@@QAE@XZ 00430270 f i sockets:ResolvSocket.obj
 0001:0002f280       ?_Init@?$_Tree@V?$_Tmap_traits@V?$basic_string@DU?$char_traits@D@std@@V?$allocator@D@2@@std@@V?$map@V?$basic_string@DU?$char_traits@D@std@@V?$allocator@D@2@@std@@_JU?$less@V?$basic_string@DU?$char_traits@D@std@@V?$allocator@D@2@@std@@@2@V?$allocator@U?$pair@$$CBV?$basic_string@DU?$char_traits@D@std@@V?$allocator@D@2@@std@@_J@std@@@2@@2@U?$less@V?$basic_string@DU?$char_traits@D@std@@V?$allocator@D@2@@std@@@2@V?$allocator@U?$pair@$$CBV?$basic_string@DU?$char_traits@D@std@@V?$allocator@D@2@@std@@V?$map@V?$basic_string@DU?$char_traits@D@std@@V?$allocator@D@2@@std@@_JU?$less@V?$basic_string@DU?$char_traits@D@std@@V?$allocator@D@2@@std@@@2@V?$allocator@U?$pair@$$CBV?$basic_string@DU?$char_traits@D@std@@V?$allocator@D@2@@std@@_J@std@@@2@@2@@std@@@2@$0A@@std@@@std@@IAEXXZ 00430280 f i sockets:ResolvSocket.obj
 0001:0002f2f0       ?_Buynode@?$_Tree@V?$_Tmap_traits@V?$basic_string@DU?$char_traits@D@std@@V?$allocator@D@2@@std@@V?$map@V?$basic_string@DU?$char_traits@D@std@@V?$allocator@D@2@@std@@_JU?$less@V?$basic_string@DU?$char_traits@D@std@@V?$allocator@D@2@@std@@@2@V?$allocator@U?$pair@$$CBV?$basic_string@DU?$char_traits@D@std@@V?$allocator@D@2@@std@@_J@std@@@2@@2@U?$less@V?$basic_string@DU?$char_traits@D@std@@V?$allocator@D@2@@std@@@2@V?$allocator@U?$pair@$$CBV?$basic_string@DU?$char_traits@D@std@@V?$allocator@D@2@@std@@V?$map@V?$basic_string@DU?$char_traits@D@std@@V?$allocator@D@2@@std@@_JU?$less@V?$basic_string@DU?$char_traits@D@std@@V?$allocator@D@2@@std@@@2@V?$allocator@U?$pair@$$CBV?$basic_string@DU?$char_traits@D@std@@V?$allocator@D@2@@std@@_J@std@@@2@@2@@std@@@2@$0A@@std@@@std@@IAEPAU_Node@?$_Tree_nod@V?$_Tmap_traits@V?$basic_string@DU?$char_traits@D@std@@V?$allocator@D@2@@std@@V?$map@V?$basic_string@DU?$char_traits@D@std@@V?$allocator@D@2@@std@@_JU?$less@V?$basic_string@DU?$char_traits@D@std@@V?$allocator@D@2@@std@@@2@V?$allocator@U?$pair@$$CBV?$basic_string@DU?$char_traits@D@std@@V?$allocator@D@2@@std@@_J@std@@@2@@2@U?$less@V?$basic_string@DU?$char_traits@D@std@@V?$allocator@D@2@@std@@@2@V?$allocator@U?$pair@$$CBV?$basic_string@DU?$char_traits@D@std@@V?$allocator@D@2@@std@@V?$map@V?$basic_string@DU?$char_traits@D@std@@V?$allocator@D@2@@std@@_JU?$less@V?$basic_string@DU?$char_traits@D@std@@V?$allocator@D@2@@std@@@2@V?$allocator@U?$pair@$$CBV?$basic_string@DU?$char_traits@D@std@@V?$allocator@D@2@@std@@_J@std@@@2@@2@@std@@@2@$0A@@std@@@2@XZ 004302f0 f i sockets:ResolvSocket.obj
 0001:0002f440       ?allocate@?$allocator@U_Node@?$_Tree_nod@V?$_Tmap_traits@V?$basic_string@DU?$char_traits@D@std@@V?$allocator@D@2@@std@@V?$map@V?$basic_string@DU?$char_traits@D@std@@V?$allocator@D@2@@std@@_JU?$less@V?$basic_string@DU?$char_traits@D@std@@V?$allocator@D@2@@std@@@2@V?$allocator@U?$pair@$$CBV?$basic_string@DU?$char_traits@D@std@@V?$allocator@D@2@@std@@_J@std@@@2@@2@U?$less@V?$basic_string@DU?$char_traits@D@std@@V?$allocator@D@2@@std@@@2@V?$allocator@U?$pair@$$CBV?$basic_string@DU?$char_traits@D@std@@V?$allocator@D@2@@std@@V?$map@V?$basic_string@DU?$char_traits@D@std@@V?$allocator@D@2@@std@@_JU?$less@V?$basic_string@DU?$char_traits@D@std@@V?$allocator@D@2@@std@@@2@V?$allocator@U?$pair@$$CBV?$basic_string@DU?$char_traits@D@std@@V?$allocator@D@2@@std@@_J@std@@@2@@2@@std@@@2@$0A@@std@@@std@@@std@@QAEPAU_Node@?$_Tree_nod@V?$_Tmap_traits@V?$basic_string@DU?$char_traits@D@std@@V?$allocator@D@2@@std@@V?$map@V?$basic_string@DU?$char_traits@D@std@@V?$allocator@D@2@@std@@_JU?$less@V?$basic_string@DU?$char_traits@D@std@@V?$allocator@D@2@@std@@@2@V?$allocator@U?$pair@$$CBV?$basic_string@DU?$char_traits@D@std@@V?$allocator@D@2@@std@@_J@std@@@2@@2@U?$less@V?$basic_string@DU?$char_traits@D@std@@V?$allocator@D@2@@std@@@2@V?$allocator@U?$pair@$$CBV?$basic_string@DU?$char_traits@D@std@@V?$allocator@D@2@@std@@V?$map@V?$basic_string@DU?$char_traits@D@std@@V?$allocator@D@2@@std@@_JU?$less@V?$basic_string@DU?$char_traits@D@std@@V?$allocator@D@2@@std@@@2@V?$allocator@U?$pair@$$CBV?$basic_string@DU?$char_traits@D@std@@V?$allocator@D@2@@std@@_J@std@@@2@@2@@std@@@2@$0A@@std@@@2@I@Z 00430440 f i sockets:ResolvSocket.obj
 0001:0002f460       ??0?$_Tmap_traits@V?$basic_string@DU?$char_traits@D@std@@V?$allocator@D@2@@std@@V?$map@V?$basic_string@DU?$char_traits@D@std@@V?$allocator@D@2@@std@@_JU?$less@V?$basic_string@DU?$char_traits@D@std@@V?$allocator@D@2@@std@@@2@V?$allocator@U?$pair@$$CBV?$basic_string@DU?$char_traits@D@std@@V?$allocator@D@2@@std@@_J@std@@@2@@2@U?$less@V?$basic_string@DU?$char_traits@D@std@@V?$allocator@D@2@@std@@@2@V?$allocator@U?$pair@$$CBV?$basic_string@DU?$char_traits@D@std@@V?$allocator@D@2@@std@@V?$map@V?$basic_string@DU?$char_traits@D@std@@V?$allocator@D@2@@std@@_JU?$less@V?$basic_string@DU?$char_traits@D@std@@V?$allocator@D@2@@std@@@2@V?$allocator@U?$pair@$$CBV?$basic_string@DU?$char_traits@D@std@@V?$allocator@D@2@@std@@_J@std@@@2@@2@@std@@@2@$0A@@std@@QAE@U?$less@V?$basic_string@DU?$char_traits@D@std@@V?$allocator@D@2@@std@@@1@V?$allocator@U?$pair@$$CBV?$basic_string@DU?$char_traits@D@std@@V?$allocator@D@2@@std@@V?$map@V?$basic_string@DU?$char_traits@D@std@@V?$allocator@D@2@@std@@_JU?$less@V?$basic_string@DU?$char_traits@D@std@@V?$allocator@D@2@@std@@@2@V?$allocator@U?$pair@$$CBV?$basic_string@DU?$char_traits@D@std@@V?$allocator@D@2@@std@@_J@std@@@2@@2@@std@@@1@@Z 00430460 f i sockets:ResolvSocket.obj
 0001:0002f480       ?_Tidy@?$_Tree@V?$_Tmap_traits@V?$basic_string@DU?$char_traits@D@std@@V?$allocator@D@2@@std@@V?$map@V?$basic_string@DU?$char_traits@D@std@@V?$allocator@D@2@@std@@V12@U?$less@V?$basic_string@DU?$char_traits@D@std@@V?$allocator@D@2@@std@@@2@V?$allocator@U?$pair@$$CBV?$basic_string@DU?$char_traits@D@std@@V?$allocator@D@2@@std@@V12@@std@@@2@@2@U?$less@V?$basic_string@DU?$char_traits@D@std@@V?$allocator@D@2@@std@@@2@V?$allocator@U?$pair@$$CBV?$basic_string@DU?$char_traits@D@std@@V?$allocator@D@2@@std@@V?$map@V?$basic_string@DU?$char_traits@D@std@@V?$allocator@D@2@@std@@V12@U?$less@V?$basic_string@DU?$char_traits@D@std@@V?$allocator@D@2@@std@@@2@V?$allocator@U?$pair@$$CBV?$basic_string@DU?$char_traits@D@std@@V?$allocator@D@2@@std@@V12@@std@@@2@@2@@std@@@2@$0A@@std@@@std@@IAEXXZ 00430480 f i sockets:ResolvSocket.obj
 0001:0002f510       ?erase@?$_Tree@V?$_Tmap_traits@V?$basic_string@DU?$char_traits@D@std@@V?$allocator@D@2@@std@@V?$map@V?$basic_string@DU?$char_traits@D@std@@V?$allocator@D@2@@std@@V12@U?$less@V?$basic_string@DU?$char_traits@D@std@@V?$allocator@D@2@@std@@@2@V?$allocator@U?$pair@$$CBV?$basic_string@DU?$char_traits@D@std@@V?$allocator@D@2@@std@@V12@@std@@@2@@2@U?$less@V?$basic_string@DU?$char_traits@D@std@@V?$allocator@D@2@@std@@@2@V?$allocator@U?$pair@$$CBV?$basic_string@DU?$char_traits@D@std@@V?$allocator@D@2@@std@@V?$map@V?$basic_string@DU?$char_traits@D@std@@V?$allocator@D@2@@std@@V12@U?$less@V?$basic_string@DU?$char_traits@D@std@@V?$allocator@D@2@@std@@@2@V?$allocator@U?$pair@$$CBV?$basic_string@DU?$char_traits@D@std@@V?$allocator@D@2@@std@@V12@@std@@@2@@2@@std@@@2@$0A@@std@@@std@@QAE?AViterator@12@Vconst_iterator@12@0@Z 00430510 f i sockets:ResolvSocket.obj
 0001:0002f5f0       ?erase@?$_Tree@V?$_Tmap_traits@V?$basic_string@DU?$char_traits@D@std@@V?$allocator@D@2@@std@@V?$map@V?$basic_string@DU?$char_traits@D@std@@V?$allocator@D@2@@std@@V12@U?$less@V?$basic_string@DU?$char_traits@D@std@@V?$allocator@D@2@@std@@@2@V?$allocator@U?$pair@$$CBV?$basic_string@DU?$char_traits@D@std@@V?$allocator@D@2@@std@@V12@@std@@@2@@2@U?$less@V?$basic_string@DU?$char_traits@D@std@@V?$allocator@D@2@@std@@@2@V?$allocator@U?$pair@$$CBV?$basic_string@DU?$char_traits@D@std@@V?$allocator@D@2@@std@@V?$map@V?$basic_string@DU?$char_traits@D@std@@V?$allocator@D@2@@std@@V12@U?$less@V?$basic_string@DU?$char_traits@D@std@@V?$allocator@D@2@@std@@@2@V?$allocator@U?$pair@$$CBV?$basic_string@DU?$char_traits@D@std@@V?$allocator@D@2@@std@@V12@@std@@@2@@2@@std@@@2@$0A@@std@@@std@@QAE?AViterator@12@Vconst_iterator@12@@Z 004305f0 f i sockets:ResolvSocket.obj
 0001:0002fba0       ?clear@?$_Tree@V?$_Tmap_traits@V?$basic_string@DU?$char_traits@D@std@@V?$allocator@D@2@@std@@V?$map@V?$basic_string@DU?$char_traits@D@std@@V?$allocator@D@2@@std@@V12@U?$less@V?$basic_string@DU?$char_traits@D@std@@V?$allocator@D@2@@std@@@2@V?$allocator@U?$pair@$$CBV?$basic_string@DU?$char_traits@D@std@@V?$allocator@D@2@@std@@V12@@std@@@2@@2@U?$less@V?$basic_string@DU?$char_traits@D@std@@V?$allocator@D@2@@std@@@2@V?$allocator@U?$pair@$$CBV?$basic_string@DU?$char_traits@D@std@@V?$allocator@D@2@@std@@V?$map@V?$basic_string@DU?$char_traits@D@std@@V?$allocator@D@2@@std@@V12@U?$less@V?$basic_string@DU?$char_traits@D@std@@V?$allocator@D@2@@std@@@2@V?$allocator@U?$pair@$$CBV?$basic_string@DU?$char_traits@D@std@@V?$allocator@D@2@@std@@V12@@std@@@2@@2@@std@@@2@$0A@@std@@@std@@QAEXXZ 00430ba0 f i sockets:ResolvSocket.obj
 0001:0002fc00       ?_Erase@?$_Tree@V?$_Tmap_traits@V?$basic_string@DU?$char_traits@D@std@@V?$allocator@D@2@@std@@V?$map@V?$basic_string@DU?$char_traits@D@std@@V?$allocator@D@2@@std@@V12@U?$less@V?$basic_string@DU?$char_traits@D@std@@V?$allocator@D@2@@std@@@2@V?$allocator@U?$pair@$$CBV?$basic_string@DU?$char_traits@D@std@@V?$allocator@D@2@@std@@V12@@std@@@2@@2@U?$less@V?$basic_string@DU?$char_traits@D@std@@V?$allocator@D@2@@std@@@2@V?$allocator@U?$pair@$$CBV?$basic_string@DU?$char_traits@D@std@@V?$allocator@D@2@@std@@V?$map@V?$basic_string@DU?$char_traits@D@std@@V?$allocator@D@2@@std@@V12@U?$less@V?$basic_string@DU?$char_traits@D@std@@V?$allocator@D@2@@std@@@2@V?$allocator@U?$pair@$$CBV?$basic_string@DU?$char_traits@D@std@@V?$allocator@D@2@@std@@V12@@std@@@2@@2@@std@@@2@$0A@@std@@@std@@IAEXPAU_Node@?$_Tree_nod@V?$_Tmap_traits@V?$basic_string@DU?$char_traits@D@std@@V?$allocator@D@2@@std@@V?$map@V?$basic_string@DU?$char_traits@D@std@@V?$allocator@D@2@@std@@V12@U?$less@V?$basic_string@DU?$char_traits@D@std@@V?$allocator@D@2@@std@@@2@V?$allocator@U?$pair@$$CBV?$basic_string@DU?$char_traits@D@std@@V?$allocator@D@2@@std@@V12@@std@@@2@@2@U?$less@V?$basic_string@DU?$char_traits@D@std@@V?$allocator@D@2@@std@@@2@V?$allocator@U?$pair@$$CBV?$basic_string@DU?$char_traits@D@std@@V?$allocator@D@2@@std@@V?$map@V?$basic_string@DU?$char_traits@D@std@@V?$allocator@D@2@@std@@V12@U?$less@V?$basic_string@DU?$char_traits@D@std@@V?$allocator@D@2@@std@@@2@V?$allocator@U?$pair@$$CBV?$basic_string@DU?$char_traits@D@std@@V?$allocator@D@2@@std@@V12@@std@@@2@@2@@std@@@2@$0A@@std@@@2@@Z 00430c00 f i sockets:ResolvSocket.obj
 0001:0002fc60       ??$_Destroy@U_Node@?$_Tree_nod@V?$_Tmap_traits@V?$basic_string@DU?$char_traits@D@std@@V?$allocator@D@2@@std@@V?$map@V?$basic_string@DU?$char_traits@D@std@@V?$allocator@D@2@@std@@V12@U?$less@V?$basic_string@DU?$char_traits@D@std@@V?$allocator@D@2@@std@@@2@V?$allocator@U?$pair@$$CBV?$basic_string@DU?$char_traits@D@std@@V?$allocator@D@2@@std@@V12@@std@@@2@@2@U?$less@V?$basic_string@DU?$char_traits@D@std@@V?$allocator@D@2@@std@@@2@V?$allocator@U?$pair@$$CBV?$basic_string@DU?$char_traits@D@std@@V?$allocator@D@2@@std@@V?$map@V?$basic_string@DU?$char_traits@D@std@@V?$allocator@D@2@@std@@V12@U?$less@V?$basic_string@DU?$char_traits@D@std@@V?$allocator@D@2@@std@@@2@V?$allocator@U?$pair@$$CBV?$basic_string@DU?$char_traits@D@std@@V?$allocator@D@2@@std@@V12@@std@@@2@@2@@std@@@2@$0A@@std@@@std@@@std@@YAXPAU_Node@?$_Tree_nod@V?$_Tmap_traits@V?$basic_string@DU?$char_traits@D@std@@V?$allocator@D@2@@std@@V?$map@V?$basic_string@DU?$char_traits@D@std@@V?$allocator@D@2@@std@@V12@U?$less@V?$basic_string@DU?$char_traits@D@std@@V?$allocator@D@2@@std@@@2@V?$allocator@U?$pair@$$CBV?$basic_string@DU?$char_traits@D@std@@V?$allocator@D@2@@std@@V12@@std@@@2@@2@U?$less@V?$basic_string@DU?$char_traits@D@std@@V?$allocator@D@2@@std@@@2@V?$allocator@U?$pair@$$CBV?$basic_string@DU?$char_traits@D@std@@V?$allocator@D@2@@std@@V?$map@V?$basic_string@DU?$char_traits@D@std@@V?$allocator@D@2@@std@@V12@U?$less@V?$basic_string@DU?$char_traits@D@std@@V?$allocator@D@2@@std@@@2@V?$allocator@U?$pair@$$CBV?$basic_string@DU?$char_traits@D@std@@V?$allocator@D@2@@std@@V12@@std@@@2@@2@@std@@@2@$0A@@std@@@0@@Z 00430c60 f i sockets:ResolvSocket.obj
 0001:0002fce0       ?_Tidy@?$_Tree@V?$_Tmap_traits@V?$basic_string@DU?$char_traits@D@std@@V?$allocator@D@2@@std@@V?$map@V?$basic_string@DU?$char_traits@D@std@@V?$allocator@D@2@@std@@_JU?$less@V?$basic_string@DU?$char_traits@D@std@@V?$allocator@D@2@@std@@@2@V?$allocator@U?$pair@$$CBV?$basic_string@DU?$char_traits@D@std@@V?$allocator@D@2@@std@@_J@std@@@2@@2@U?$less@V?$basic_string@DU?$char_traits@D@std@@V?$allocator@D@2@@std@@@2@V?$allocator@U?$pair@$$CBV?$basic_string@DU?$char_traits@D@std@@V?$allocator@D@2@@std@@V?$map@V?$basic_string@DU?$char_traits@D@std@@V?$allocator@D@2@@std@@_JU?$less@V?$basic_string@DU?$char_traits@D@std@@V?$allocator@D@2@@std@@@2@V?$allocator@U?$pair@$$CBV?$basic_string@DU?$char_traits@D@std@@V?$allocator@D@2@@std@@_J@std@@@2@@2@@std@@@2@$0A@@std@@@std@@IAEXXZ 00430ce0 f i sockets:ResolvSocket.obj
 0001:0002fd70       ?erase@?$_Tree@V?$_Tmap_traits@V?$basic_string@DU?$char_traits@D@std@@V?$allocator@D@2@@std@@V?$map@V?$basic_string@DU?$char_traits@D@std@@V?$allocator@D@2@@std@@_JU?$less@V?$basic_string@DU?$char_traits@D@std@@V?$allocator@D@2@@std@@@2@V?$allocator@U?$pair@$$CBV?$basic_string@DU?$char_traits@D@std@@V?$allocator@D@2@@std@@_J@std@@@2@@2@U?$less@V?$basic_string@DU?$char_traits@D@std@@V?$allocator@D@2@@std@@@2@V?$allocator@U?$pair@$$CBV?$basic_string@DU?$char_traits@D@std@@V?$allocator@D@2@@std@@V?$map@V?$basic_string@DU?$char_traits@D@std@@V?$allocator@D@2@@std@@_JU?$less@V?$basic_string@DU?$char_traits@D@std@@V?$allocator@D@2@@std@@@2@V?$allocator@U?$pair@$$CBV?$basic_string@DU?$char_traits@D@std@@V?$allocator@D@2@@std@@_J@std@@@2@@2@@std@@@2@$0A@@std@@@std@@QAE?AViterator@12@Vconst_iterator@12@0@Z 00430d70 f i sockets:ResolvSocket.obj
 0001:0002fe50       ?erase@?$_Tree@V?$_Tmap_traits@V?$basic_string@DU?$char_traits@D@std@@V?$allocator@D@2@@std@@V?$map@V?$basic_string@DU?$char_traits@D@std@@V?$allocator@D@2@@std@@_JU?$less@V?$basic_string@DU?$char_traits@D@std@@V?$allocator@D@2@@std@@@2@V?$allocator@U?$pair@$$CBV?$basic_string@DU?$char_traits@D@std@@V?$allocator@D@2@@std@@_J@std@@@2@@2@U?$less@V?$basic_string@DU?$char_traits@D@std@@V?$allocator@D@2@@std@@@2@V?$allocator@U?$pair@$$CBV?$basic_string@DU?$char_traits@D@std@@V?$allocator@D@2@@std@@V?$map@V?$basic_string@DU?$char_traits@D@std@@V?$allocator@D@2@@std@@_JU?$less@V?$basic_string@DU?$char_traits@D@std@@V?$allocator@D@2@@std@@@2@V?$allocator@U?$pair@$$CBV?$basic_string@DU?$char_traits@D@std@@V?$allocator@D@2@@std@@_J@std@@@2@@2@@std@@@2@$0A@@std@@@std@@QAE?AViterator@12@Vconst_iterator@12@@Z 00430e50 f i sockets:ResolvSocket.obj
 0001:00030400       ?clear@?$_Tree@V?$_Tmap_traits@V?$basic_string@DU?$char_traits@D@std@@V?$allocator@D@2@@std@@V?$map@V?$basic_string@DU?$char_traits@D@std@@V?$allocator@D@2@@std@@_JU?$less@V?$basic_string@DU?$char_traits@D@std@@V?$allocator@D@2@@std@@@2@V?$allocator@U?$pair@$$CBV?$basic_string@DU?$char_traits@D@std@@V?$allocator@D@2@@std@@_J@std@@@2@@2@U?$less@V?$basic_string@DU?$char_traits@D@std@@V?$allocator@D@2@@std@@@2@V?$allocator@U?$pair@$$CBV?$basic_string@DU?$char_traits@D@std@@V?$allocator@D@2@@std@@V?$map@V?$basic_string@DU?$char_traits@D@std@@V?$allocator@D@2@@std@@_JU?$less@V?$basic_string@DU?$char_traits@D@std@@V?$allocator@D@2@@std@@@2@V?$allocator@U?$pair@$$CBV?$basic_string@DU?$char_traits@D@std@@V?$allocator@D@2@@std@@_J@std@@@2@@2@@std@@@2@$0A@@std@@@std@@QAEXXZ 00431400 f i sockets:ResolvSocket.obj
 0001:00030460       ?_Erase@?$_Tree@V?$_Tmap_traits@V?$basic_string@DU?$char_traits@D@std@@V?$allocator@D@2@@std@@V?$map@V?$basic_string@DU?$char_traits@D@std@@V?$allocator@D@2@@std@@_JU?$less@V?$basic_string@DU?$char_traits@D@std@@V?$allocator@D@2@@std@@@2@V?$allocator@U?$pair@$$CBV?$basic_string@DU?$char_traits@D@std@@V?$allocator@D@2@@std@@_J@std@@@2@@2@U?$less@V?$basic_string@DU?$char_traits@D@std@@V?$allocator@D@2@@std@@@2@V?$allocator@U?$pair@$$CBV?$basic_string@DU?$char_traits@D@std@@V?$allocator@D@2@@std@@V?$map@V?$basic_string@DU?$char_traits@D@std@@V?$allocator@D@2@@std@@_JU?$less@V?$basic_string@DU?$char_traits@D@std@@V?$allocator@D@2@@std@@@2@V?$allocator@U?$pair@$$CBV?$basic_string@DU?$char_traits@D@std@@V?$allocator@D@2@@std@@_J@std@@@2@@2@@std@@@2@$0A@@std@@@std@@IAEXPAU_Node@?$_Tree_nod@V?$_Tmap_traits@V?$basic_string@DU?$char_traits@D@std@@V?$allocator@D@2@@std@@V?$map@V?$basic_string@DU?$char_traits@D@std@@V?$allocator@D@2@@std@@_JU?$less@V?$basic_string@DU?$char_traits@D@std@@V?$allocator@D@2@@std@@@2@V?$allocator@U?$pair@$$CBV?$basic_string@DU?$char_traits@D@std@@V?$allocator@D@2@@std@@_J@std@@@2@@2@U?$less@V?$basic_string@DU?$char_traits@D@std@@V?$allocator@D@2@@std@@@2@V?$allocator@U?$pair@$$CBV?$basic_string@DU?$char_traits@D@std@@V?$allocator@D@2@@std@@V?$map@V?$basic_string@DU?$char_traits@D@std@@V?$allocator@D@2@@std@@_JU?$less@V?$basic_string@DU?$char_traits@D@std@@V?$allocator@D@2@@std@@@2@V?$allocator@U?$pair@$$CBV?$basic_string@DU?$char_traits@D@std@@V?$allocator@D@2@@std@@_J@std@@@2@@2@@std@@@2@$0A@@std@@@2@@Z 00431460 f i sockets:ResolvSocket.obj
 0001:000304c0       ??$_Destroy@U_Node@?$_Tree_nod@V?$_Tmap_traits@V?$basic_string@DU?$char_traits@D@std@@V?$allocator@D@2@@std@@V?$map@V?$basic_string@DU?$char_traits@D@std@@V?$allocator@D@2@@std@@_JU?$less@V?$basic_string@DU?$char_traits@D@std@@V?$allocator@D@2@@std@@@2@V?$allocator@U?$pair@$$CBV?$basic_string@DU?$char_traits@D@std@@V?$allocator@D@2@@std@@_J@std@@@2@@2@U?$less@V?$basic_string@DU?$char_traits@D@std@@V?$allocator@D@2@@std@@@2@V?$allocator@U?$pair@$$CBV?$basic_string@DU?$char_traits@D@std@@V?$allocator@D@2@@std@@V?$map@V?$basic_string@DU?$char_traits@D@std@@V?$allocator@D@2@@std@@_JU?$less@V?$basic_string@DU?$char_traits@D@std@@V?$allocator@D@2@@std@@@2@V?$allocator@U?$pair@$$CBV?$basic_string@DU?$char_traits@D@std@@V?$allocator@D@2@@std@@_J@std@@@2@@2@@std@@@2@$0A@@std@@@std@@@std@@YAXPAU_Node@?$_Tree_nod@V?$_Tmap_traits@V?$basic_string@DU?$char_traits@D@std@@V?$allocator@D@2@@std@@V?$map@V?$basic_string@DU?$char_traits@D@std@@V?$allocator@D@2@@std@@_JU?$less@V?$basic_string@DU?$char_traits@D@std@@V?$allocator@D@2@@std@@@2@V?$allocator@U?$pair@$$CBV?$basic_string@DU?$char_traits@D@std@@V?$allocator@D@2@@std@@_J@std@@@2@@2@U?$less@V?$basic_string@DU?$char_traits@D@std@@V?$allocator@D@2@@std@@@2@V?$allocator@U?$pair@$$CBV?$basic_string@DU?$char_traits@D@std@@V?$allocator@D@2@@std@@V?$map@V?$basic_string@DU?$char_traits@D@std@@V?$allocator@D@2@@std@@_JU?$less@V?$basic_string@DU?$char_traits@D@std@@V?$allocator@D@2@@std@@@2@V?$allocator@U?$pair@$$CBV?$basic_string@DU?$char_traits@D@std@@V?$allocator@D@2@@std@@_J@std@@@2@@2@@std@@@2@$0A@@std@@@0@@Z 004314c0 f i sockets:ResolvSocket.obj
 0001:00030540       ??0Base64@@QAE@XZ          00431540 f   sockets:Base64.obj
 0001:00030550       ?encode@Base64@@QAEXPAU_iobuf@@AAV?$basic_string@DU?$char_traits@D@std@@V?$allocator@D@2@@std@@_N@Z 00431550 f   sockets:Base64.obj
 0001:00030790       ?encode@Base64@@QAEXABV?$basic_string@DU?$char_traits@D@std@@V?$allocator@D@2@@std@@AAV23@_N@Z 00431790 f   sockets:Base64.obj
 0001:000307d0       ?encode@Base64@@QAEXPBDIAAV?$basic_string@DU?$char_traits@D@std@@V?$allocator@D@2@@std@@_N@Z 004317d0 f   sockets:Base64.obj
 0001:00030a00       ?encode@Base64@@QAEXPBEIAAV?$basic_string@DU?$char_traits@D@std@@V?$allocator@D@2@@std@@_N@Z 00431a00 f   sockets:Base64.obj
 0001:00030c30       ?decode@Base64@@QAEXABV?$basic_string@DU?$char_traits@D@std@@V?$allocator@D@2@@std@@AAV23@@Z 00431c30 f   sockets:Base64.obj
 0001:00030e90       ?decode@Base64@@QAEXABV?$basic_string@DU?$char_traits@D@std@@V?$allocator@D@2@@std@@PAEAAI@Z 00431e90 f   sockets:Base64.obj
 0001:00031120       ?decode_length@Base64@@QAEIABV?$basic_string@DU?$char_traits@D@std@@V?$allocator@D@2@@std@@@Z 00432120 f   sockets:Base64.obj
 0001:000311f0       ??0Parse@@QAE@XZ           004321f0 f   sockets:Parse.obj
 0001:000312a0       ??0Parse@@QAE@ABV?$basic_string@DU?$char_traits@D@std@@V?$allocator@D@2@@std@@@Z 004322a0 f   sockets:Parse.obj
 0001:00031350       ??0Parse@@QAE@ABV?$basic_string@DU?$char_traits@D@std@@V?$allocator@D@2@@std@@0@Z 00432350 f   sockets:Parse.obj
 0001:00031400       ??0Parse@@QAE@ABV?$basic_string@DU?$char_traits@D@std@@V?$allocator@D@2@@std@@0F@Z 00432400 f   sockets:Parse.obj
 0001:000314b0       ??1Parse@@QAE@XZ           004324b0 f   sockets:Parse.obj
 0001:00031520       ?issplit@Parse@@QAEFD@Z    00432520 f   sockets:Parse.obj
 0001:00031590       ?getsplit@Parse@@QAEXXZ    00432590 f   sockets:Parse.obj
 0001:00031aa0       ?getword@Parse@@QAE?AV?$basic_string@DU?$char_traits@D@std@@V?$allocator@D@2@@std@@XZ 00432aa0 f   sockets:Parse.obj
 0001:00032e00       ?getword@Parse@@QAEXAAV?$basic_string@DU?$char_traits@D@std@@V?$allocator@D@2@@std@@@Z 00433e00 f   sockets:Parse.obj
 0001:00032e80       ?getsplit@Parse@@QAEXAAV?$basic_string@DU?$char_traits@D@std@@V?$allocator@D@2@@std@@@Z 00433e80 f   sockets:Parse.obj
 0001:00032eb0       ?getword@Parse@@QAEXAAV?$basic_string@DU?$char_traits@D@std@@V?$allocator@D@2@@std@@0H@Z 00433eb0 f   sockets:Parse.obj
 0001:00032f30       ?getrest@Parse@@QAE?AV?$basic_string@DU?$char_traits@D@std@@V?$allocator@D@2@@std@@XZ 00433f30 f   sockets:Parse.obj
 0001:000332c0       ?getrest@Parse@@QAEXAAV?$basic_string@DU?$char_traits@D@std@@V?$allocator@D@2@@std@@@Z 004342c0 f   sockets:Parse.obj
 0001:00033590       ?getvalue@Parse@@QAEJXZ    00434590 f   sockets:Parse.obj
 0001:000335d0       ?setbreak@Parse@@QAEXD@Z   004345d0 f   sockets:Parse.obj
 0001:000335f0       ?getwordlen@Parse@@QAEHXZ  004345f0 f   sockets:Parse.obj
 0001:00033da0       ?getrestlen@Parse@@QAEHXZ  00434da0 f   sockets:Parse.obj
 0001:00033f30       ?getline@Parse@@QAEXXZ     00434f30 f   sockets:Parse.obj
 0001:000342f0       ?getline@Parse@@QAEXAAV?$basic_string@DU?$char_traits@D@std@@V?$allocator@D@2@@std@@@Z 004352f0 f   sockets:Parse.obj
 0001:00034320       ??0Lock@@QAE@AAVMutex@@@Z  00435320 f   sockets:Lock.obj
 0001:00034350       ??1Lock@@QAE@XZ            00435350 f   sockets:Lock.obj
 0001:00034370       ??1Database@@UAE@XZ        00435370 f   shared:Database.obj
 0001:00034410       ?Initialize@Database@@UAE_NPBD@Z 00435410 f   shared:Database.obj
 0001:00034520       ?ThreadStart@Database@@UAEXXZ 00435520 f   shared:Database.obj
 0001:00034530       ?ThreadEnd@Database@@UAEXXZ 00435530 f   shared:Database.obj
 0001:00034540       ?escape_string@Database@@QAEXAAV?$basic_string@DU?$char_traits@D@std@@V?$allocator@D@2@@std@@@Z 00435540 f   shared:Database.obj
 0001:000345d0       ?PExecuteLog@Database@@QAA_NPBDZZ 004355d0 f   shared:Database.obj
 0001:000347d0       ?SetResultQueue@Database@@QAEXPAVSqlResultQueue@@@Z 004357d0 f   shared:Database.obj
 0001:00034800       ?PQuery@Database@@QAAPAVQueryResult@@PBDZZ 00435800 f   shared:Database.obj
 0001:000348a0       ?PQueryNamed@Database@@QAAPAVQueryNamedResult@@PBDZZ 004358a0 f   shared:Database.obj
 0001:00034940       ?PExecute@Database@@QAA_NPBDZZ 00435940 f   shared:Database.obj
 0001:000349e0       ?DirectPExecute@Database@@QAA_NPBDZZ 004359e0 f   shared:Database.obj
 0001:00034a80       ?CheckRequiredField@Database@@QAE_NPBD0@Z 00435a80 f   shared:Database.obj
 0001:00034cf0       ??A?$hash_map@PAVThread@ACE_Based@@PAVSqlResultQueue@@V?$hash_compare@PAVThread@ACE_Based@@U?$less@PAVThread@ACE_Based@@@std@@@stdext@@V?$allocator@U?$pair@QAVThread@ACE_Based@@PAVSqlResultQueue@@@std@@@std@@@stdext@@QAEAAPAVSqlResultQueue@@ABQAVThread@ACE_Based@@@Z 00435cf0 f i shared:Database.obj
 0001:00034d80       ?lower_bound@?$_Hash@V?$_Hmap_traits@PAVThread@ACE_Based@@PAVSqlResultQueue@@V?$hash_compare@PAVThread@ACE_Based@@U?$less@PAVThread@ACE_Based@@@std@@@stdext@@V?$allocator@U?$pair@QAVThread@ACE_Based@@PAVSqlResultQueue@@@std@@@std@@$0A@@stdext@@@stdext@@QAE?AV?$_Iterator@$0A@@?$list@U?$pair@QAVThread@ACE_Based@@PAVSqlResultQueue@@@std@@V?$allocator@U?$pair@QAVThread@ACE_Based@@PAVSqlResultQueue@@@std@@@2@@std@@ABQAVThread@ACE_Based@@@Z 00435d80 f i shared:Database.obj
 0001:00034eb0       ?_Insert@?$_Hash@V?$_Hmap_traits@PAVThread@ACE_Based@@PAVSqlResultQueue@@V?$hash_compare@PAVThread@ACE_Based@@U?$less@PAVThread@ACE_Based@@@std@@@stdext@@V?$allocator@U?$pair@QAVThread@ACE_Based@@PAVSqlResultQueue@@@std@@@std@@$0A@@stdext@@@stdext@@IAE?AU?$pair@V?$_Iterator@$0A@@?$list@U?$pair@QAVThread@ACE_Based@@PAVSqlResultQueue@@@std@@V?$allocator@U?$pair@QAVThread@ACE_Based@@PAVSqlResultQueue@@@std@@@2@@std@@_N@std@@ABU?$pair@QAVThread@ACE_Based@@PAVSqlResultQueue@@@4@V?$_Iterator@$0A@@?$list@U?$pair@QAVThread@ACE_Based@@PAVSqlResultQueue@@@std@@V?$allocator@U?$pair@QAVThread@ACE_Based@@PAVSqlResultQueue@@@std@@@2@@4@@Z 00435eb0 f i shared:Database.obj
 0001:000351c0       ??R?$hash_compare@PAVThread@ACE_Based@@U?$less@PAVThread@ACE_Based@@@std@@@stdext@@QBEIABQAVThread@ACE_Based@@@Z 004361c0 f i shared:Database.obj
 0001:00035230       ?_Grow@?$_Hash@V?$_Hmap_traits@PAVThread@ACE_Based@@PAVSqlResultQueue@@V?$hash_compare@PAVThread@ACE_Based@@U?$less@PAVThread@ACE_Based@@@std@@@stdext@@V?$allocator@U?$pair@QAVThread@ACE_Based@@PAVSqlResultQueue@@@std@@@std@@$0A@@stdext@@@stdext@@IAEXXZ 00436230 f i shared:Database.obj
 0001:00035660       ?splice@?$list@U?$pair@QAVThread@ACE_Based@@PAVSqlResultQueue@@@std@@V?$allocator@U?$pair@QAVThread@ACE_Based@@PAVSqlResultQueue@@@std@@@2@@std@@QAEXV?$_Const_iterator@$0A@@12@AAV12@0@Z 00436660 f i shared:Database.obj
 0001:00035710       ?_Splice@?$list@U?$pair@QAVThread@ACE_Based@@PAVSqlResultQueue@@@std@@V?$allocator@U?$pair@QAVThread@ACE_Based@@PAVSqlResultQueue@@@std@@@2@@std@@QAEXV?$_Const_iterator@$0A@@12@AAV12@00I_N@Z 00436710 f i shared:Database.obj
 0001:00035870       ?erase@?$list@U?$pair@QAVThread@ACE_Based@@PAVSqlResultQueue@@@std@@V?$allocator@U?$pair@QAVThread@ACE_Based@@PAVSqlResultQueue@@@std@@@2@@std@@QAE?AV?$_Iterator@$0A@@12@V?$_Const_iterator@$0A@@12@0@Z 00436870 f i shared:Database.obj
 0001:00035930       ??0BigNumber@@QAE@XZ       00436930 f   shared:BigNumber.obj
 0001:00035960       ??0BigNumber@@QAE@ABV0@@Z  00436960 f   shared:BigNumber.obj
 0001:00035990       ??0BigNumber@@QAE@I@Z      00436990 f   shared:BigNumber.obj
 0001:000359d0       ??1BigNumber@@QAE@XZ       004369d0 f   shared:BigNumber.obj
 0001:00035a10       ?SetDword@BigNumber@@QAEXI@Z 00436a10 f   shared:BigNumber.obj
 0001:00035a30       ?SetQword@BigNumber@@QAEX_K@Z 00436a30 f   shared:BigNumber.obj
 0001:00035a90       ?SetBinary@BigNumber@@QAEXPBEH@Z 00436a90 f   shared:BigNumber.obj
 0001:00035b20       ?SetHexStr@BigNumber@@QAEXPBD@Z 00436b20 f   shared:BigNumber.obj
 0001:00035b40       ?SetRand@BigNumber@@QAEXH@Z 00436b40 f   shared:BigNumber.obj
 0001:00035b70       ??4BigNumber@@QAE?AV0@ABV0@@Z 00436b70 f   shared:BigNumber.obj
 0001:00035bc0       ??YBigNumber@@QAE?AV0@ABV0@@Z 00436bc0 f   shared:BigNumber.obj
 0001:00035c10       ??ZBigNumber@@QAE?AV0@ABV0@@Z 00436c10 f   shared:BigNumber.obj
 0001:00035c60       ??XBigNumber@@QAE?AV0@ABV0@@Z 00436c60 f   shared:BigNumber.obj
 0001:00035cc0       ??_0BigNumber@@QAE?AV0@ABV0@@Z 00436cc0 f   shared:BigNumber.obj
 0001:00035d30       ??_1BigNumber@@QAE?AV0@ABV0@@Z 00436d30 f   shared:BigNumber.obj
 0001:00035da0       ?Exp@BigNumber@@QAE?AV1@ABV1@@Z 00436da0 f   shared:BigNumber.obj
 0001:00035e50       ?ModExp@BigNumber@@QAE?AV1@ABV1@0@Z 00436e50 f   shared:BigNumber.obj
 0001:00035f00       ?GetNumBytes@BigNumber@@QAEHXZ 00436f00 f   shared:BigNumber.obj
 0001:00035f30       ?AsDword@BigNumber@@QAEIXZ 00436f30 f   shared:BigNumber.obj
 0001:00035f50       ?isZero@BigNumber@@QBE_NXZ 00436f50 f   shared:BigNumber.obj
 0001:00035f70       ?AsByteArray@BigNumber@@QAEPAEH@Z 00436f70 f   shared:BigNumber.obj
 0001:00036090       ?AsByteBuffer@BigNumber@@QAE?AVByteBuffer@@XZ 00437090 f   shared:BigNumber.obj
 0001:00036170       ??0ByteBuffer@@QAE@I@Z     00437170 f i shared:BigNumber.obj
 0001:00036220       ?AsByteVector@BigNumber@@QAE?AV?$vector@EV?$allocator@E@std@@@std@@XZ 00437220 f   shared:BigNumber.obj
 0001:00036300       ?AsHexStr@BigNumber@@QAEPBDXZ 00437300 f   shared:BigNumber.obj
 0001:00036320       ?AsDecStr@BigNumber@@QAEPBDXZ 00437320 f   shared:BigNumber.obj
 0001:00036340       ??0?$vector@EV?$allocator@E@std@@@std@@QAE@ABV01@@Z 00437340 f i shared:BigNumber.obj
 0001:000364e0       ??$_Uninit_copy@V?$_Vector_const_iterator@EV?$allocator@E@std@@@std@@PAEV?$allocator@E@2@@std@@YAPAEV?$_Vector_const_iterator@EV?$allocator@E@std@@@0@0PAEAAV?$allocator@E@0@U_Nonscalar_ptr_iterator_tag@0@U_Range_checked_iterator_tag@0@@Z 004374e0 f i shared:BigNumber.obj
 0001:000365d0       ??0Log@@AAE@XZ             004375d0 f   shared:Log.obj
 0001:00036690       ?InitColors@Log@@QAEXABV?$basic_string@DU?$char_traits@D@std@@V?$allocator@D@2@@std@@@Z 00437690 f   shared:Log.obj
 0001:00036810       ?SetColor@Log@@QAEX_NW4Color@@@Z 00437810 f   shared:Log.obj
 0001:00036850       ?ResetColor@Log@@QAEX_N@Z  00437850 f   shared:Log.obj
 0001:00036890       ?SetLogLevel@Log@@QAEXPAD@Z 00437890 f   shared:Log.obj
 0001:000368e0       ?SetLogFileLevel@Log@@QAEXPAD@Z 004378e0 f   shared:Log.obj
 0001:00036930       ?Initialize@Log@@QAEXXZ    00437930 f   shared:Log.obj
 0001:00036ed0       ?openLogFile@Log@@AAEPAU_iobuf@@PBD00@Z 00437ed0 f   shared:Log.obj
 0001:00037030       ?openGmlogPerAccount@Log@@AAEPAU_iobuf@@I@Z 00438030 f   shared:Log.obj
 0001:000370c0       ?outTimestamp@Log@@SAXPAU_iobuf@@@Z 004380c0 f   shared:Log.obj
 0001:00037130       ?outTime@Log@@QAEXXZ       00438130 f   shared:Log.obj
 0001:00037180       ?GetTimestampStr@Log@@SA?AV?$basic_string@DU?$char_traits@D@std@@V?$allocator@D@2@@std@@XZ 00438180 f   shared:Log.obj
 0001:00037230       ?outTitle@Log@@QAEXPBD@Z   00438230 f   shared:Log.obj
 0001:000372f0       ?outString@Log@@QAEXXZ     004382f0 f   shared:Log.obj
 0001:00037370       ?outString@Log@@QAAXPBDZZ  00438370 f   shared:Log.obj
 0001:00037480       ?outError@Log@@QAAXPBDZZ   00438480 f   shared:Log.obj
 0001:000375a0       ?outErrorDb@Log@@QAAXPBDZZ 004385a0 f   shared:Log.obj
 0001:00037730       ?outBasic@Log@@QAAXPBDZZ   00438730 f   shared:Log.obj
 0001:00037850       ?outDetail@Log@@QAAXPBDZZ  00438850 f   shared:Log.obj
 0001:00037970       ?outDebugInLine@Log@@QAAXPBDZZ 00438970 f   shared:Log.obj
 0001:00037a20       ?outDebug@Log@@QAAXPBDZZ   00438a20 f   shared:Log.obj
 0001:00037b40       ?outCommand@Log@@QAAXIPBDZZ 00438b40 f   shared:Log.obj
 0001:00037d30       ?outChar@Log@@QAAXPBDZZ    00438d30 f   shared:Log.obj
 0001:00037db0       ?outCharDump@Log@@QAEXPBDII0@Z 00438db0 f   shared:Log.obj
 0001:00037e00       ?outMenu@Log@@QAAXPBDZZ    00438e00 f   shared:Log.obj
 0001:00037ee0       ?outRALog@Log@@QAAXPBDZZ   00438ee0 f   shared:Log.obj
 0001:00037f60       ?outstring_log@@YAXPBDZZ   00438f60 f   shared:Log.obj
 0001:00037fe0       ?detail_log@@YAXPBDZZ      00438fe0 f   shared:Log.obj
 0001:00038060       ?debug_log@@YAXPBDZZ       00439060 f   shared:Log.obj
 0001:000380e0       ?error_log@@YAXPBDZZ       004390e0 f   shared:Log.obj
 0001:00038160       ?error_db_log@@YAXPBDZZ    00439160 f   shared:Log.obj
 0001:000381e0       ??0?$Singleton@VLog@@V?$SingleThreaded@VLog@@@MaNGOS@@V?$OperatorNew@VLog@@@3@V?$ObjectLifeTime@VLog@@@3@@MaNGOS@@IAE@XZ 004391e0 f i shared:Log.obj
 0001:000381f0       ?Instance@?$Singleton@VConfig@@V?$SingleThreaded@VConfig@@@MaNGOS@@V?$OperatorNew@VConfig@@@3@V?$ObjectLifeTime@VConfig@@@3@@MaNGOS@@SAAAVConfig@@XZ 004391f0 f i shared:Log.obj
 0001:00038240       ?Create@?$OperatorNew@VConfig@@@MaNGOS@@SAPAVConfig@@XZ 00439240 f i shared:Log.obj
 0001:000382c0       ?DestroySingleton@?$Singleton@VConfig@@V?$SingleThreaded@VConfig@@@MaNGOS@@V?$OperatorNew@VConfig@@@3@V?$ObjectLifeTime@VConfig@@@3@@MaNGOS@@CAXXZ 004392c0 f i shared:Log.obj
 0001:000382f0       ?OnDeadReference@?$ObjectLifeTime@VConfig@@@MaNGOS@@SAXXZ 004392f0 f i shared:Log.obj
 0001:00038380       ?Destroy@?$OperatorNew@VConfig@@@MaNGOS@@SAXPAVConfig@@@Z 00439380 f i shared:Log.obj
 0001:000383d0       ??0Sha1Hash@@QAE@XZ        004393d0 f   shared:Sha1.obj
 0001:000383f0       ??1Sha1Hash@@QAE@XZ        004393f0 f   shared:Sha1.obj
 0001:00038410       ?UpdateData@Sha1Hash@@QAEXPBEH@Z 00439410 f   shared:Sha1.obj
 0001:00038440       ?UpdateData@Sha1Hash@@QAEXABV?$basic_string@DU?$char_traits@D@std@@V?$allocator@D@2@@std@@@Z 00439440 f   shared:Sha1.obj
 0001:00038470       ?UpdateBigNumbers@Sha1Hash@@QAAXPAVBigNumber@@ZZ 00439470 f   shared:Sha1.obj
 0001:000384d0       ?Initialize@Sha1Hash@@QAEXXZ 004394d0 f   shared:Sha1.obj
 0001:000384f0       ?Finalize@Sha1Hash@@QAEXXZ 004394f0 f   shared:Sha1.obj
 0001:00038510       ?GetLocaleByName@@YA?AW4LocaleConstant@@ABV?$basic_string@DU?$char_traits@D@std@@V?$allocator@D@2@@std@@@Z 00439510 f   shared:Common.obj
 0001:00038560       ??_GDatabaseMysql@@UAEPAXI@Z 00439560 f i shared:DatabaseMysql.obj
 0001:00038590       ??_EDatabaseMysql@@UAEPAXI@Z 00439590 f i shared:DatabaseMysql.obj
 0001:00038600       ?ThreadStart@DatabaseMysql@@UAEXXZ 00439600 f   shared:DatabaseMysql.obj
 0001:00038610       ?ThreadEnd@DatabaseMysql@@UAEXXZ 00439610 f   shared:DatabaseMysql.obj
 0001:00038620       ??0DatabaseMysql@@QAE@XZ   00439620 f   shared:DatabaseMysql.obj
 0001:000386f0       ??1DatabaseMysql@@UAE@XZ   004396f0 f   shared:DatabaseMysql.obj
 0001:000387a0       ?Initialize@DatabaseMysql@@UAE_NPBD@Z 004397a0 f   shared:DatabaseMysql.obj
 0001:00038e40       ?_Query@DatabaseMysql@@AAE_NPBDPAPAUst_mysql_res@@PAPAUst_mysql_field@@PA_KPAI@Z 00439e40 f   shared:DatabaseMysql.obj
 0001:00038fd0       ?Query@DatabaseMysql@@UAEPAVQueryResult@@PBD@Z 00439fd0 f   shared:DatabaseMysql.obj
 0001:000390c0       ?QueryNamed@DatabaseMysql@@UAEPAVQueryNamedResult@@PBD@Z 0043a0c0 f   shared:DatabaseMysql.obj
 0001:00039270       ?Execute@DatabaseMysql@@UAE_NPBD@Z 0043a270 f   shared:DatabaseMysql.obj
 0001:000393b0       ?OnRemove@SqlOperation@@UAEXXZ 0043a3b0 f i shared:DatabaseMysql.obj
 0001:000393f0       ??_GSqlOperation@@UAEPAXI@Z 0043a3f0 f i shared:DatabaseMysql.obj
 0001:000393f0       ??_ESqlOperation@@UAEPAXI@Z 0043a3f0 f i shared:DatabaseMysql.obj
 0001:00039420       ??_ESqlStatement@@UAEPAXI@Z 0043a420 f i shared:DatabaseMysql.obj
 0001:00039420       ??_GSqlStatement@@UAEPAXI@Z 0043a420 f i shared:DatabaseMysql.obj
 0001:00039470       ?DirectExecute@DatabaseMysql@@UAE_NPBD@Z 0043a470 f   shared:DatabaseMysql.obj
 0001:00039580       ?_TransactionCmd@DatabaseMysql@@AAE_NPBD@Z 0043a580 f   shared:DatabaseMysql.obj
 0001:000395f0       ?BeginTransaction@DatabaseMysql@@UAE_NXZ 0043a5f0 f   shared:DatabaseMysql.obj
 0001:000397e0       ??1SqlOperation@@UAE@XZ    0043a7e0 f i shared:DatabaseMysql.obj
 0001:00039800       ??_ESqlTransaction@@UAEPAXI@Z 0043a800 f i shared:DatabaseMysql.obj
 0001:00039800       ??_GSqlTransaction@@UAEPAXI@Z 0043a800 f i shared:DatabaseMysql.obj
 0001:000398a0       ?CommitTransaction@DatabaseMysql@@UAE_NXZ 0043a8a0 f   shared:DatabaseMysql.obj
 0001:000399b0       ?RollbackTransaction@DatabaseMysql@@UAE_NXZ 0043a9b0 f   shared:DatabaseMysql.obj
 0001:00039ac0       ?escape_string@DatabaseMysql@@UAEKPADPBDK@Z 0043aac0 f   shared:DatabaseMysql.obj
 0001:00039b10       ?InitDelayThread@DatabaseMysql@@UAEXXZ 0043ab10 f   shared:DatabaseMysql.obj
 0001:00039bf0       ?Stop@MySQLDelayThread@@UAEXXZ 0043abf0 f i shared:DatabaseMysql.obj
 0001:00039c10       ??_GMySQLDelayThread@@UAEPAXI@Z 0043ac10 f i shared:DatabaseMysql.obj
 0001:00039c10       ??_EMySQLDelayThread@@UAEPAXI@Z 0043ac10 f i shared:DatabaseMysql.obj
 0001:00039ca0       ??1Runnable@ACE_Based@@UAE@XZ 0043aca0 f i shared:DatabaseMysql.obj
 0001:00039cd0       ?HaltDelayThread@DatabaseMysql@@UAEXXZ 0043acd0 f   shared:DatabaseMysql.obj
 0001:00039d70       ??0?$vector@V?$basic_string@DU?$char_traits@D@std@@V?$allocator@D@2@@std@@V?$allocator@V?$basic_string@DU?$char_traits@D@std@@V?$allocator@D@2@@std@@@2@@std@@QAE@I@Z 0043ad70 f i shared:DatabaseMysql.obj
 0001:00039e10       ??1?$LockedQueue@PAVSqlOperation@@VACE_Thread_Mutex@@V?$deque@PAVSqlOperation@@V?$allocator@PAVSqlOperation@@@std@@@std@@@ACE_Based@@UAE@XZ 0043ae10 f i shared:DatabaseMysql.obj
 0001:00039ea0       ?add@?$LockedQueue@PAVSqlOperation@@VACE_Thread_Mutex@@V?$deque@PAVSqlOperation@@V?$allocator@PAVSqlOperation@@@std@@@std@@@ACE_Based@@QAEXABQAVSqlOperation@@@Z 0043aea0 f i shared:DatabaseMysql.obj
 0001:00039f30       ??A?$hash_map@PAVThread@ACE_Based@@PAVSqlTransaction@@V?$hash_compare@PAVThread@ACE_Based@@U?$less@PAVThread@ACE_Based@@@std@@@stdext@@V?$allocator@U?$pair@QAVThread@ACE_Based@@PAVSqlTransaction@@@std@@@std@@@stdext@@QAEAAPAVSqlTransaction@@ABQAVThread@ACE_Based@@@Z 0043af30 f i shared:DatabaseMysql.obj
 0001:00039fc0       ??_E?$LockedQueue@PAVSqlOperation@@VACE_Thread_Mutex@@V?$deque@PAVSqlOperation@@V?$allocator@PAVSqlOperation@@@std@@@std@@@ACE_Based@@UAEPAXI@Z 0043afc0 f i shared:DatabaseMysql.obj
 0001:00039fc0       ??_G?$LockedQueue@PAVSqlOperation@@VACE_Thread_Mutex@@V?$deque@PAVSqlOperation@@V?$allocator@PAVSqlOperation@@@std@@@std@@@ACE_Based@@UAEPAXI@Z 0043afc0 f i shared:DatabaseMysql.obj
 0001:00039ff0       ??1?$_Deque_val@PBDV?$allocator@PBD@std@@@std@@QAE@XZ 0043aff0 f i shared:DatabaseMysql.obj
 0001:0003a020       ?_Construct_n@?$vector@V?$basic_string@DU?$char_traits@D@std@@V?$allocator@D@2@@std@@V?$allocator@V?$basic_string@DU?$char_traits@D@std@@V?$allocator@D@2@@std@@@2@@std@@QAEXIABV?$basic_string@DU?$char_traits@D@std@@V?$allocator@D@2@@2@@Z 0043b020 f i shared:DatabaseMysql.obj
 0001:0003a110       ?push_back@?$deque@PAVSqlOperation@@V?$allocator@PAVSqlOperation@@@std@@@std@@QAEXABQAVSqlOperation@@@Z 0043b110 f i shared:DatabaseMysql.obj
 0001:0003a260       ?lower_bound@?$_Hash@V?$_Hmap_traits@PAVThread@ACE_Based@@PAVSqlTransaction@@V?$hash_compare@PAVThread@ACE_Based@@U?$less@PAVThread@ACE_Based@@@std@@@stdext@@V?$allocator@U?$pair@QAVThread@ACE_Based@@PAVSqlTransaction@@@std@@@std@@$0A@@stdext@@@stdext@@QAE?AV?$_Iterator@$0A@@?$list@U?$pair@QAVThread@ACE_Based@@PAVSqlTransaction@@@std@@V?$allocator@U?$pair@QAVThread@ACE_Based@@PAVSqlTransaction@@@std@@@2@@std@@ABQAVThread@ACE_Based@@@Z 0043b260 f i shared:DatabaseMysql.obj
 0001:0003a390       ??0?$deque@PBDV?$allocator@PBD@std@@@std@@QAE@XZ 0043b390 f i shared:DatabaseMysql.obj
 0001:0003a3e0       ?push_back@?$deque@PBDV?$allocator@PBD@std@@@std@@QAEXABQBD@Z 0043b3e0 f i shared:DatabaseMysql.obj
 0001:0003a530       ?_Tidy@?$deque@PBDV?$allocator@PBD@std@@@std@@IAEXXZ 0043b530 f i shared:DatabaseMysql.obj
 0001:0003a5e0       ??1?$_Deque_val@PAVSqlOperation@@V?$allocator@PAVSqlOperation@@@std@@@std@@QAE@XZ 0043b5e0 f i shared:DatabaseMysql.obj
 0001:0003a610       ?_Growmap@?$deque@PAVSqlOperation@@V?$allocator@PAVSqlOperation@@@std@@@std@@IAEXI@Z 0043b610 f i shared:DatabaseMysql.obj
 0001:0003a930       ?_Tidy@?$deque@PAVSqlOperation@@V?$allocator@PAVSqlOperation@@@std@@@std@@IAEXXZ 0043b930 f i shared:DatabaseMysql.obj
 0001:0003a9e0       ?_Insert@?$_Hash@V?$_Hmap_traits@PAVThread@ACE_Based@@PAVSqlTransaction@@V?$hash_compare@PAVThread@ACE_Based@@U?$less@PAVThread@ACE_Based@@@std@@@stdext@@V?$allocator@U?$pair@QAVThread@ACE_Based@@PAVSqlTransaction@@@std@@@std@@$0A@@stdext@@@stdext@@IAE?AU?$pair@V?$_Iterator@$0A@@?$list@U?$pair@QAVThread@ACE_Based@@PAVSqlTransaction@@@std@@V?$allocator@U?$pair@QAVThread@ACE_Based@@PAVSqlTransaction@@@std@@@2@@std@@_N@std@@ABU?$pair@QAVThread@ACE_Based@@PAVSqlTransaction@@@4@V?$_Iterator@$0A@@?$list@U?$pair@QAVThread@ACE_Based@@PAVSqlTransaction@@@std@@V?$allocator@U?$pair@QAVThread@ACE_Based@@PAVSqlTransaction@@@std@@@2@@4@@Z 0043b9e0 f i shared:DatabaseMysql.obj
 0001:0003acf0       ?pop_back@?$deque@PBDV?$allocator@PBD@std@@@std@@QAEXXZ 0043bcf0 f i shared:DatabaseMysql.obj
 0001:0003ad70       ?_Growmap@?$deque@PBDV?$allocator@PBD@std@@@std@@IAEXI@Z 0043bd70 f i shared:DatabaseMysql.obj
 0001:0003b090       ??0?$_Deque_val@PBDV?$allocator@PBD@std@@@std@@IAE@V?$allocator@PBD@1@@Z 0043c090 f i shared:DatabaseMysql.obj
 0001:0003b140       ??1_Container_base_aux@std@@QAE@XZ 0043c140 f i shared:DatabaseMysql.obj
 0001:0003b150       ?pop_back@?$deque@PAVSqlOperation@@V?$allocator@PAVSqlOperation@@@std@@@std@@QAEXXZ 0043c150 f i shared:DatabaseMysql.obj
 0001:0003b1d0       ?_Xlen@?$deque@PAVSqlOperation@@V?$allocator@PAVSqlOperation@@@std@@@std@@KAXXZ 0043c1d0 f i shared:DatabaseMysql.obj
 0001:0003b270       ?_Grow@?$_Hash@V?$_Hmap_traits@PAVThread@ACE_Based@@PAVSqlTransaction@@V?$hash_compare@PAVThread@ACE_Based@@U?$less@PAVThread@ACE_Based@@@std@@@stdext@@V?$allocator@U?$pair@QAVThread@ACE_Based@@PAVSqlTransaction@@@std@@@std@@$0A@@stdext@@@stdext@@IAEXXZ 0043c270 f i shared:DatabaseMysql.obj
 0001:0003b6a0       ?splice@?$list@U?$pair@QAVThread@ACE_Based@@PAVSqlTransaction@@@std@@V?$allocator@U?$pair@QAVThread@ACE_Based@@PAVSqlTransaction@@@std@@@2@@std@@QAEXV?$_Const_iterator@$0A@@12@AAV12@0@Z 0043c6a0 f i shared:DatabaseMysql.obj
 0001:0003b750       ?_Xlen@?$deque@PBDV?$allocator@PBD@std@@@std@@KAXXZ 0043c750 f i shared:DatabaseMysql.obj
 0001:0003b7f0       ?_Splice@?$list@U?$pair@QAVThread@ACE_Based@@PAVSqlTransaction@@@std@@V?$allocator@U?$pair@QAVThread@ACE_Based@@PAVSqlTransaction@@@std@@@2@@std@@QAEXV?$_Const_iterator@$0A@@12@AAV12@00I_N@Z 0043c7f0 f i shared:DatabaseMysql.obj
 0001:0003b950       ?erase@?$list@U?$pair@QAVThread@ACE_Based@@PAVSqlTransaction@@@std@@V?$allocator@U?$pair@QAVThread@ACE_Based@@PAVSqlTransaction@@@std@@@2@@std@@QAE?AV?$_Iterator@$0A@@12@V?$_Const_iterator@$0A@@12@0@Z 0043c950 f i shared:DatabaseMysql.obj
 0001:0003ba10       ??$unchecked_uninitialized_copy@PAPAPAVSqlOperation@@PAPAPAV1@V?$allocator@PAPAVSqlOperation@@@std@@@stdext@@YAPAPAPAVSqlOperation@@PAPAPAV1@00AAV?$allocator@PAPAVSqlOperation@@@std@@@Z 0043ca10 f i shared:DatabaseMysql.obj
 0001:0003ba80       ??$unchecked_uninitialized_fill_n@PAPAPAVSqlOperation@@IPAPAV1@V?$allocator@PAPAVSqlOperation@@@std@@@stdext@@YAXPAPAPAVSqlOperation@@IABQAPAV1@AAV?$allocator@PAPAVSqlOperation@@@std@@@Z 0043ca80 f i shared:DatabaseMysql.obj
 0001:0003bac0       ??$_Allocate@PAVSqlOperation@@@std@@YAPAPAVSqlOperation@@IPAPAV1@@Z 0043cac0 f i shared:DatabaseMysql.obj
 0001:0003bb20       ??$unchecked_uninitialized_copy@PAPAPBDPAPAPBDV?$allocator@PAPBD@std@@@stdext@@YAPAPAPBDPAPAPBD00AAV?$allocator@PAPBD@std@@@Z 0043cb20 f i shared:DatabaseMysql.obj
 0001:0003bb90       ??$unchecked_uninitialized_fill_n@PAPAPBDIPAPBDV?$allocator@PAPBD@std@@@stdext@@YAXPAPAPBDIABQAPBDAAV?$allocator@PAPBD@std@@@Z 0043cb90 f i shared:DatabaseMysql.obj
 0001:0003bbd0       ??$_Allocate@PBD@std@@YAPAPBDIPAPBD@Z 0043cbd0 f i shared:DatabaseMysql.obj
 0001:0003bc30       ??$_Allocate@PAPAVSqlOperation@@@std@@YAPAPAPAVSqlOperation@@IPAPAPAV1@@Z 0043cc30 f i shared:DatabaseMysql.obj
 0001:0003bc90       ??$_Allocate@PAPBD@std@@YAPAPAPBDIPAPAPBD@Z 0043cc90 f i shared:DatabaseMysql.obj
 0001:0003bcf0       ??$_Allocate@V_Aux_cont@std@@@std@@YAPAV_Aux_cont@0@IPAV10@@Z 0043ccf0 f i shared:DatabaseMysql.obj
 0001:0003bd50       ??$_Uninit_fill_n@PAV?$basic_string@DU?$char_traits@D@std@@V?$allocator@D@2@@std@@IV12@V?$allocator@V?$basic_string@DU?$char_traits@D@std@@V?$allocator@D@2@@std@@@2@@std@@YAXPAV?$basic_string@DU?$char_traits@D@std@@V?$allocator@D@2@@0@IABV10@AAV?$allocator@V?$basic_string@DU?$char_traits@D@std@@V?$allocator@D@2@@std@@@0@U_Nonscalar_ptr_iterator_tag@0@U_Range_checked_iterator_tag@0@@Z 0043cd50 f i shared:DatabaseMysql.obj
 0001:0003be50       ??$unchecked_fill_n@PAPAPAVSqlOperation@@IPAPAV1@@stdext@@YAXPAPAPAVSqlOperation@@IABQAPAV1@@Z 0043ce50 f i shared:DatabaseMysql.obj
 0001:0003beb0       ??$unchecked_fill_n@PAPAPBDIPAPBD@stdext@@YAXPAPAPBDIABQAPBD@Z 0043ceb0 f i shared:DatabaseMysql.obj
 0001:0003bf10       ??0Config@@QAE@XZ          0043cf10 f   shared:Config.obj
 0001:0003bf40       ??1Config@@QAE@XZ          0043cf40 f   shared:Config.obj
 0001:0003bfc0       ?SetSource@Config@@QAE_NPBD_N@Z 0043cfc0 f   shared:Config.obj
 0001:0003bff0       ?Reload@Config@@QAE_NXZ    0043cff0 f   shared:Config.obj
 0001:0003c110       ?GetString@Config@@QAE_NPBDPAV?$basic_string@DU?$char_traits@D@std@@V?$allocator@D@2@@std@@@Z 0043d110 f   shared:Config.obj
 0001:0003c170       ?GetString@Config@@QAE_NPBDPAPBD@Z 0043d170 f   shared:Config.obj
 0001:0003c1d0       ?GetStringDefault@Config@@QAE?AV?$basic_string@DU?$char_traits@D@std@@V?$allocator@D@2@@std@@PBD0@Z 0043d1d0 f   shared:Config.obj
 0001:0003c270       ?GetBool@Config@@QAE_NPBDPA_N@Z 0043d270 f   shared:Config.obj
 0001:0003c350       ?GetBoolDefault@Config@@QAE_NPBD_N@Z 0043d350 f   shared:Config.obj
 0001:0003c390       ?GetInt@Config@@QAE_NPBDPAH@Z 0043d390 f   shared:Config.obj
 0001:0003c400       ?GetFloat@Config@@QAE_NPBDPAM@Z 0043d400 f   shared:Config.obj
 0001:0003c470       ?GetIntDefault@Config@@QAEHPBDH@Z 0043d470 f   shared:Config.obj
 0001:0003c4b0       ?GetFloatDefault@Config@@QAEMPBDM@Z 0043d4b0 f   shared:Config.obj
 0001:0003c4f0       ??0?$Singleton@VConfig@@V?$SingleThreaded@VConfig@@@MaNGOS@@V?$OperatorNew@VConfig@@@3@V?$ObjectLifeTime@VConfig@@@3@@MaNGOS@@IAE@XZ 0043d4f0 f i shared:Config.obj
 0001:0003c500       ??0ThreadPriority@ACE_Based@@QAE@XZ 0043d500 f   shared:Threading.obj
 0001:0003c820       ?getPriority@ThreadPriority@ACE_Based@@QBEHW4Priority@2@@Z 0043d820 f   shared:Threading.obj
 0001:0003c850       ??0Thread@ACE_Based@@QAE@XZ 0043d850 f   shared:Threading.obj
 0001:0003c880       ??0Thread@ACE_Based@@QAE@PAVRunnable@1@@Z 0043d880 f   shared:Threading.obj
 0001:0003c960       ??1Thread@ACE_Based@@QAE@XZ 0043d960 f   shared:Threading.obj
 0001:0003c990       ?decReference@Runnable@ACE_Based@@QAEXXZ 0043d990 f i shared:Threading.obj
 0001:0003c9e0       ?start@Thread@ACE_Based@@QAE_NXZ 0043d9e0 f   shared:Threading.obj
 0001:0003ca60       ?wait@Thread@ACE_Based@@QAE_NXZ 0043da60 f   shared:Threading.obj
 0001:0003cac0       ?destroy@Thread@ACE_Based@@QAEXXZ 0043dac0 f   shared:Threading.obj
 0001:0003cb20       ?suspend@Thread@ACE_Based@@QAEXXZ 0043db20 f   shared:Threading.obj
 0001:0003cb40       ?resume@Thread@ACE_Based@@QAEXXZ 0043db40 f   shared:Threading.obj
 0001:0003cb60       ?ThreadTask@Thread@ACE_Based@@CAKPAX@Z 0043db60 f   shared:Threading.obj
 0001:0003cb90       ?currentId@Thread@ACE_Based@@SAKXZ 0043db90 f   shared:Threading.obj
 0001:0003cba0       ?currentHandle@Thread@ACE_Based@@SAPAXXZ 0043dba0 f   shared:Threading.obj
 0001:0003cbc0       ?current@Thread@ACE_Based@@SAPAV12@XZ 0043dbc0 f   shared:Threading.obj
 0001:0003ccc0       ?setPriority@Thread@ACE_Based@@QAEXW4Priority@2@@Z 0043dcc0 f   shared:Threading.obj
 0001:0003cd70       ?Sleep@Thread@ACE_Based@@SAXK@Z 0043dd70 f   shared:Threading.obj
 0001:0003cdb0       ??0?$vector@HV?$allocator@H@std@@@std@@QAE@XZ 0043ddb0 f i shared:Threading.obj
 0001:0003ce20       ??1?$vector@HV?$allocator@H@std@@@std@@QAE@XZ 0043de20 f i shared:Threading.obj
 0001:0003ce70       ?push_back@?$vector@HV?$allocator@H@std@@@std@@QAEXABH@Z 0043de70 f i shared:Threading.obj
 0001:0003cf40       ??1?$_Vector_val@HV?$allocator@H@std@@@std@@QAE@XZ 0043df40 f i shared:Threading.obj
 0001:0003cf50       ?insert@?$vector@HV?$allocator@H@std@@@std@@QAE?AV?$_Vector_iterator@HV?$allocator@H@std@@@2@V?$_Vector_const_iterator@HV?$allocator@H@std@@@2@ABH@Z 0043df50 f i shared:Threading.obj
 0001:0003cfe0       ?_Buy@?$vector@HV?$allocator@H@std@@@std@@IAE_NI@Z 0043dfe0 f i shared:Threading.obj
 0001:0003d080       ?_Tidy@?$vector@HV?$allocator@H@std@@@std@@IAEXXZ 0043e080 f i shared:Threading.obj
 0001:0003d100       ?_Insert_n@?$vector@HV?$allocator@H@std@@@std@@IAEXV?$_Vector_const_iterator@HV?$allocator@H@std@@@2@IABH@Z 0043e100 f i shared:Threading.obj
 0001:0003d7a0       ?_Ufill@?$vector@HV?$allocator@H@std@@@std@@IAEPAHPAHIABH@Z 0043e7a0 f i shared:Threading.obj
 0001:0003d7f0       ?_Xlen@?$vector@HV?$allocator@H@std@@@std@@KAXXZ 0043e7f0 f i shared:Threading.obj
 0001:0003d890       ?ts_object@?$ACE_TSS@VThread@ACE_Based@@@@QBEPAVThread@ACE_Based@@XZ 0043e890 f i shared:Threading.obj
 0001:0003d8e0       ?ts_object@?$ACE_TSS@VThread@ACE_Based@@@@QAEPAVThread@ACE_Based@@PAV23@@Z 0043e8e0 f i shared:Threading.obj
 0001:0003d960       ??$_Unchecked_move_backward@PAHPAH@stdext@@YAPAHPAH00@Z 0043e960 f i shared:Threading.obj
 0001:0003d9f0       ??$_Allocate@H@std@@YAPAHIPAH@Z 0043e9f0 f i shared:Threading.obj
 0001:0003da50       ??E?$ACE_Atomic_Op_Ex@VACE_Thread_Mutex@@H@@QAEHXZ 0043ea50 f i shared:Threading.obj
 0001:0003db30       ??F?$ACE_Atomic_Op_Ex@VACE_Thread_Mutex@@H@@QAEHXZ 0043eb30 f i shared:Threading.obj
 0001:0003dc10       ?ts_init@?$ACE_TSS@VThread@ACE_Based@@@@IAEHXZ 0043ec10 f i shared:Threading.obj
 0001:0003dd70       ?cleanup@?$ACE_TSS@VThread@ACE_Based@@@@KAXPAX@Z 0043ed70 f i shared:Threading.obj
 0001:0003ddc0       ??$unchecked_fill_n@PAHIH@stdext@@YAXPAHIABH@Z 0043edc0 f i shared:Threading.obj
 0001:0003de20       ??$unchecked_uninitialized_copy@PAHPAHV?$allocator@H@std@@@stdext@@YAPAHPAH00AAV?$allocator@H@std@@@Z 0043ee20 f i shared:Threading.obj
 0001:0003de90       ??$_Uninit_copy@PAHPAHV?$allocator@H@std@@@std@@YAPAHPAH00AAV?$allocator@H@0@U_Scalar_ptr_iterator_tag@0@U_Range_checked_iterator_tag@0@@Z 0043ee90 f i shared:Threading.obj
 0001:0003dee0       ??0?$ACE_TSS@VThread@ACE_Based@@@@QAE@PAVThread@ACE_Based@@@Z 0043eee0 f i shared:Threading.obj
 0001:0003e010       ?make_TSS_TYPE@?$ACE_TSS@VThread@ACE_Based@@@@UBEPAVThread@ACE_Based@@XZ 0043f010 f i shared:Threading.obj
 0001:0003e0c0       ??_G?$ACE_TSS@VThread@ACE_Based@@@@UAEPAXI@Z 0043f0c0 f i shared:Threading.obj
 0001:0003e0c0       ??_E?$ACE_TSS@VThread@ACE_Based@@@@UAEPAXI@Z 0043f0c0 f i shared:Threading.obj
 0001:0003e0f0       ??1?$ACE_TSS@VThread@ACE_Based@@@@UAE@XZ 0043f0f0 f i shared:Threading.obj
 0001:0003e180       ?irand@@YAHHH@Z            0043f180 f   shared:Util.obj
 0001:0003e1b0       ?randInt@MTRand@@QAEIABI@Z 0043f1b0 f i shared:Util.obj
 0001:0003e220       ?randInt@MTRand@@QAEIXZ    0043f220 f i shared:Util.obj
 0001:0003e2c0       ?reload@MTRand@@IAEXXZ     0043f2c0 f i shared:Util.obj
 0001:0003e410       ?urand@@YAIII@Z            0043f410 f   shared:Util.obj
 0001:0003e440       ?rand32@@YAHXZ             0043f440 f   shared:Util.obj
 0001:0003e460       ?rand_norm@@YANXZ          0043f460 f   shared:Util.obj
 0001:0003e4a0       ?rand_chance@@YANXZ        0043f4a0 f   shared:Util.obj
 0001:0003e4f0       ?StrSplit@@YA?AV?$vector@V?$basic_string@DU?$char_traits@D@std@@V?$allocator@D@2@@std@@V?$allocator@V?$basic_string@DU?$char_traits@D@std@@V?$allocator@D@2@@std@@@2@@std@@ABV?$basic_string@DU?$char_traits@D@std@@V?$allocator@D@2@@2@0@Z 0043f4f0 f   shared:Util.obj
 0001:0003e680       ?stripLineInvisibleChars@@YAXAAV?$basic_string@DU?$char_traits@D@std@@V?$allocator@D@2@@std@@@Z 0043f680 f   shared:Util.obj
 0001:0003e840       ?secsToTimeString@@YA?AV?$basic_string@DU?$char_traits@D@std@@V?$allocator@D@2@@std@@I_N0@Z 0043f840 f   shared:Util.obj
 0001:0003ea60       ?TimeStringToSecs@@YAIABV?$basic_string@DU?$char_traits@D@std@@V?$allocator@D@2@@std@@@Z 0043fa60 f   shared:Util.obj
 0001:0003ebc0       ?TimeToTimestampStr@@YA?AV?$basic_string@DU?$char_traits@D@std@@V?$allocator@D@2@@std@@_J@Z 0043fbc0 f   shared:Util.obj
 0001:0003ec60       ?IsIPAddress@@YA_NPBD@Z    0043fc60 f   shared:Util.obj
 0001:0003ec90       ?CreatePIDFile@@YAIABV?$basic_string@DU?$char_traits@D@std@@V?$allocator@D@2@@std@@@Z 0043fc90 f   shared:Util.obj
 0001:0003ecf0       ?utf8length@@YAIAAV?$basic_string@DU?$char_traits@D@std@@V?$allocator@D@2@@std@@@Z 0043fcf0 f   shared:Util.obj
 0001:0003edb0       ?utf8truncate@@YAXAAV?$basic_string@DU?$char_traits@D@std@@V?$allocator@D@2@@std@@I@Z 0043fdb0 f   shared:Util.obj
 0001:0003efb0       ?Utf8toWStr@@YA_NPBDIPA_WAAI@Z 0043ffb0 f   shared:Util.obj
 0001:0003f0b0       ?Utf8toWStr@@YA_NABV?$basic_string@DU?$char_traits@D@std@@V?$allocator@D@2@@std@@AAV?$basic_string@_WU?$char_traits@_W@std@@V?$allocator@_W@2@@2@@Z 004400b0 f   shared:Util.obj
 0001:0003f1e0       ?WStrToUtf8@@YA_NPA_WIAAV?$basic_string@DU?$char_traits@D@std@@V?$allocator@D@2@@std@@@Z 004401e0 f   shared:Util.obj
 0001:0003f320       ?WStrToUtf8@@YA_NV?$basic_string@_WU?$char_traits@_W@std@@V?$allocator@_W@2@@std@@AAV?$basic_string@DU?$char_traits@D@std@@V?$allocator@D@2@@2@@Z 00440320 f   shared:Util.obj
 0001:0003f4b0       ?GetMainPartOfName@@YA?AV?$basic_string@_WU?$char_traits@_W@std@@V?$allocator@_W@2@@std@@V12@I@Z 004404b0 f   shared:Util.obj
 0001:0003f690       ?utf8ToConsole@@YA_NABV?$basic_string@DU?$char_traits@D@std@@V?$allocator@D@2@@std@@AAV12@@Z 00440690 f   shared:Util.obj
 0001:0003f790       ?consoleToUtf8@@YA_NABV?$basic_string@DU?$char_traits@D@std@@V?$allocator@D@2@@std@@AAV12@@Z 00440790 f   shared:Util.obj
 0001:0003f890       ?Utf8FitTo@@YA_NABV?$basic_string@DU?$char_traits@D@std@@V?$allocator@D@2@@std@@V?$basic_string@_WU?$char_traits@_W@std@@V?$allocator@_W@2@@2@@Z 00440890 f   shared:Util.obj
 0001:0003f9a0       ?wstrToLower@@YAXAAV?$basic_string@_WU?$char_traits@_W@std@@V?$allocator@_W@2@@std@@@Z 004409a0 f i shared:Util.obj
 0001:0003fa00       ?wcharToLower@@YA_W_W@Z    00440a00 f i shared:Util.obj
 0001:0003faf0       ?utf8printf@@YAXPAU_iobuf@@PBDZZ 00440af0 f   shared:Util.obj
 0001:0003fb20       ?vutf8printf@@YAXPAU_iobuf@@PBDPAPAD@Z 00440b20 f   shared:Util.obj
 0001:0003fbc0       ?hexEncodeByteArray@@YAXPAEIAAV?$basic_string@DU?$char_traits@D@std@@V?$allocator@D@2@@std@@@Z 00440bc0 f   shared:Util.obj
 0001:0003fd30       ??0?$vector@V?$basic_string@DU?$char_traits@D@std@@V?$allocator@D@2@@std@@V?$allocator@V?$basic_string@DU?$char_traits@D@std@@V?$allocator@D@2@@std@@@2@@std@@QAE@XZ 00440d30 f i shared:Util.obj
 0001:0003fda0       ?push_back@?$vector@V?$basic_string@DU?$char_traits@D@std@@V?$allocator@D@2@@std@@V?$allocator@V?$basic_string@DU?$char_traits@D@std@@V?$allocator@D@2@@std@@@2@@std@@QAEXABV?$basic_string@DU?$char_traits@D@std@@V?$allocator@D@2@@2@@Z 00440da0 f i shared:Util.obj
 0001:0003fe70       ?insert@?$vector@V?$basic_string@DU?$char_traits@D@std@@V?$allocator@D@2@@std@@V?$allocator@V?$basic_string@DU?$char_traits@D@std@@V?$allocator@D@2@@std@@@2@@std@@QAE?AV?$_Vector_iterator@V?$basic_string@DU?$char_traits@D@std@@V?$allocator@D@2@@std@@V?$allocator@V?$basic_string@DU?$char_traits@D@std@@V?$allocator@D@2@@std@@@2@@2@V?$_Vector_const_iterator@V?$basic_string@DU?$char_traits@D@std@@V?$allocator@D@2@@std@@V?$allocator@V?$basic_string@DU?$char_traits@D@std@@V?$allocator@D@2@@std@@@2@@2@ABV?$basic_string@DU?$char_traits@D@std@@V?$allocator@D@2@@2@@Z 00440e70 f i shared:Util.obj
 0001:0003ff10       ?_Insert_n@?$vector@V?$basic_string@DU?$char_traits@D@std@@V?$allocator@D@2@@std@@V?$allocator@V?$basic_string@DU?$char_traits@D@std@@V?$allocator@D@2@@std@@@2@@std@@IAEXV?$_Vector_const_iterator@V?$basic_string@DU?$char_traits@D@std@@V?$allocator@D@2@@std@@V?$allocator@V?$basic_string@DU?$char_traits@D@std@@V?$allocator@D@2@@std@@@2@@2@IABV?$basic_string@DU?$char_traits@D@std@@V?$allocator@D@2@@2@@Z 00440f10 f i shared:Util.obj
 0001:000407d0       ??$transform@V?$_String_iterator@_WU?$char_traits@_W@std@@V?$allocator@_W@2@@std@@V12@P6A_W_W@Z@std@@YA?AV?$_String_iterator@_WU?$char_traits@_W@std@@V?$allocator@_W@2@@0@V10@00P6A_W_W@Z@Z 004417d0 f i shared:Util.obj
 0001:00040880       ??C?$ACE_TSS@VMTRand@@@@QBEPAVMTRand@@XZ 00441880 f i shared:Util.obj
 0001:000408a0       ??$distance@PBD@utf8@@YAHPBD0@Z 004418a0 f i shared:Util.obj
 0001:000408e0       ??$utf8to16@PA_WPBD@utf8@@YAPA_WPBD0PA_W@Z 004418e0 f i shared:Util.obj
 0001:00040960       ??$utf16to8@PB_WPAD@utf8@@YAPADPB_W0PAD@Z 00441960 f i shared:Util.obj
 0001:00040a90       ?what@invalid_utf16@utf8@@UBEPBDXZ 00441a90 f i shared:Util.obj
 0001:00040aa0       ??_Ginvalid_utf16@utf8@@UAEPAXI@Z 00441aa0 f i shared:Util.obj
 0001:00040aa0       ??_Einvalid_utf16@utf8@@UAEPAXI@Z 00441aa0 f i shared:Util.obj
 0001:00040ad0       ??1invalid_utf16@utf8@@UAE@XZ 00441ad0 f i shared:Util.obj
 0001:00040af0       ??$utf16to8@PA_WPAD@utf8@@YAPADPA_W0PAD@Z 00441af0 f i shared:Util.obj
 0001:00040c20       ??$?6U?$char_traits@D@std@@@std@@YAAAV?$basic_ostream@DU?$char_traits@D@std@@@0@AAV10@D@Z 00441c20 f i shared:Util.obj
 0001:00040f10       ??0invalid_utf16@utf8@@QAE@ABV01@@Z 00441f10 f i shared:Util.obj
 0001:00040f50       ?ts_get@?$ACE_TSS@VMTRand@@@@IBEPAVMTRand@@XZ 00441f50 f i shared:Util.obj
 0001:00041000       ?ts_init@?$ACE_TSS@VMTRand@@@@IAEHXZ 00442000 f i shared:Util.obj
 0001:00041160       ??$next@PBD@utf8@@YAIAAPBDPBD@Z 00442160 f i shared:Util.obj
 0001:00041240       ?what@invalid_code_point@utf8@@UBEPBDXZ 00442240 f i shared:Util.obj
 0001:00041250       ??_Ginvalid_code_point@utf8@@UAEPAXI@Z 00442250 f i shared:Util.obj
 0001:00041250       ??_Einvalid_code_point@utf8@@UAEPAXI@Z 00442250 f i shared:Util.obj
 0001:00041280       ??1invalid_code_point@utf8@@UAE@XZ 00442280 f i shared:Util.obj
 0001:000412a0       ?what@invalid_utf8@utf8@@UBEPBDXZ 004422a0 f i shared:Util.obj
 0001:000412b0       ??_Ginvalid_utf8@utf8@@UAEPAXI@Z 004422b0 f i shared:Util.obj
 0001:000412b0       ??_Einvalid_utf8@utf8@@UAEPAXI@Z 004422b0 f i shared:Util.obj
 0001:000412e0       ??1invalid_utf8@utf8@@UAE@XZ 004422e0 f i shared:Util.obj
 0001:00041300       ?what@not_enough_room@utf8@@UBEPBDXZ 00442300 f i shared:Util.obj
 0001:00041310       ??$append@PAD@utf8@@YAPADIPAD@Z 00442310 f i shared:Util.obj
 0001:00041500       ??1not_enough_room@utf8@@UAE@XZ 00442500 f i shared:Util.obj
 0001:00041520       ??0not_enough_room@utf8@@QAE@ABV01@@Z 00442520 f i shared:Util.obj
 0001:00041550       ??0invalid_utf8@utf8@@QAE@ABV01@@Z 00442550 f i shared:Util.obj
 0001:00041590       ??0invalid_code_point@utf8@@QAE@ABV01@@Z 00442590 f i shared:Util.obj
 0001:000415d0       ??_Enot_enough_room@utf8@@UAEPAXI@Z 004425d0 f i shared:Util.obj
 0001:000415d0       ??_Gnot_enough_room@utf8@@UAEPAXI@Z 004425d0 f i shared:Util.obj
 0001:00041600       ?cleanup@?$ACE_TSS@VMTRand@@@@KAXPAX@Z 00442600 f i shared:Util.obj
 0001:00041620       ??$validate_next@PBD@internal@utf8@@YA?AW4utf_error@01@AAPBDPBDPAI@Z 00442620 f i shared:Util.obj
 0001:00041ad0       ??$_Uninit_move@PAV?$basic_string@DU?$char_traits@D@std@@V?$allocator@D@2@@std@@PAV12@V?$allocator@V?$basic_string@DU?$char_traits@D@std@@V?$allocator@D@2@@std@@@2@@std@@YAPAV?$basic_string@DU?$char_traits@D@std@@V?$allocator@D@2@@0@PAV10@00AAV?$allocator@V?$basic_string@DU?$char_traits@D@std@@V?$allocator@D@2@@std@@@0@U_Swap_move_tag@0@U_Range_checked_iterator_tag@0@@Z 00442ad0 f i shared:Util.obj
 0001:00041c10       ??$sequence_length@PBD@internal@utf8@@YAHPBD@Z 00442c10 f i shared:Util.obj
 0001:00041c80       ??0?$ACE_TSS@VMTRand@@@@QAE@PAVMTRand@@@Z 00442c80 f i shared:Util.obj
 0001:00041db0       ?make_TSS_TYPE@?$ACE_TSS@VMTRand@@@@UBEPAVMTRand@@XZ 00442db0 f i shared:Util.obj
 0001:00041e60       ?seed@MTRand@@QAEXXZ       00442e60 f i shared:Util.obj
 0001:00041eb0       ?initialize@MTRand@@IAEXI@Z 00442eb0 f i shared:Util.obj
 0001:00041f30       ?hash@MTRand@@KAI_JJ@Z     00442f30 f i shared:Util.obj
 0001:00041fe0       ??_E?$ACE_TSS@VMTRand@@@@UAEPAXI@Z 00442fe0 f i shared:Util.obj
 0001:00041fe0       ??_G?$ACE_TSS@VMTRand@@@@UAEPAXI@Z 00442fe0 f i shared:Util.obj
 0001:00042010       ??1?$ACE_TSS@VMTRand@@@@UAE@XZ 00443010 f i shared:Util.obj
 0001:000420a0       ?WinServiceInstall@@YA_NXZ 004430a0 f   shared:ServiceWin32.obj
 0001:00042250       ?WinServiceUninstall@@YA_NXZ 00443250 f   shared:ServiceWin32.obj
 0001:000422d0       ?ServiceControlHandler@@YGXK@Z 004432d0 f   shared:ServiceWin32.obj
 0001:000423a0       ?ServiceMain@@YGXKQAPAD@Z  004433a0 f   shared:ServiceWin32.obj
 0001:00042550       ?WinServiceRun@@YA_NXZ     00443550 f   shared:ServiceWin32.obj
 0001:000425b0       ??0QueryResultMysql@@QAE@PAUst_mysql_res@@PAUst_mysql_field@@_KI@Z 004435b0 f   shared:QueryResultMysql.obj
 0001:000427e0       ??_GQueryResultMysql@@UAEPAXI@Z 004437e0 f i shared:QueryResultMysql.obj
 0001:000427e0       ??_EQueryResultMysql@@UAEPAXI@Z 004437e0 f i shared:QueryResultMysql.obj
 0001:00042810       ??_EField@@QAEPAXI@Z       00443810 f i shared:QueryResultMysql.obj
 0001:00042880       ??1QueryResultMysql@@UAE@XZ 00443880 f   shared:QueryResultMysql.obj
 0001:000428e0       ?NextRow@QueryResultMysql@@UAE_NXZ 004438e0 f   shared:QueryResultMysql.obj
 0001:00042960       ?EndQuery@QueryResultMysql@@AAEXXZ 00443960 f   shared:QueryResultMysql.obj
 0001:000429d0       ?ConvertNativeType@QueryResultMysql@@ABE?AW4DataTypes@Field@@W4enum_field_types@@@Z 004439d0 f   shared:QueryResultMysql.obj
 0001:00042b30       ?Execute@SqlStatement@@UAEXPAVDatabase@@@Z 00443b30 f   shared:SqlOperations.obj
 0001:00042b60       ?Execute@SqlTransaction@@UAEXPAVDatabase@@@Z 00443b60 f   shared:SqlOperations.obj
 0001:00042cc0       ?Execute@SqlQuery@@UAEXPAVDatabase@@@Z 00443cc0 f   shared:SqlOperations.obj
 0001:00042d20       ?Update@SqlResultQueue@@QAEXXZ 00443d20 f   shared:SqlOperations.obj
 0001:00042d80       ?Execute@SqlQueryHolder@@QAE_NPAVIQueryCallback@MaNGOS@@PAVSqlDelayThread@@PAVSqlResultQueue@@@Z 00443d80 f   shared:SqlOperations.obj
 0001:00042e20       ??_ESqlQueryHolderEx@@UAEPAXI@Z 00443e20 f i shared:SqlOperations.obj
 0001:00042e20       ??_GSqlQueryHolderEx@@UAEPAXI@Z 00443e20 f i shared:SqlOperations.obj
 0001:00042e50       ?SetQuery@SqlQueryHolder@@QAE_NIPBD@Z 00443e50 f   shared:SqlOperations.obj
 0001:00042f30       ?SetPQuery@SqlQueryHolder@@QAA_NIPBDZZ 00443f30 f   shared:SqlOperations.obj
 0001:00042ff0       ?GetResult@SqlQueryHolder@@QAEPAVQueryResult@@I@Z 00443ff0 f   shared:SqlOperations.obj
 0001:00043060       ?SetResult@SqlQueryHolder@@QAEXIPAVQueryResult@@@Z 00444060 f   shared:SqlOperations.obj
 0001:000430a0       ??1SqlQueryHolder@@QAE@XZ  004440a0 f   shared:SqlOperations.obj
 0001:00043190       ?SetSize@SqlQueryHolder@@QAEXI@Z 00444190 f   shared:SqlOperations.obj
 0001:000431d0       ?Execute@SqlQueryHolderEx@@UAEXPAVDatabase@@@Z 004441d0 f   shared:SqlOperations.obj
 0001:00043280       ?add@?$LockedQueue@PAVIQueryCallback@MaNGOS@@VACE_Thread_Mutex@@V?$deque@PAVIQueryCallback@MaNGOS@@V?$allocator@PAVIQueryCallback@MaNGOS@@@std@@@std@@@ACE_Based@@QAEXABQAVIQueryCallback@MaNGOS@@@Z 00444280 f i shared:SqlOperations.obj
 0001:00043310       ?next@?$LockedQueue@PAVIQueryCallback@MaNGOS@@VACE_Thread_Mutex@@V?$deque@PAVIQueryCallback@MaNGOS@@V?$allocator@PAVIQueryCallback@MaNGOS@@@std@@@std@@@ACE_Based@@QAE_NAAPAVIQueryCallback@MaNGOS@@@Z 00444310 f i shared:SqlOperations.obj
 0001:00043420       ??1?$vector@U?$pair@PBDPAVQueryResult@@@std@@V?$allocator@U?$pair@PBDPAVQueryResult@@@std@@@2@@std@@QAE@XZ 00444420 f i shared:SqlOperations.obj
 0001:00043470       ??1?$_Vector_val@U?$pair@PBDPAVQueryResult@@@std@@V?$allocator@U?$pair@PBDPAVQueryResult@@@std@@@2@@std@@QAE@XZ 00444470 f i shared:SqlOperations.obj
 0001:00043480       ?pop_front@?$deque@PBDV?$allocator@PBD@std@@@std@@QAEXXZ 00444480 f i shared:SqlOperations.obj
 0001:00043500       ?pop_front@?$deque@PAVIQueryCallback@MaNGOS@@V?$allocator@PAVIQueryCallback@MaNGOS@@@std@@@std@@QAEXXZ 00444500 f i shared:SqlOperations.obj
 0001:00043580       ?push_back@?$deque@PAVIQueryCallback@MaNGOS@@V?$allocator@PAVIQueryCallback@MaNGOS@@@std@@@std@@QAEXABQAVIQueryCallback@MaNGOS@@@Z 00444580 f i shared:SqlOperations.obj
 0001:000436d0       ?resize@?$vector@U?$pair@PBDPAVQueryResult@@@std@@V?$allocator@U?$pair@PBDPAVQueryResult@@@std@@@2@@std@@QAEXIU?$pair@PBDPAVQueryResult@@@2@@Z 004446d0 f i shared:SqlOperations.obj
 0001:000437a0       ?_Tidy@?$vector@U?$pair@PBDPAVQueryResult@@@std@@V?$allocator@U?$pair@PBDPAVQueryResult@@@std@@@2@@std@@IAEXXZ 004447a0 f i shared:SqlOperations.obj
 0001:00043840       ?_Growmap@?$deque@PAVIQueryCallback@MaNGOS@@V?$allocator@PAVIQueryCallback@MaNGOS@@@std@@@std@@IAEXI@Z 00444840 f i shared:SqlOperations.obj
 0001:00043b60       ?erase@?$vector@U?$pair@PBDPAVQueryResult@@@std@@V?$allocator@U?$pair@PBDPAVQueryResult@@@std@@@2@@std@@QAE?AV?$_Vector_iterator@U?$pair@PBDPAVQueryResult@@@std@@V?$allocator@U?$pair@PBDPAVQueryResult@@@std@@@2@@2@V?$_Vector_const_iterator@U?$pair@PBDPAVQueryResult@@@std@@V?$allocator@U?$pair@PBDPAVQueryResult@@@std@@@2@@2@0@Z 00444b60 f i shared:SqlOperations.obj
 0001:00043c60       ?_Insert_n@?$vector@U?$pair@PBDPAVQueryResult@@@std@@V?$allocator@U?$pair@PBDPAVQueryResult@@@std@@@2@@std@@IAEXV?$_Vector_const_iterator@U?$pair@PBDPAVQueryResult@@@std@@V?$allocator@U?$pair@PBDPAVQueryResult@@@std@@@2@@2@IABU?$pair@PBDPAVQueryResult@@@2@@Z 00444c60 f i shared:SqlOperations.obj
 0001:000444f0       ?_Xlen@?$vector@U?$pair@PBDPAVQueryResult@@@std@@V?$allocator@U?$pair@PBDPAVQueryResult@@@std@@@2@@std@@KAXXZ 004454f0 f i shared:SqlOperations.obj
 0001:00044590       ?_Xlen@?$deque@PAVIQueryCallback@MaNGOS@@V?$allocator@PAVIQueryCallback@MaNGOS@@@std@@@std@@KAXXZ 00445590 f i shared:SqlOperations.obj
 0001:00044630       ??D?$_Deque_const_iterator@PBDV?$allocator@PBD@std@@$0A@@std@@QBEABQBDXZ 00445630 f i shared:SqlOperations.obj
 0001:00044700       ??D?$_Deque_const_iterator@PAVIQueryCallback@MaNGOS@@V?$allocator@PAVIQueryCallback@MaNGOS@@@std@@$0A@@std@@QBEABQAVIQueryCallback@MaNGOS@@XZ 00445700 f i shared:SqlOperations.obj
 0001:000447d0       ??$unchecked_uninitialized_copy@PAPAPAVIQueryCallback@MaNGOS@@PAPAPAV12@V?$allocator@PAPAVIQueryCallback@MaNGOS@@@std@@@stdext@@YAPAPAPAVIQueryCallback@MaNGOS@@PAPAPAV12@00AAV?$allocator@PAPAVIQueryCallback@MaNGOS@@@std@@@Z 004457d0 f i shared:SqlOperations.obj
 0001:00044840       ??$unchecked_uninitialized_fill_n@PAPAPAVIQueryCallback@MaNGOS@@IPAPAV12@V?$allocator@PAPAVIQueryCallback@MaNGOS@@@std@@@stdext@@YAXPAPAPAVIQueryCallback@MaNGOS@@IABQAPAV12@AAV?$allocator@PAPAVIQueryCallback@MaNGOS@@@std@@@Z 00445840 f i shared:SqlOperations.obj
 0001:00044880       ??$_Allocate@PAVIQueryCallback@MaNGOS@@@std@@YAPAPAVIQueryCallback@MaNGOS@@IPAPAV12@@Z 00445880 f i shared:SqlOperations.obj
 0001:000448e0       ??$_Allocate@U?$pair@PBDPAVQueryResult@@@std@@@std@@YAPAU?$pair@PBDPAVQueryResult@@@0@IPAU10@@Z 004458e0 f i shared:SqlOperations.obj
 0001:00044940       ??$_Allocate@PAPAVIQueryCallback@MaNGOS@@@std@@YAPAPAPAVIQueryCallback@MaNGOS@@IPAPAPAV12@@Z 00445940 f i shared:SqlOperations.obj
 0001:000449a0       ??$_Uninit_fill_n@PAU?$pair@PBDPAVQueryResult@@@std@@IU12@V?$allocator@U?$pair@PBDPAVQueryResult@@@std@@@2@@std@@YAXPAU?$pair@PBDPAVQueryResult@@@0@IABU10@AAV?$allocator@U?$pair@PBDPAVQueryResult@@@std@@@0@U_Nonscalar_ptr_iterator_tag@0@U_Range_checked_iterator_tag@0@@Z 004459a0 f i shared:SqlOperations.obj
 0001:00044a70       ??$unchecked_fill_n@PAPAPAVIQueryCallback@MaNGOS@@IPAPAV12@@stdext@@YAXPAPAPAVIQueryCallback@MaNGOS@@IABQAPAV12@@Z 00445a70 f i shared:SqlOperations.obj
 0001:00044ad0       ??$unchecked_uninitialized_copy@PAU?$pair@PBDPAVQueryResult@@@std@@PAU12@V?$allocator@U?$pair@PBDPAVQueryResult@@@std@@@2@@stdext@@YAPAU?$pair@PBDPAVQueryResult@@@std@@PAU12@00AAV?$allocator@U?$pair@PBDPAVQueryResult@@@std@@@2@@Z 00445ad0 f i shared:SqlOperations.obj
 0001:00044b10       ??$_Uninit_copy@PAU?$pair@PBDPAVQueryResult@@@std@@PAU12@V?$allocator@U?$pair@PBDPAVQueryResult@@@std@@@2@@std@@YAPAU?$pair@PBDPAVQueryResult@@@0@PAU10@00AAV?$allocator@U?$pair@PBDPAVQueryResult@@@std@@@0@U_Nonscalar_ptr_iterator_tag@0@U_Range_checked_iterator_tag@0@@Z 00445b10 f i shared:SqlOperations.obj
 0001:00044bf0       ??0SqlDelayThread@@QAE@PAVDatabase@@@Z 00445bf0 f   shared:SqlDelayThread.obj
 0001:00044c80       ??_GSqlDelayThread@@UAEPAXI@Z 00445c80 f i shared:SqlDelayThread.obj
 0001:00044c80       ??_ESqlDelayThread@@UAEPAXI@Z 00445c80 f i shared:SqlDelayThread.obj
 0001:00044d10       ?run@SqlDelayThread@@UAEXXZ 00445d10 f   shared:SqlDelayThread.obj
 0001:00044da0       ?Stop@SqlDelayThread@@UAEXXZ 00445da0 f   shared:SqlDelayThread.obj
 0001:00044dc0       ??0?$LockedQueue@PAVSqlOperation@@VACE_Thread_Mutex@@V?$deque@PAVSqlOperation@@V?$allocator@PAVSqlOperation@@@std@@@std@@@ACE_Based@@QAE@XZ 00445dc0 f i shared:SqlDelayThread.obj
 0001:00044e40       ?next@?$LockedQueue@PAVSqlOperation@@VACE_Thread_Mutex@@V?$deque@PAVSqlOperation@@V?$allocator@PAVSqlOperation@@@std@@@std@@@ACE_Based@@QAE_NAAPAVSqlOperation@@@Z 00445e40 f i shared:SqlDelayThread.obj
 0001:00044f50       ??0?$deque@PAVSqlOperation@@V?$allocator@PAVSqlOperation@@@std@@@std@@QAE@XZ 00445f50 f i shared:SqlDelayThread.obj
 0001:00044fa0       ?pop_front@?$deque@PAVSqlOperation@@V?$allocator@PAVSqlOperation@@@std@@@std@@QAEXXZ 00445fa0 f i shared:SqlDelayThread.obj
 0001:00045020       ??0?$_Deque_val@PAVSqlOperation@@V?$allocator@PAVSqlOperation@@@std@@@std@@IAE@V?$allocator@PAVSqlOperation@@@1@@Z 00446020 f i shared:SqlDelayThread.obj
 0001:000450d0       ??D?$_Deque_const_iterator@PAVSqlOperation@@V?$allocator@PAVSqlOperation@@@std@@$0A@@std@@QBEABQAVSqlOperation@@XZ 004460d0 f i shared:SqlDelayThread.obj
 0001:000451a0       ??0DOTCONFDocumentNode@@QAE@XZ 004461a0 f   shared:dotconfpp.obj
 0001:00045210       ??1DOTCONFDocumentNode@@QAE@XZ 00446210 f   shared:dotconfpp.obj
 0001:00045280       ?pushValue@DOTCONFDocumentNode@@AAEXPAD@Z 00446280 f   shared:dotconfpp.obj
 0001:000452e0       ?getValue@DOTCONFDocumentNode@@QBEPBDH@Z 004462e0 f   shared:dotconfpp.obj
 0001:00045310       ??0DOTCONFDocument@@QAE@W4CaseSensitive@0@@Z 00446310 f   shared:dotconfpp.obj
 0001:00045490       ??_GDOTCONFDocument@@UAEPAXI@Z 00446490 f i shared:dotconfpp.obj
 0001:00045490       ??_EDOTCONFDocument@@UAEPAXI@Z 00446490 f i shared:dotconfpp.obj
 0001:000454c0       ??1DOTCONFDocument@@UAE@XZ 004464c0 f   shared:dotconfpp.obj
 0001:00045860       ?cleanupLine@DOTCONFDocument@@AAEHPAD@Z 00446860 f   shared:dotconfpp.obj
 0001:00045f70       ?parseLine@DOTCONFDocument@@AAEHXZ 00446f70 f   shared:dotconfpp.obj
 0001:00046480       ?parseFile@DOTCONFDocument@@AAEHPAVDOTCONFDocumentNode@@@Z 00447480 f   shared:dotconfpp.obj
 0001:00046600       ?checkConfig@DOTCONFDocument@@AAEHABV?$_Iterator@$0A@@?$list@PAVDOTCONFDocumentNode@@V?$allocator@PAVDOTCONFDocumentNode@@@std@@@std@@@Z 00447600 f   shared:dotconfpp.obj
 0001:00046760       ?setContent@DOTCONFDocument@@QAEHPBD@Z 00447760 f   shared:dotconfpp.obj
 0001:00046e90       ?checkRequiredOptions@DOTCONFDocument@@AAEHXZ 00447e90 f   shared:dotconfpp.obj
 0001:00046fd0       ?error@DOTCONFDocument@@MAAXHPBD0ZZ 00447fd0 f   shared:dotconfpp.obj
 0001:00047090       ?getSubstitution@DOTCONFDocument@@AAEPADPADH@Z 00448090 f   shared:dotconfpp.obj
 0001:000472d0       ?macroSubstitute@DOTCONFDocument@@AAEHPAVDOTCONFDocumentNode@@H@Z 004482d0 f   shared:dotconfpp.obj
 0001:00047470       ?getFirstNode@DOTCONFDocument@@QBEPBVDOTCONFDocumentNode@@XZ 00448470 f   shared:dotconfpp.obj
 0001:000474c0       ?findNode@DOTCONFDocument@@QBEPBVDOTCONFDocumentNode@@PBDPBV2@1@Z 004484c0 f   shared:dotconfpp.obj
 0001:000475f0       ?setRequiredOptionNames@DOTCONFDocument@@QAEXPAPBD@Z 004485f0 f   shared:dotconfpp.obj
 0001:00047660       ??0?$list@PAVDOTCONFDocumentNode@@V?$allocator@PAVDOTCONFDocumentNode@@@std@@@std@@QAE@XZ 00448660 f i shared:dotconfpp.obj
 0001:000476f0       ??1?$list@PAVDOTCONFDocumentNode@@V?$allocator@PAVDOTCONFDocumentNode@@@std@@@std@@QAE@XZ 004486f0 f i shared:dotconfpp.obj
 0001:00047770       ??0?$list@PADV?$allocator@PAD@std@@@std@@QAE@XZ 00448770 f i shared:dotconfpp.obj
 0001:00047800       ??1?$list@PADV?$allocator@PAD@std@@@std@@QAE@XZ 00448800 f i shared:dotconfpp.obj
 0001:00047880       ?clear@?$list@PADV?$allocator@PAD@std@@@std@@QAEXXZ 00448880 f i shared:dotconfpp.obj
 0001:00047900       ??1?$_List_val@PAVDOTCONFDocumentNode@@V?$allocator@PAVDOTCONFDocumentNode@@@std@@@std@@QAE@XZ 00448900 f i shared:dotconfpp.obj
 0001:00047910       ??1?$_List_val@PADV?$allocator@PAD@std@@@std@@QAE@XZ 00448910 f i shared:dotconfpp.obj
 0001:00047920       ?_Insert@?$list@PAVDOTCONFDocumentNode@@V?$allocator@PAVDOTCONFDocumentNode@@@std@@@std@@QAEXV?$_Const_iterator@$0A@@12@ABQAVDOTCONFDocumentNode@@@Z 00448920 f i shared:dotconfpp.obj
 0001:00047980       ?_Buynode@?$list@PAVDOTCONFDocumentNode@@V?$allocator@PAVDOTCONFDocumentNode@@@std@@@std@@IAEPAU_Node@?$_List_nod@PAVDOTCONFDocumentNode@@V?$allocator@PAVDOTCONFDocumentNode@@@std@@@2@XZ 00448980 f i shared:dotconfpp.obj
 0001:00047a80       ?_Insert@?$list@PADV?$allocator@PAD@std@@@std@@QAEXV?$_Const_iterator@$0A@@12@ABQAD@Z 00448a80 f i shared:dotconfpp.obj
 0001:00047ae0       ?erase@?$list@PADV?$allocator@PAD@std@@@std@@QAE?AV?$_Iterator@$0A@@12@V?$_Const_iterator@$0A@@12@@Z 00448ae0 f i shared:dotconfpp.obj
 0001:00047b70       ?_Buynode@?$list@PADV?$allocator@PAD@std@@@std@@IAEPAU_Node@?$_List_nod@PADV?$allocator@PAD@std@@@2@XZ 00448b70 f i shared:dotconfpp.obj
 0001:00047c70       ?clear@?$list@PAVDOTCONFDocumentNode@@V?$allocator@PAVDOTCONFDocumentNode@@@std@@@std@@QAEXXZ 00448c70 f i shared:dotconfpp.obj
 0001:00047cf0       ?_Buynode@?$list@PAVDOTCONFDocumentNode@@V?$allocator@PAVDOTCONFDocumentNode@@@std@@@std@@IAEPAU_Node@?$_List_nod@PAVDOTCONFDocumentNode@@V?$allocator@PAVDOTCONFDocumentNode@@@std@@@2@PAU342@0ABQAVDOTCONFDocumentNode@@@Z 00448cf0 f i shared:dotconfpp.obj
 0001:00047e20       ?_Incsize@?$list@PAVDOTCONFDocumentNode@@V?$allocator@PAVDOTCONFDocumentNode@@@std@@@std@@IAEXI@Z 00448e20 f i shared:dotconfpp.obj
 0001:00047f00       ?allocate@?$allocator@U_Node@?$_List_nod@PAVDOTCONFDocumentNode@@V?$allocator@PAVDOTCONFDocumentNode@@@std@@@std@@@std@@QAEPAU_Node@?$_List_nod@PAVDOTCONFDocumentNode@@V?$allocator@PAVDOTCONFDocumentNode@@@std@@@2@I@Z 00448f00 f i shared:dotconfpp.obj
 0001:00047f20       ?_Buynode@?$list@PADV?$allocator@PAD@std@@@std@@IAEPAU_Node@?$_List_nod@PADV?$allocator@PAD@std@@@2@PAU342@0ABQAD@Z 00448f20 f i shared:dotconfpp.obj
 0001:00048050       ?_Incsize@?$list@PADV?$allocator@PAD@std@@@std@@IAEXI@Z 00449050 f i shared:dotconfpp.obj
 0001:00048130       ?allocate@?$allocator@U_Node@?$_List_nod@PADV?$allocator@PAD@std@@@std@@@std@@QAEPAU_Node@?$_List_nod@PADV?$allocator@PAD@std@@@2@I@Z 00449130 f i shared:dotconfpp.obj
 0001:00048150       ??$_Allocate@U_Node@?$_List_nod@PAVDOTCONFDocumentNode@@V?$allocator@PAVDOTCONFDocumentNode@@@std@@@std@@@std@@YAPAU_Node@?$_List_nod@PAVDOTCONFDocumentNode@@V?$allocator@PAVDOTCONFDocumentNode@@@std@@@0@IPAU120@@Z 00449150 f i shared:dotconfpp.obj
 0001:000481b0       ??$_Allocate@U_Node@?$_List_nod@PADV?$allocator@PAD@std@@@std@@@std@@YAPAU_Node@?$_List_nod@PADV?$allocator@PAD@std@@@0@IPAU120@@Z 004491b0 f i shared:dotconfpp.obj
 0001:00048210       ??0Field@@QAE@XZ           00449210 f   shared:Field.obj
 0001:00048240       ??0Field@@QAE@AAV0@@Z      00449240 f   shared:Field.obj
 0001:000482c0       ??0Field@@QAE@PBDW4DataTypes@0@@Z 004492c0 f   shared:Field.obj
 0001:00048330       ??1Field@@QAE@XZ           00449330 f   shared:Field.obj
 0001:00048360       ?SetValue@Field@@QAEXPBD@Z 00449360 f   shared:Field.obj
 0001:000483e0       ??0PoolChunk@AsyncDNSMemPool@@QAE@I@Z 004493e0 f   shared:mempool.obj
 0001:00048430       ??1PoolChunk@AsyncDNSMemPool@@QAE@XZ 00449430 f   shared:mempool.obj
 0001:00048450       ??0AsyncDNSMemPool@@QAE@I@Z 00449450 f   shared:mempool.obj
 0001:000484a0       ??_EAsyncDNSMemPool@@UAEPAXI@Z 004494a0 f i shared:mempool.obj
 0001:000484a0       ??_GAsyncDNSMemPool@@UAEPAXI@Z 004494a0 f i shared:mempool.obj
 0001:000484d0       ??1AsyncDNSMemPool@@UAE@XZ 004494d0 f   shared:mempool.obj
 0001:00048560       ?initialize@AsyncDNSMemPool@@QAEHXZ 00449560 f   shared:mempool.obj
 0001:00048620       ?addNewChunk@AsyncDNSMemPool@@AAEXI@Z 00449620 f   shared:mempool.obj
 0001:00048740       ?alloc@AsyncDNSMemPool@@QAEPAXI@Z 00449740 f   shared:mempool.obj
 0001:000487f0       ?free@AsyncDNSMemPool@@QAEXXZ 004497f0 f   shared:mempool.obj
 0001:00048950       ?calloc@AsyncDNSMemPool@@QAEPAXI@Z 00449950 f   shared:mempool.obj
 0001:00048980       ?strdup@AsyncDNSMemPool@@QAEPADPBD@Z 00449980 f   shared:mempool.obj
 0001:000489b2       ?c_str@ACE_Stack_Trace@@QBEPBDXZ 004499b2 f   ace:ACE.dll
 0001:000489b8       ??0ACE_Stack_Trace@@QAE@HI@Z 004499b8 f   ace:ACE.dll
 0001:000489be       ??1ACE_Thread_Mutex@@QAE@XZ 004499be f   ace:ACE.dll
 0001:000489c4       ??0ACE_Thread_Mutex@@QAE@PBDPAUACE_mutexattr_t@@@Z 004499c4 f   ace:ACE.dll
 0001:000489ca       ?release@ACE_Thread_Mutex@@QAEHXZ 004499ca f   ace:ACE.dll
 0001:000489d0       ?acquire@ACE_Thread_Mutex@@QAEHXZ 004499d0 f   ace:ACE.dll
 0001:000489d6       ??1ACE_Sched_Priority_Iterator@@QAE@XZ 004499d6 f   ace:ACE.dll
 0001:000489dc       ?next@ACE_Sched_Priority_Iterator@@QAEXXZ 004499dc f   ace:ACE.dll
 0001:000489e2       ?priority@ACE_Sched_Priority_Iterator@@QBEHXZ 004499e2 f   ace:ACE.dll
 0001:000489e8       ?more@ACE_Sched_Priority_Iterator@@QBEHXZ 004499e8 f   ace:ACE.dll
 0001:000489ee       ??0ACE_Sched_Priority_Iterator@@QAE@ABHH@Z 004499ee f   ace:ACE.dll
 0001:000489f4       ?priority_max@ACE_Sched_Params@@SAHHH@Z 004499f4 f   ace:ACE.dll
 0001:000489fa       ?priority_min@ACE_Sched_Params@@SAHHH@Z 004499fa f   ace:ACE.dll
 0001:00048a00       ?spawn@ACE_Thread@@SAHP6AKPAX@Z0JPAKPAPAXJ0IPAVACE_Thread_Adapter@@PAPBD@Z 00449a00 f   ace:ACE.dll
 0001:00048a06       ?join@ACE_Thread@@SAHPAXPAK@Z 00449a06 f   ace:ACE.dll
 0001:00048a0c       ?kill@ACE_Thread@@SAHKH@Z  00449a0c f   ace:ACE.dll
 0001:00048a12       ?suspend@ACE_Thread@@SAHPAX@Z 00449a12 f   ace:ACE.dll
 0001:00048a18       ?resume@ACE_Thread@@SAHPAX@Z 00449a18 f   ace:ACE.dll
 0001:00048a1e       ?self@ACE_Thread@@SAKXZ    00449a1e f   ace:ACE.dll
 0001:00048a24       ?self@ACE_Thread@@SAXAAPAX@Z 00449a24 f   ace:ACE.dll
 0001:00048a2a       ?setprio@ACE_Thread@@SAHPAXHH@Z 00449a2a f   ace:ACE.dll
 0001:00048a30       ?msec@ACE_Time_Value@@QBEKXZ 00449a30 f   ace:ACE.dll
 0001:00048a36       ??0ACE_Time_Value@@QAE@_JJ@Z 00449a36 f   ace:ACE.dll
 0001:00048a3c       ?getspecific@ACE_Thread@@SAHKPAPAX@Z 00449a3c f   ace:ACE.dll
 0001:00048a42       ?setspecific@ACE_Thread@@SAHKPAX@Z 00449a42 f   ace:ACE.dll
 0001:00048a48       ?keycreate@ACE_Thread@@SAHPAKP6AXPAX@Z1@Z 00449a48 f   ace:ACE.dll
 0001:00048a4e       ?log@ACE_Log_Msg@@QAAHW4ACE_Log_Priority@@PBDZZ 00449a4e f   ace:ACE.dll
 0001:00048a54       ?conditional_set@ACE_Log_Msg@@QAEXPBDHHH@Z 00449a54 f   ace:ACE.dll
 0001:00048a5a       ?instance@ACE_Log_Msg@@SAPAV1@XZ 00449a5a f   ace:ACE.dll
 0001:00048a60       ?last_error_adapter@ACE_Log_Msg@@SAHXZ 00449a60 f   ace:ACE.dll
 0001:00048a66       ??1ACE_Errno_Guard@@QAE@XZ 00449a66 f   ace:ACE.dll
 0001:00048a6c       ?fprintf@ACE_OS@@YAHPAU_iobuf@@PBDZZ 00449a6c f   ace:ACE.dll
 0001:00048a72       ??0ACE_Errno_Guard@@QAE@AAH@Z 00449a72 f   ace:ACE.dll
 0001:00048a78       ?thr_keyfree@ACE_OS@@YAHK@Z 00449a78 f   ace:ACE.dll
 0001:00048a7e       ?thr_key_detach@ACE_OS@@YAHKPAX@Z 00449a7e f   ace:ACE.dll
 0001:00048a90       _external_wrapper          00449a90 f   framework:ObjectLifeTime.obj
 0001:00048ab0       ?at_exit@MaNGOS@@YAXP6AXXZ@Z 00449ab0 f   framework:ObjectLifeTime.obj
 0001:00048ac2       _connect@12                00449ac2 f   wsock32:WSOCK32.dll
 0001:00048ac8       _recv@16                   00449ac8 f   wsock32:WSOCK32.dll
 0001:00048ace       _send@16                   00449ace f   wsock32:WSOCK32.dll
 0001:00048ad4       _shutdown@8                00449ad4 f   wsock32:WSOCK32.dll
 0001:00048ada       _setsockopt@20             00449ada f   wsock32:WSOCK32.dll
 0001:00048ae0       _socket@12                 00449ae0 f   wsock32:WSOCK32.dll
 0001:00048ae6       _getprotobyname@4          00449ae6 f   wsock32:WSOCK32.dll
 0001:00048aec       _ioctlsocket@12            00449aec f   wsock32:WSOCK32.dll
 0001:00048af2       _getsockopt@20             00449af2 f   wsock32:WSOCK32.dll
 0001:00048af8       _getsockname@12            00449af8 f   wsock32:WSOCK32.dll
 0001:00048afe       _WSAStartup@8              00449afe f   wsock32:WSOCK32.dll
 0001:00048b04       _WSACleanup@0              00449b04 f   wsock32:WSOCK32.dll
 0001:00048b0a       ___WSAFDIsSet@8            00449b0a f   wsock32:WSOCK32.dll
 0001:00048b10       _select@20                 00449b10 f   wsock32:WSOCK32.dll
 0001:00048b16       _htons@4                   00449b16 f   wsock32:WSOCK32.dll
 0001:00048b1c       _gethostname@8             00449b1c f   wsock32:WSOCK32.dll
 0001:00048b22       _gethostbyname@4           00449b22 f   wsock32:WSOCK32.dll
 0001:00048b28       _gethostbyaddr@12          00449b28 f   wsock32:WSOCK32.dll
 0001:00048b2e       _inet_addr@4               00449b2e f   wsock32:WSOCK32.dll
 0001:00048b34       _mysql_thread_init@0       00449b34 f   libmySQL:LIBMYSQL.dll
 0001:00048b3a       _mysql_thread_end@0        00449b3a f   libmySQL:LIBMYSQL.dll
 0001:00048b40       _mysql_thread_safe@0       00449b40 f   libmySQL:LIBMYSQL.dll
 0001:00048b46       _mysql_server_init@12      00449b46 f   libmySQL:LIBMYSQL.dll
 0001:00048b4c       _mysql_server_end@0        00449b4c f   libmySQL:LIBMYSQL.dll
 0001:00048b52       _mysql_close@4             00449b52 f   libmySQL:LIBMYSQL.dll
 0001:00048b58       _mysql_error@4             00449b58 f   libmySQL:LIBMYSQL.dll
 0001:00048b5e       _mysql_autocommit@8        00449b5e f   libmySQL:LIBMYSQL.dll
 0001:00048b64       _mysql_get_server_info@4   00449b64 f   libmySQL:LIBMYSQL.dll
 0001:00048b6a       _mysql_get_client_info@0   00449b6a f   libmySQL:LIBMYSQL.dll
 0001:00048b70       _mysql_real_connect@32     00449b70 f   libmySQL:LIBMYSQL.dll
 0001:00048b76       _mysql_options@12          00449b76 f   libmySQL:LIBMYSQL.dll
 0001:00048b7c       _mysql_init@4              00449b7c f   libmySQL:LIBMYSQL.dll
 0001:00048b82       _mysql_fetch_fields@4      00449b82 f   libmySQL:LIBMYSQL.dll
 0001:00048b88       _mysql_free_result@4       00449b88 f   libmySQL:LIBMYSQL.dll
 0001:00048b8e       _mysql_field_count@4       00449b8e f   libmySQL:LIBMYSQL.dll
 0001:00048b94       _mysql_affected_rows@4     00449b94 f   libmySQL:LIBMYSQL.dll
 0001:00048b9a       _mysql_store_result@4      00449b9a f   libmySQL:LIBMYSQL.dll
 0001:00048ba0       _mysql_query@8             00449ba0 f   libmySQL:LIBMYSQL.dll
 0001:00048ba6       _mysql_real_escape_string@16 00449ba6 f   libmySQL:LIBMYSQL.dll
 0001:00048bac       _mysql_fetch_row@4         00449bac f   libmySQL:LIBMYSQL.dll
 0001:00048bb2       _BN_new                    00449bb2 f   libeay32:LIBEAY32.dll
 0001:00048bb8       _BN_dup                    00449bb8 f   libeay32:LIBEAY32.dll
 0001:00048bbe       _BN_set_word               00449bbe f   libeay32:LIBEAY32.dll
 0001:00048bc4       _BN_free                   00449bc4 f   libeay32:LIBEAY32.dll
 0001:00048bca       _BN_lshift                 00449bca f   libeay32:LIBEAY32.dll
 0001:00048bd0       _BN_add_word               00449bd0 f   libeay32:LIBEAY32.dll
 0001:00048bd6       _BN_bin2bn                 00449bd6 f   libeay32:LIBEAY32.dll
 0001:00048bdc       _BN_hex2bn                 00449bdc f   libeay32:LIBEAY32.dll
 0001:00048be2       _BN_rand                   00449be2 f   libeay32:LIBEAY32.dll
 0001:00048be8       _BN_copy                   00449be8 f   libeay32:LIBEAY32.dll
 0001:00048bee       _BN_add                    00449bee f   libeay32:LIBEAY32.dll
 0001:00048bf4       _BN_sub                    00449bf4 f   libeay32:LIBEAY32.dll
 0001:00048bfa       _BN_CTX_free               00449bfa f   libeay32:LIBEAY32.dll
 0001:00048c00       _BN_mul                    00449c00 f   libeay32:LIBEAY32.dll
 0001:00048c06       _BN_CTX_new                00449c06 f   libeay32:LIBEAY32.dll
 0001:00048c0c       _BN_div                    00449c0c f   libeay32:LIBEAY32.dll
 0001:00048c12       _BN_exp                    00449c12 f   libeay32:LIBEAY32.dll
 0001:00048c18       _BN_mod_exp                00449c18 f   libeay32:LIBEAY32.dll
 0001:00048c1e       _BN_num_bits               00449c1e f   libeay32:LIBEAY32.dll
 0001:00048c24       _BN_get_word               00449c24 f   libeay32:LIBEAY32.dll
 0001:00048c2a       _BN_bn2bin                 00449c2a f   libeay32:LIBEAY32.dll
 0001:00048c30       _BN_bn2hex                 00449c30 f   libeay32:LIBEAY32.dll
 0001:00048c36       _BN_bn2dec                 00449c36 f   libeay32:LIBEAY32.dll
 0001:00048c3c       _SHA1_Init                 00449c3c f   libeay32:LIBEAY32.dll
 0001:00048c42       _SHA1_Update               00449c42 f   libeay32:LIBEAY32.dll
 0001:00048c48       _SHA1_Final                00449c48 f   libeay32:LIBEAY32.dll
 0001:00048c4e       _CloseServiceHandle@4      00449c4e f   advapi32:ADVAPI32.dll
 0001:00048c54       _CreateServiceA@52         00449c54 f   advapi32:ADVAPI32.dll
 0001:00048c5a       _OpenSCManagerA@12         00449c5a f   advapi32:ADVAPI32.dll
 0001:00048c60       _DeleteService@4           00449c60 f   advapi32:ADVAPI32.dll
 0001:00048c66       _QueryServiceStatus@8      00449c66 f   advapi32:ADVAPI32.dll
 0001:00048c6c       _OpenServiceA@12           00449c6c f   advapi32:ADVAPI32.dll
 0001:00048c72       _SetServiceStatus@8        00449c72 f   advapi32:ADVAPI32.dll
 0001:00048c78       _RegisterServiceCtrlHandlerA@8 00449c78 f   advapi32:ADVAPI32.dll
 0001:00048c7e       _StartServiceCtrlDispatcherA@4 00449c7e f   advapi32:ADVAPI32.dll
 0001:00048c84       ??$?HDU?$char_traits@D@std@@V?$allocator@D@1@@std@@YA?AV?$basic_string@DU?$char_traits@D@std@@V?$allocator@D@2@@0@ABV10@0@Z 00449c84 f   MSVCPRT:MSVCP90.dll
 0001:00048c8a       ??$?HDU?$char_traits@D@std@@V?$allocator@D@1@@std@@YA?AV?$basic_string@DU?$char_traits@D@std@@V?$allocator@D@2@@0@ABV10@PBD@Z 00449c8a f   MSVCPRT:MSVCP90.dll
 0001:00048c90       ??$?HDU?$char_traits@D@std@@V?$allocator@D@1@@std@@YA?AV?$basic_string@DU?$char_traits@D@std@@V?$allocator@D@2@@0@DABV10@@Z 00449c90 f   MSVCPRT:MSVCP90.dll
 0001:00048c96       ??A?$basic_string@DU?$char_traits@D@std@@V?$allocator@D@2@@std@@QBEABDU_Size_type_nosscl@01@@Z 00449c96 f   MSVCPRT:MSVCP90.dll
 0001:00048c9c       ??Y?$basic_string@DU?$char_traits@D@std@@V?$allocator@D@2@@std@@QAEAAV01@D@Z 00449c9c f   MSVCPRT:MSVCP90.dll
 0001:00048ca2       ??$?HDU?$char_traits@D@std@@V?$allocator@D@1@@std@@YA?AV?$basic_string@DU?$char_traits@D@std@@V?$allocator@D@2@@0@PBDABV10@@Z 00449ca2 f   MSVCPRT:MSVCP90.dll
 0001:00048ca8       ??$?8DU?$char_traits@D@std@@V?$allocator@D@1@@std@@YA_NABV?$basic_string@DU?$char_traits@D@std@@V?$allocator@D@2@@0@PBD@Z 00449ca8 f   MSVCPRT:MSVCP90.dll
 0001:00048cae       ?substr@?$basic_string@DU?$char_traits@D@std@@V?$allocator@D@2@@std@@QBE?AV12@II@Z 00449cae f   MSVCPRT:MSVCP90.dll
 0001:00048cb4       ??Y?$basic_string@DU?$char_traits@D@std@@V?$allocator@D@2@@std@@QAEAAV01@ABV01@@Z 00449cb4 f   MSVCPRT:MSVCP90.dll
 0001:00048cba       ?append@?$basic_string@DU?$char_traits@D@std@@V?$allocator@D@2@@std@@QAEAAV12@PBD@Z 00449cba f   MSVCPRT:MSVCP90.dll
 0001:00048cc0       ?at@?$basic_string@DU?$char_traits@D@std@@V?$allocator@D@2@@std@@QAEAADI@Z 00449cc0 f   MSVCPRT:MSVCP90.dll
 0001:00048cc6       ??_D?$basic_istringstream@DU?$char_traits@D@std@@V?$allocator@D@2@@std@@QAEXXZ 00449cc6 f   MSVCPRT:MSVCP90.dll
 0001:00048ccc       ??7ios_base@std@@QBE_NXZ   00449ccc f   MSVCPRT:MSVCP90.dll
 0001:00048cd2       ??5?$basic_istream@DU?$char_traits@D@std@@@std@@QAEAAV01@AAH@Z 00449cd2 f   MSVCPRT:MSVCP90.dll
 0001:00048cd8       ??0?$basic_istringstream@DU?$char_traits@D@std@@V?$allocator@D@2@@std@@QAE@ABV?$basic_string@DU?$char_traits@D@std@@V?$allocator@D@2@@1@H@Z 00449cd8 f   MSVCPRT:MSVCP90.dll
 0001:00048cde       ?insert@?$basic_string@DU?$char_traits@D@std@@V?$allocator@D@2@@std@@QAEAAV12@IPBD@Z 00449cde f   MSVCPRT:MSVCP90.dll
 0001:00048ce4       ?insert@?$basic_string@DU?$char_traits@D@std@@V?$allocator@D@2@@std@@QAEAAV12@IABV12@@Z 00449ce4 f   MSVCPRT:MSVCP90.dll
 0001:00048cea       ?find_last_of@?$basic_string@DU?$char_traits@D@std@@V?$allocator@D@2@@std@@QBEIPBDI@Z 00449cea f   MSVCPRT:MSVCP90.dll
 0001:00048cf0       ??4_Init_locks@std@@QAEAAV01@ABV01@@Z 00449cf0 f i MSVCPRT:nothrow.obj
 0001:00048cf6       ?find@?$basic_string@DU?$char_traits@D@std@@V?$allocator@D@2@@std@@QBEIDI@Z 00449cf6 f   MSVCPRT:MSVCP90.dll
 0001:00048cfc       ?end@?$basic_string@DU?$char_traits@D@std@@V?$allocator@D@2@@std@@QBE?AV?$_String_const_iterator@DU?$char_traits@D@std@@V?$allocator@D@2@@2@XZ 00449cfc f   MSVCPRT:MSVCP90.dll
 0001:00048d02       ?begin@?$basic_string@DU?$char_traits@D@std@@V?$allocator@D@2@@std@@QBE?AV?$_String_const_iterator@DU?$char_traits@D@std@@V?$allocator@D@2@@2@XZ 00449d02 f   MSVCPRT:MSVCP90.dll
 0001:00048d08       ?erase@?$basic_string@DU?$char_traits@D@std@@V?$allocator@D@2@@std@@QAEAAV12@II@Z 00449d08 f   MSVCPRT:MSVCP90.dll
 0001:00048d0e       ??1?$basic_string@_WU?$char_traits@_W@std@@V?$allocator@_W@2@@std@@QAE@XZ 00449d0e f   MSVCPRT:MSVCP90.dll
 0001:00048d14       ?c_str@?$basic_string@_WU?$char_traits@_W@std@@V?$allocator@_W@2@@std@@QBEPB_WXZ 00449d14 f   MSVCPRT:MSVCP90.dll
 0001:00048d1a       ?size@?$basic_string@_WU?$char_traits@_W@std@@V?$allocator@_W@2@@std@@QBEIXZ 00449d1a f   MSVCPRT:MSVCP90.dll
 0001:00048d20       ??A?$basic_string@_WU?$char_traits@_W@std@@V?$allocator@_W@2@@std@@QAEAA_WU_Size_type_nosscl@01@@Z 00449d20 f   MSVCPRT:MSVCP90.dll
 0001:00048d26       ?resize@?$basic_string@_WU?$char_traits@_W@std@@V?$allocator@_W@2@@std@@QAEXI@Z 00449d26 f   MSVCPRT:MSVCP90.dll
 0001:00048d2c       ??0?$basic_string@_WU?$char_traits@_W@std@@V?$allocator@_W@2@@std@@QAE@XZ 00449d2c f   MSVCPRT:MSVCP90.dll
 0001:00048d32       ??4?$basic_string@_WU?$char_traits@_W@std@@V?$allocator@_W@2@@std@@QAEAAV01@PB_W@Z 00449d32 f   MSVCPRT:MSVCP90.dll
 0001:00048d38       ??$?8_WU?$char_traits@_W@std@@V?$allocator@_W@1@@std@@YA_NABV?$basic_string@_WU?$char_traits@_W@std@@V?$allocator@_W@2@@0@PB_W@Z 00449d38 f   MSVCPRT:MSVCP90.dll
 0001:00048d3e       ?substr@?$basic_string@_WU?$char_traits@_W@std@@V?$allocator@_W@2@@std@@QBE?AV12@II@Z 00449d3e f   MSVCPRT:MSVCP90.dll
 0001:00048d44       ??0?$basic_string@_WU?$char_traits@_W@std@@V?$allocator@_W@2@@std@@QAE@ABV01@@Z 00449d44 f   MSVCPRT:MSVCP90.dll
 0001:00048d4a       ?find@?$basic_string@_WU?$char_traits@_W@std@@V?$allocator@_W@2@@std@@QBEIABV12@I@Z 00449d4a f   MSVCPRT:MSVCP90.dll
 0001:00048d50       ?end@?$basic_string@_WU?$char_traits@_W@std@@V?$allocator@_W@2@@std@@QAE?AV?$_String_iterator@_WU?$char_traits@_W@std@@V?$allocator@_W@2@@2@XZ 00449d50 f   MSVCPRT:MSVCP90.dll
 0001:00048d56       ?begin@?$basic_string@_WU?$char_traits@_W@std@@V?$allocator@_W@2@@std@@QAE?AV?$_String_iterator@_WU?$char_traits@_W@std@@V?$allocator@_W@2@@2@XZ 00449d56 f   MSVCPRT:MSVCP90.dll
 0001:00048d5c       ?swap@?$basic_string@DU?$char_traits@D@std@@V?$allocator@D@2@@std@@QAEXAAV12@@Z 00449d5c f   MSVCPRT:MSVCP90.dll
 0001:00048d70       __aulldiv                  00449d70 f   msvcrt:ulldiv.obj
 0001:00048de0       __aullrem                  00449de0 f   msvcrt:ullrem.obj
 0001:00048e60       __allmul                   00449e60 f   msvcrt:llmul.obj
 0001:00048e94       _isalnum                   00449e94 f   msvcrt:MSVCR90.dll
 0001:00048e9a       _isxdigit                  00449e9a f   msvcrt:MSVCR90.dll
 0001:00048ea0       _isdigit                   00449ea0 f   msvcrt:MSVCR90.dll
 0001:00048ea6       __putenv                   00449ea6 f   msvcrt:MSVCR90.dll
 0001:00048eac       __beginthreadex            00449eac f   msvcrt:MSVCR90.dll
 0001:00048eb2       __endthreadex              00449eb2 f   msvcrt:MSVCR90.dll
 0001:00048eb8       _atol                      00449eb8 f   msvcrt:MSVCR90.dll
 0001:00048ebe       __localtime64              00449ebe f   msvcrt:MSVCR90.dll
 0001:00048ec4       __vsnprintf                00449ec4 f   msvcrt:MSVCR90.dll
 0001:00048eca       _ldiv                      00449eca f   msvcrt:MSVCR90.dll
 0001:00048ed0       __aullshr                  00449ed0 f   msvcrt:ullshr.obj
 0001:00048ef0       _atoi                      00449ef0 f   msvcrt:MSVCR90.dll
 0001:00048ef6       __snprintf                 00449ef6 f   msvcrt:MSVCR90.dll
 0001:00048efc       _fflush                    00449efc f   msvcrt:MSVCR90.dll
 0001:00048f02       _vfprintf                  00449f02 f   msvcrt:MSVCR90.dll
 0001:00048f08       __strdup                   00449f08 f   msvcrt:MSVCR90.dll
 0001:00048f0e       _free                      00449f0e f   msvcrt:MSVCR90.dll
 0001:00048f14       __errno                    00449f14 f   msvcrt:MSVCR90.dll
 0001:00048f1a       ??3@YAXPAXABUnothrow_t@std@@@Z 00449f1a f   msvcrt:delopnt.obj
 0001:00048f2a       ??2@YAPAXIABUnothrow_t@std@@@Z 00449f2a f   msvcrt:newopnt.obj
 0001:00048f5a       _strcat                    00449f5a f   msvcrt:MSVCR90.dll
 0001:00048f60       ??_L@YGXPAXIHP6EX0@Z1@Z    00449f60 f   msvcrt:ehvecctr.obj
 0001:00048fc6       _realloc                   00449fc6 f   msvcrt:MSVCR90.dll
 0001:00048fcc       _isspace                   00449fcc f   msvcrt:MSVCR90.dll
 0001:00048fd2       _strcpy                    00449fd2 f   msvcrt:MSVCR90.dll
 0001:00048fd8       _fgets                     00449fd8 f   msvcrt:MSVCR90.dll
 0001:00048fde       _strchr                    00449fde f   msvcrt:MSVCR90.dll
 0001:00048fe4       _strstr                    00449fe4 f   msvcrt:MSVCR90.dll
 0001:00048fea       _strerror                  00449fea f   msvcrt:MSVCR90.dll
 0001:00048ff0       __fullpath                 00449ff0 f   msvcrt:MSVCR90.dll
 0001:00048ff6       _getenv                    00449ff6 f   msvcrt:MSVCR90.dll
 0001:00048ffc       _malloc                    00449ffc f   msvcrt:MSVCR90.dll
 0001:00049002       __stricmp                  0044a002 f   msvcrt:MSVCR90.dll
 0001:00049008       __access                   0044a008 f   msvcrt:MSVCR90.dll
 0001:0004900e       __EH_prolog3               0044a00e f   msvcrt:ehprolg3.obj
 0001:00049041       __EH_prolog3_catch         0044a041 f   msvcrt:ehprolg3.obj
 0001:00049077       __EH_prolog3_GS            0044a077 f   msvcrt:ehprolg3.obj
 0001:000490ad       __EH_prolog3_catch_GS      0044a0ad f   msvcrt:ehprolg3.obj
 0001:000490e6       __EH_epilog3               0044a0e6 f   msvcrt:ehprolg3.obj
 0001:000490fa       __EH_epilog3_GS            0044a0fa f   msvcrt:ehprolg3.obj
 0001:00049109       __EH_epilog3_catch_GS      0044a109 f   msvcrt:ehprolg3.obj
 0001:00049118       _CreateMutexA@12           0044a118 f   kernel32:KERNEL32.dll
 0001:0004911e       _WaitForSingleObject@8     0044a11e f   kernel32:KERNEL32.dll
 0001:00049124       _ReleaseMutex@4            0044a124 f   kernel32:KERNEL32.dll
 0001:0004912a       _SetConsoleTextAttribute@8 0044a12a f   kernel32:KERNEL32.dll
 0001:00049130       _GetStdHandle@4            0044a130 f   kernel32:KERNEL32.dll
 0001:00049136       _GetProcAddress@8          0044a136 f   kernel32:KERNEL32.dll
 0001:0004913c       _SetCurrentDirectoryA@4    0044a13c f   kernel32:KERNEL32.dll
 0001:00049142       _CharToOemBuffW@12         0044a142 f   user32:USER32.dll
 0001:00049148       _OemToCharBuffW@12         0044a148 f   user32:USER32.dll
 0002:00000000       __imp_??1ACE_Sched_Priority_Iterator@@QAE@XZ 00451000     ace:ACE.dll
 0002:00000004       __imp_?c_str@ACE_Stack_Trace@@QBEPBDXZ 00451004     ace:ACE.dll
 0002:00000008       __imp_??0ACE_Stack_Trace@@QAE@HI@Z 00451008     ace:ACE.dll
 0002:0000000c       __imp_??1ACE_Thread_Mutex@@QAE@XZ 0045100c     ace:ACE.dll
 0002:00000010       __imp_??0ACE_Thread_Mutex@@QAE@PBDPAUACE_mutexattr_t@@@Z 00451010     ace:ACE.dll
 0002:00000014       __imp_?release@ACE_Thread_Mutex@@QAEHXZ 00451014     ace:ACE.dll
 0002:00000018       __imp_?acquire@ACE_Thread_Mutex@@QAEHXZ 00451018     ace:ACE.dll
 0002:0000001c       __imp_?next@ACE_Sched_Priority_Iterator@@QAEXXZ 0045101c     ace:ACE.dll
 0002:00000020       __imp_?priority@ACE_Sched_Priority_Iterator@@QBEHXZ 00451020     ace:ACE.dll
 0002:00000024       __imp_?more@ACE_Sched_Priority_Iterator@@QBEHXZ 00451024     ace:ACE.dll
 0002:00000028       __imp_??0ACE_Sched_Priority_Iterator@@QAE@ABHH@Z 00451028     ace:ACE.dll
 0002:0000002c       __imp_?priority_max@ACE_Sched_Params@@SAHHH@Z 0045102c     ace:ACE.dll
 0002:00000030       __imp_?priority_min@ACE_Sched_Params@@SAHHH@Z 00451030     ace:ACE.dll
 0002:00000034       __imp_?spawn@ACE_Thread@@SAHP6AKPAX@Z0JPAKPAPAXJ0IPAVACE_Thread_Adapter@@PAPBD@Z 00451034     ace:ACE.dll
 0002:00000038       __imp_?join@ACE_Thread@@SAHPAXPAK@Z 00451038     ace:ACE.dll
 0002:0000003c       __imp_?kill@ACE_Thread@@SAHKH@Z 0045103c     ace:ACE.dll
 0002:00000040       __imp_?suspend@ACE_Thread@@SAHPAX@Z 00451040     ace:ACE.dll
 0002:00000044       __imp_?resume@ACE_Thread@@SAHPAX@Z 00451044     ace:ACE.dll
 0002:00000048       __imp_?self@ACE_Thread@@SAKXZ 00451048     ace:ACE.dll
 0002:0000004c       __imp_?self@ACE_Thread@@SAXAAPAX@Z 0045104c     ace:ACE.dll
 0002:00000050       __imp_?setprio@ACE_Thread@@SAHPAXHH@Z 00451050     ace:ACE.dll
 0002:00000054       __imp_?msec@ACE_Time_Value@@QBEKXZ 00451054     ace:ACE.dll
 0002:00000058       __imp_??0ACE_Time_Value@@QAE@_JJ@Z 00451058     ace:ACE.dll
 0002:0000005c       __imp_?getspecific@ACE_Thread@@SAHKPAPAX@Z 0045105c     ace:ACE.dll
 0002:00000060       __imp_?setspecific@ACE_Thread@@SAHKPAX@Z 00451060     ace:ACE.dll
 0002:00000064       __imp_?keycreate@ACE_Thread@@SAHPAKP6AXPAX@Z1@Z 00451064     ace:ACE.dll
 0002:00000068       __imp_?log@ACE_Log_Msg@@QAAHW4ACE_Log_Priority@@PBDZZ 00451068     ace:ACE.dll
 0002:0000006c       __imp_?conditional_set@ACE_Log_Msg@@QAEXPBDHHH@Z 0045106c     ace:ACE.dll
 0002:00000070       __imp_?instance@ACE_Log_Msg@@SAPAV1@XZ 00451070     ace:ACE.dll
 0002:00000074       __imp_?last_error_adapter@ACE_Log_Msg@@SAHXZ 00451074     ace:ACE.dll
 0002:00000078       __imp_??1ACE_Errno_Guard@@QAE@XZ 00451078     ace:ACE.dll
 0002:0000007c       __imp_?fprintf@ACE_OS@@YAHPAU_iobuf@@PBDZZ 0045107c     ace:ACE.dll
 0002:00000080       __imp_??0ACE_Errno_Guard@@QAE@AAH@Z 00451080     ace:ACE.dll
 0002:00000084       __imp_?NULL_key@ACE_OS@@3KA 00451084     ace:ACE.dll
 0002:00000088       __imp_?thr_keyfree@ACE_OS@@YAHK@Z 00451088     ace:ACE.dll
 0002:0000008c       __imp_?thr_key_detach@ACE_OS@@YAHKPAX@Z 0045108c     ace:ACE.dll
 0002:00000090       \177ACE_NULL_THUNK_DATA    00451090     ace:ACE.dll
 0002:00000094       __imp__RegCloseKey@4       00451094     advapi32:ADVAPI32.dll
 0002:00000098       __imp__RegOpenKeyExA@20    00451098     advapi32:ADVAPI32.dll
 0002:0000009c       __imp__StartServiceCtrlDispatcherA@4 0045109c     advapi32:ADVAPI32.dll
 0002:000000a0       __imp__RegisterServiceCtrlHandlerA@8 004510a0     advapi32:ADVAPI32.dll
 0002:000000a4       __imp__SetServiceStatus@8  004510a4     advapi32:ADVAPI32.dll
 0002:000000a8       __imp__OpenServiceA@12     004510a8     advapi32:ADVAPI32.dll
 0002:000000ac       __imp__QueryServiceStatus@8 004510ac     advapi32:ADVAPI32.dll
 0002:000000b0       __imp__DeleteService@4     004510b0     advapi32:ADVAPI32.dll
 0002:000000b4       __imp__OpenSCManagerA@12   004510b4     advapi32:ADVAPI32.dll
 0002:000000b8       __imp__CreateServiceA@52   004510b8     advapi32:ADVAPI32.dll
 0002:000000bc       __imp__CloseServiceHandle@4 004510bc     advapi32:ADVAPI32.dll
 0002:000000c0       __imp__RegQueryValueExA@24 004510c0     advapi32:ADVAPI32.dll
 0002:000000c4       \177ADVAPI32_NULL_THUNK_DATA 004510c4     advapi32:ADVAPI32.dll
 0002:000000c8       __imp__GetModuleFileNameA@12 004510c8     kernel32:KERNEL32.dll
 0002:000000cc       __imp__GetVersionExA@4     004510cc     kernel32:KERNEL32.dll
 0002:000000d0       __imp__GlobalMemoryStatus@4 004510d0     kernel32:KERNEL32.dll
 0002:000000d4       __imp__GetSystemInfo@4     004510d4     kernel32:KERNEL32.dll
 0002:000000d8       __imp__Thread32Next@8      004510d8     kernel32:KERNEL32.dll
 0002:000000dc       __imp__GetThreadContext@8  004510dc     kernel32:KERNEL32.dll
 0002:000000e0       __imp__CreateDirectoryA@8  004510e0     kernel32:KERNEL32.dll
 0002:000000e4       __imp__Thread32First@8     004510e4     kernel32:KERNEL32.dll
 0002:000000e8       __imp__CreateToolhelp32Snapshot@8 004510e8     kernel32:KERNEL32.dll
 0002:000000ec       __imp__GetCurrentProcessId@0 004510ec     kernel32:KERNEL32.dll
 0002:000000f0       __imp__GetModuleHandleA@4  004510f0     kernel32:KERNEL32.dll
 0002:000000f4       __imp__FormatMessageA@28   004510f4     kernel32:KERNEL32.dll
 0002:000000f8       __imp__VirtualQuery@12     004510f8     kernel32:KERNEL32.dll
 0002:000000fc       __imp__GetLastError@0      004510fc     kernel32:KERNEL32.dll
 0002:00000100       __imp__GetLocalTime@4      00451100     kernel32:KERNEL32.dll
 0002:00000104       __imp__CreateFileA@28      00451104     kernel32:KERNEL32.dll
 0002:00000108       __imp__SetFilePointer@16   00451108     kernel32:KERNEL32.dll
 0002:0000010c       __imp__CloseHandle@4       0045110c     kernel32:KERNEL32.dll
 0002:00000110       __imp__SetUnhandledExceptionFilter@4 00451110     kernel32:KERNEL32.dll
 0002:00000114       __imp__GetCurrentProcess@0 00451114     kernel32:KERNEL32.dll
 0002:00000118       __imp__GetProcessAffinityMask@12 00451118     kernel32:KERNEL32.dll
 0002:0000011c       __imp__SetProcessAffinityMask@8 0045111c     kernel32:KERNEL32.dll
 0002:00000120       __imp__SetPriorityClass@8  00451120     kernel32:KERNEL32.dll
 0002:00000124       __imp__Sleep@4             00451124     kernel32:KERNEL32.dll
 0002:00000128       __imp__OpenThread@12       00451128     kernel32:KERNEL32.dll
 0002:0000012c       __imp__FindNextFileA@8     0045112c     kernel32:KERNEL32.dll
 0002:00000130       __imp__CreateMutexA@12     00451130     kernel32:KERNEL32.dll
 0002:00000134       __imp__WaitForSingleObject@8 00451134     kernel32:KERNEL32.dll
 0002:00000138       __imp__ReleaseMutex@4      00451138     kernel32:KERNEL32.dll
 0002:0000013c       __imp__SetConsoleTextAttribute@8 0045113c     kernel32:KERNEL32.dll
 0002:00000140       __imp__GetStdHandle@4      00451140     kernel32:KERNEL32.dll
 0002:00000144       __imp__GetProcAddress@8    00451144     kernel32:KERNEL32.dll
 0002:00000148       __imp__SetCurrentDirectoryA@4 00451148     kernel32:KERNEL32.dll
 0002:0000014c       __imp__FindFirstFileA@8    0045114c     kernel32:KERNEL32.dll
 0002:00000150       __imp__GetCurrentThread@0  00451150     kernel32:KERNEL32.dll
 0002:00000154       __imp__LocalFree@4         00451154     kernel32:KERNEL32.dll
 0002:00000158       __imp__IsBadStringPtrA@8   00451158     kernel32:KERNEL32.dll
 0002:0000015c       __imp__WriteFile@20        0045115c     kernel32:KERNEL32.dll
 0002:00000160       __imp__InterlockedExchange@8 00451160     kernel32:KERNEL32.dll
 0002:00000164       __imp__InterlockedCompareExchange@12 00451164     kernel32:KERNEL32.dll
 0002:00000168       __imp__GetSystemTimeAsFileTime@4 00451168     kernel32:KERNEL32.dll
 0002:0000016c       __imp__GetCurrentThreadId@0 0045116c     kernel32:KERNEL32.dll
 0002:00000170       __imp__GetTickCount@0      00451170     kernel32:KERNEL32.dll
 0002:00000174       __imp__QueryPerformanceCounter@4 00451174     kernel32:KERNEL32.dll
 0002:00000178       __imp__IsDebuggerPresent@0 00451178     kernel32:KERNEL32.dll
 0002:0000017c       __imp__UnhandledExceptionFilter@4 0045117c     kernel32:KERNEL32.dll
 0002:00000180       __imp__TerminateProcess@8  00451180     kernel32:KERNEL32.dll
 0002:00000184       \177KERNEL32_NULL_THUNK_DATA 00451184     kernel32:KERNEL32.dll
 0002:00000188       __imp__MD5_Final           00451188     libeay32:LIBEAY32.dll
 0002:0000018c       __imp__MD5_Update          0045118c     libeay32:LIBEAY32.dll
 0002:00000190       __imp__MD5_Init            00451190     libeay32:LIBEAY32.dll
 0002:00000194       __imp__SSLeay              00451194     libeay32:LIBEAY32.dll
 0002:00000198       __imp__SSLeay_version      00451198     libeay32:LIBEAY32.dll
 0002:0000019c       __imp__SHA1_Final          0045119c     libeay32:LIBEAY32.dll
 0002:000001a0       __imp__SHA1_Update         004511a0     libeay32:LIBEAY32.dll
 0002:000001a4       __imp__SHA1_Init           004511a4     libeay32:LIBEAY32.dll
 0002:000001a8       __imp__BN_bn2dec           004511a8     libeay32:LIBEAY32.dll
 0002:000001ac       __imp__BN_bn2hex           004511ac     libeay32:LIBEAY32.dll
 0002:000001b0       __imp__BN_bn2bin           004511b0     libeay32:LIBEAY32.dll
 0002:000001b4       __imp__BN_get_word         004511b4     libeay32:LIBEAY32.dll
 0002:000001b8       __imp__BN_num_bits         004511b8     libeay32:LIBEAY32.dll
 0002:000001bc       __imp__BN_mod_exp          004511bc     libeay32:LIBEAY32.dll
 0002:000001c0       __imp__BN_exp              004511c0     libeay32:LIBEAY32.dll
 0002:000001c4       __imp__BN_new              004511c4     libeay32:LIBEAY32.dll
 0002:000001c8       __imp__BN_dup              004511c8     libeay32:LIBEAY32.dll
 0002:000001cc       __imp__BN_set_word         004511cc     libeay32:LIBEAY32.dll
 0002:000001d0       __imp__BN_free             004511d0     libeay32:LIBEAY32.dll
 0002:000001d4       __imp__BN_lshift           004511d4     libeay32:LIBEAY32.dll
 0002:000001d8       __imp__BN_add_word         004511d8     libeay32:LIBEAY32.dll
 0002:000001dc       __imp__BN_bin2bn           004511dc     libeay32:LIBEAY32.dll
 0002:000001e0       __imp__BN_hex2bn           004511e0     libeay32:LIBEAY32.dll
 0002:000001e4       __imp__BN_rand             004511e4     libeay32:LIBEAY32.dll
 0002:000001e8       __imp__BN_copy             004511e8     libeay32:LIBEAY32.dll
 0002:000001ec       __imp__BN_add              004511ec     libeay32:LIBEAY32.dll
 0002:000001f0       __imp__BN_sub              004511f0     libeay32:LIBEAY32.dll
 0002:000001f4       __imp__BN_CTX_free         004511f4     libeay32:LIBEAY32.dll
 0002:000001f8       __imp__BN_mul              004511f8     libeay32:LIBEAY32.dll
 0002:000001fc       __imp__BN_CTX_new          004511fc     libeay32:LIBEAY32.dll
 0002:00000200       __imp__CRYPTO_free         00451200     libeay32:LIBEAY32.dll
 0002:00000204       __imp__BN_div              00451204     libeay32:LIBEAY32.dll
 0002:00000208       \177LIBEAY32_NULL_THUNK_DATA 00451208     libeay32:LIBEAY32.dll
 0002:0000020c       __imp__mysql_field_count@4 0045120c     libmySQL:LIBMYSQL.dll
 0002:00000210       __imp__mysql_thread_end@0  00451210     libmySQL:LIBMYSQL.dll
 0002:00000214       __imp__mysql_thread_safe@0 00451214     libmySQL:LIBMYSQL.dll
 0002:00000218       __imp__mysql_server_init@12 00451218     libmySQL:LIBMYSQL.dll
 0002:0000021c       __imp__mysql_server_end@0  0045121c     libmySQL:LIBMYSQL.dll
 0002:00000220       __imp__mysql_close@4       00451220     libmySQL:LIBMYSQL.dll
 0002:00000224       __imp__mysql_error@4       00451224     libmySQL:LIBMYSQL.dll
 0002:00000228       __imp__mysql_autocommit@8  00451228     libmySQL:LIBMYSQL.dll
 0002:0000022c       __imp__mysql_get_server_info@4 0045122c     libmySQL:LIBMYSQL.dll
 0002:00000230       __imp__mysql_get_client_info@0 00451230     libmySQL:LIBMYSQL.dll
 0002:00000234       __imp__mysql_real_connect@32 00451234     libmySQL:LIBMYSQL.dll
 0002:00000238       __imp__mysql_options@12    00451238     libmySQL:LIBMYSQL.dll
 0002:0000023c       __imp__mysql_init@4        0045123c     libmySQL:LIBMYSQL.dll
 0002:00000240       __imp__mysql_fetch_fields@4 00451240     libmySQL:LIBMYSQL.dll
 0002:00000244       __imp__mysql_free_result@4 00451244     libmySQL:LIBMYSQL.dll
 0002:00000248       __imp__mysql_affected_rows@4 00451248     libmySQL:LIBMYSQL.dll
 0002:0000024c       __imp__mysql_store_result@4 0045124c     libmySQL:LIBMYSQL.dll
 0002:00000250       __imp__mysql_query@8       00451250     libmySQL:LIBMYSQL.dll
 0002:00000254       __imp__mysql_real_escape_string@16 00451254     libmySQL:LIBMYSQL.dll
 0002:00000258       __imp__mysql_fetch_row@4   00451258     libmySQL:LIBMYSQL.dll
 0002:0000025c       __imp__mysql_thread_init@0 0045125c     libmySQL:LIBMYSQL.dll
 0002:00000260       \177LIBMYSQL_NULL_THUNK_DATA 00451260     libmySQL:LIBMYSQL.dll
 0002:00000264       __imp_??7ios_base@std@@QBE_NXZ 00451264     MSVCPRT:MSVCP90.dll
 0002:00000268       __imp_??_D?$basic_istringstream@DU?$char_traits@D@std@@V?$allocator@D@2@@std@@QAEXXZ 00451268     MSVCPRT:MSVCP90.dll
 0002:0000026c       __imp_?at@?$basic_string@DU?$char_traits@D@std@@V?$allocator@D@2@@std@@QAEAADI@Z 0045126c     MSVCPRT:MSVCP90.dll
 0002:00000270       __imp_?append@?$basic_string@DU?$char_traits@D@std@@V?$allocator@D@2@@std@@QAEAAV12@PBD@Z 00451270     MSVCPRT:MSVCP90.dll
 0002:00000274       __imp_?npos@?$basic_string@DU?$char_traits@D@std@@V?$allocator@D@2@@std@@2IB 00451274     MSVCPRT:MSVCP90.dll
 0002:00000278       __imp_??Y?$basic_string@DU?$char_traits@D@std@@V?$allocator@D@2@@std@@QAEAAV01@ABV01@@Z 00451278     MSVCPRT:MSVCP90.dll
 0002:0000027c       __imp_?substr@?$basic_string@DU?$char_traits@D@std@@V?$allocator@D@2@@std@@QBE?AV12@II@Z 0045127c     MSVCPRT:MSVCP90.dll
 0002:00000280       __imp_??$?8DU?$char_traits@D@std@@V?$allocator@D@1@@std@@YA_NABV?$basic_string@DU?$char_traits@D@std@@V?$allocator@D@2@@0@PBD@Z 00451280     MSVCPRT:MSVCP90.dll
 0002:00000284       __imp_??$?HDU?$char_traits@D@std@@V?$allocator@D@1@@std@@YA?AV?$basic_string@DU?$char_traits@D@std@@V?$allocator@D@2@@0@PBDABV10@@Z 00451284     MSVCPRT:MSVCP90.dll
 0002:00000288       __imp_??Y?$basic_string@DU?$char_traits@D@std@@V?$allocator@D@2@@std@@QAEAAV01@D@Z 00451288     MSVCPRT:MSVCP90.dll
 0002:0000028c       __imp_??A?$basic_string@DU?$char_traits@D@std@@V?$allocator@D@2@@std@@QBEABDU_Size_type_nosscl@01@@Z 0045128c     MSVCPRT:MSVCP90.dll
 0002:00000290       __imp_??$?HDU?$char_traits@D@std@@V?$allocator@D@1@@std@@YA?AV?$basic_string@DU?$char_traits@D@std@@V?$allocator@D@2@@0@DABV10@@Z 00451290     MSVCPRT:MSVCP90.dll
 0002:00000294       __imp_??$?HDU?$char_traits@D@std@@V?$allocator@D@1@@std@@YA?AV?$basic_string@DU?$char_traits@D@std@@V?$allocator@D@2@@0@ABV10@PBD@Z 00451294     MSVCPRT:MSVCP90.dll
 0002:00000298       __imp_??$?HDU?$char_traits@D@std@@V?$allocator@D@1@@std@@YA?AV?$basic_string@DU?$char_traits@D@std@@V?$allocator@D@2@@0@ABV10@0@Z 00451298     MSVCPRT:MSVCP90.dll
 0002:0000029c       __imp_?begin@?$basic_string@_WU?$char_traits@_W@std@@V?$allocator@_W@2@@std@@QAE?AV?$_String_iterator@_WU?$char_traits@_W@std@@V?$allocator@_W@2@@2@XZ 0045129c     MSVCPRT:MSVCP90.dll
 0002:000002a0       __imp_?swap@?$basic_string@DU?$char_traits@D@std@@V?$allocator@D@2@@std@@QAEXAAV12@@Z 004512a0     MSVCPRT:MSVCP90.dll
 0002:000002a4       __imp_??$?8DU?$char_traits@D@std@@V?$allocator@D@1@@std@@YA_NABV?$basic_string@DU?$char_traits@D@std@@V?$allocator@D@2@@0@0@Z 004512a4     MSVCPRT:MSVCP90.dll
 0002:000002a8       __imp_??0?$basic_string@DU?$char_traits@D@std@@V?$allocator@D@2@@std@@QAE@XZ 004512a8     MSVCPRT:MSVCP90.dll
 0002:000002ac       __imp_??0?$basic_string@DU?$char_traits@D@std@@V?$allocator@D@2@@std@@QAE@ABV01@@Z 004512ac     MSVCPRT:MSVCP90.dll
 0002:000002b0       __imp_??4?$basic_string@DU?$char_traits@D@std@@V?$allocator@D@2@@std@@QAEAAV01@ABV01@@Z 004512b0     MSVCPRT:MSVCP90.dll
 0002:000002b4       __imp_??1?$basic_string@DU?$char_traits@D@std@@V?$allocator@D@2@@std@@QAE@XZ 004512b4     MSVCPRT:MSVCP90.dll
 0002:000002b8       __imp_?c_str@?$basic_string@DU?$char_traits@D@std@@V?$allocator@D@2@@std@@QBEPBDXZ 004512b8     MSVCPRT:MSVCP90.dll
 0002:000002bc       __imp_??A?$basic_string@DU?$char_traits@D@std@@V?$allocator@D@2@@std@@QAEAADU_Size_type_nosscl@01@@Z 004512bc     MSVCPRT:MSVCP90.dll
 0002:000002c0       __imp_?resize@?$basic_string@DU?$char_traits@D@std@@V?$allocator@D@2@@std@@QAEXI@Z 004512c0     MSVCPRT:MSVCP90.dll
 0002:000002c4       __imp_?size@?$basic_string@DU?$char_traits@D@std@@V?$allocator@D@2@@std@@QBEIXZ 004512c4     MSVCPRT:MSVCP90.dll
 0002:000002c8       __imp_??4?$basic_string@DU?$char_traits@D@std@@V?$allocator@D@2@@std@@QAEAAV01@PBD@Z 004512c8     MSVCPRT:MSVCP90.dll
 0002:000002cc       __imp_??0?$basic_string@DU?$char_traits@D@std@@V?$allocator@D@2@@std@@QAE@PBD@Z 004512cc     MSVCPRT:MSVCP90.dll
 0002:000002d0       __imp_??5?$basic_istream@DU?$char_traits@D@std@@@std@@QAEAAV01@AAH@Z 004512d0     MSVCPRT:MSVCP90.dll
 0002:000002d4       __imp_?length@?$basic_string@DU?$char_traits@D@std@@V?$allocator@D@2@@std@@QBEIXZ 004512d4     MSVCPRT:MSVCP90.dll
 0002:000002d8       __imp_??Y?$basic_string@DU?$char_traits@D@std@@V?$allocator@D@2@@std@@QAEAAV01@PBD@Z 004512d8     MSVCPRT:MSVCP90.dll
 0002:000002dc       __imp_??$?MDU?$char_traits@D@std@@V?$allocator@D@1@@std@@YA_NABV?$basic_string@DU?$char_traits@D@std@@V?$allocator@D@2@@0@0@Z 004512dc     MSVCPRT:MSVCP90.dll
 0002:000002e0       __imp_??_D?$basic_ostringstream@DU?$char_traits@D@std@@V?$allocator@D@2@@std@@QAEXXZ 004512e0     MSVCPRT:MSVCP90.dll
 0002:000002e4       __imp_?str@?$basic_ostringstream@DU?$char_traits@D@std@@V?$allocator@D@2@@std@@QBE?AV?$basic_string@DU?$char_traits@D@std@@V?$allocator@D@2@@2@XZ 004512e4     MSVCPRT:MSVCP90.dll
 0002:000002e8       __imp_??6?$basic_ostream@DU?$char_traits@D@std@@@std@@QAEAAV01@I@Z 004512e8     MSVCPRT:MSVCP90.dll
 0002:000002ec       __imp_??$?6DU?$char_traits@D@std@@V?$allocator@D@1@@std@@YAAAV?$basic_ostream@DU?$char_traits@D@std@@@0@AAV10@ABV?$basic_string@DU?$char_traits@D@std@@V?$allocator@D@2@@0@@Z 004512ec     MSVCPRT:MSVCP90.dll
 0002:000002f0       __imp_??0?$basic_ostringstream@DU?$char_traits@D@std@@V?$allocator@D@2@@std@@QAE@H@Z 004512f0     MSVCPRT:MSVCP90.dll
 0002:000002f4       __imp_?_Osfx@?$basic_ostream@DU?$char_traits@D@std@@@std@@QAEXXZ 004512f4     MSVCPRT:MSVCP90.dll
 0002:000002f8       __imp_?uncaught_exception@std@@YA_NXZ 004512f8     MSVCPRT:MSVCP90.dll
 0002:000002fc       __imp_?setstate@?$basic_ios@DU?$char_traits@D@std@@@std@@QAEXH_N@Z 004512fc     MSVCPRT:MSVCP90.dll
 0002:00000300       __imp_??0?$basic_istringstream@DU?$char_traits@D@std@@V?$allocator@D@2@@std@@QAE@ABV?$basic_string@DU?$char_traits@D@std@@V?$allocator@D@2@@1@H@Z 00451300     MSVCPRT:MSVCP90.dll
 0002:00000304       __imp_?insert@?$basic_string@DU?$char_traits@D@std@@V?$allocator@D@2@@std@@QAEAAV12@IPBD@Z 00451304     MSVCPRT:MSVCP90.dll
 0002:00000308       __imp_?insert@?$basic_string@DU?$char_traits@D@std@@V?$allocator@D@2@@std@@QAEAAV12@IABV12@@Z 00451308     MSVCPRT:MSVCP90.dll
 0002:0000030c       __imp_?find_last_of@?$basic_string@DU?$char_traits@D@std@@V?$allocator@D@2@@std@@QBEIPBDI@Z 0045130c     MSVCPRT:MSVCP90.dll
 0002:00000310       __imp_?find@?$basic_string@DU?$char_traits@D@std@@V?$allocator@D@2@@std@@QBEIDI@Z 00451310     MSVCPRT:MSVCP90.dll
 0002:00000314       __imp_?end@?$basic_string@DU?$char_traits@D@std@@V?$allocator@D@2@@std@@QBE?AV?$_String_const_iterator@DU?$char_traits@D@std@@V?$allocator@D@2@@2@XZ 00451314     MSVCPRT:MSVCP90.dll
 0002:00000318       __imp_?begin@?$basic_string@DU?$char_traits@D@std@@V?$allocator@D@2@@std@@QBE?AV?$_String_const_iterator@DU?$char_traits@D@std@@V?$allocator@D@2@@2@XZ 00451318     MSVCPRT:MSVCP90.dll
 0002:0000031c       __imp_?erase@?$basic_string@DU?$char_traits@D@std@@V?$allocator@D@2@@std@@QAEAAV12@II@Z 0045131c     MSVCPRT:MSVCP90.dll
 0002:00000320       __imp_?_Unlock@?$basic_streambuf@DU?$char_traits@D@std@@@std@@QAEXXZ 00451320     MSVCPRT:MSVCP90.dll
 0002:00000324       __imp_?_Lock@?$basic_streambuf@DU?$char_traits@D@std@@@std@@QAEXXZ 00451324     MSVCPRT:MSVCP90.dll
 0002:00000328       __imp_?good@ios_base@std@@QBE_NXZ 00451328     MSVCPRT:MSVCP90.dll
 0002:0000032c       __imp_?tie@?$basic_ios@DU?$char_traits@D@std@@@std@@QBEPAV?$basic_ostream@DU?$char_traits@D@std@@@2@XZ 0045132c     MSVCPRT:MSVCP90.dll
 0002:00000330       __imp_?flush@?$basic_ostream@DU?$char_traits@D@std@@@std@@QAEAAV12@XZ 00451330     MSVCPRT:MSVCP90.dll
 0002:00000334       __imp_?length@?$char_traits@D@std@@SAIPBD@Z 00451334     MSVCPRT:MSVCP90.dll
 0002:00000338       __imp_?width@ios_base@std@@QBEHXZ 00451338     MSVCPRT:MSVCP90.dll
 0002:0000033c       __imp_?flags@ios_base@std@@QBEHXZ 0045133c     MSVCPRT:MSVCP90.dll
 0002:00000340       __imp_?fill@?$basic_ios@DU?$char_traits@D@std@@@std@@QBEDXZ 00451340     MSVCPRT:MSVCP90.dll
 0002:00000344       __imp_?rdbuf@?$basic_ios@DU?$char_traits@D@std@@@std@@QBEPAV?$basic_streambuf@DU?$char_traits@D@std@@@2@XZ 00451344     MSVCPRT:MSVCP90.dll
 0002:00000348       __imp_?sputc@?$basic_streambuf@DU?$char_traits@D@std@@@std@@QAEHD@Z 00451348     MSVCPRT:MSVCP90.dll
 0002:0000034c       __imp_?eof@?$char_traits@D@std@@SAHXZ 0045134c     MSVCPRT:MSVCP90.dll
 0002:00000350       __imp_?eq_int_type@?$char_traits@D@std@@SA_NABH0@Z 00451350     MSVCPRT:MSVCP90.dll
 0002:00000354       __imp_?sputn@?$basic_streambuf@DU?$char_traits@D@std@@@std@@QAEHPBDH@Z 00451354     MSVCPRT:MSVCP90.dll
 0002:00000358       __imp_?width@ios_base@std@@QAEHH@Z 00451358     MSVCPRT:MSVCP90.dll
 0002:0000035c       __imp_??1?$basic_string@_WU?$char_traits@_W@std@@V?$allocator@_W@2@@std@@QAE@XZ 0045135c     MSVCPRT:MSVCP90.dll
 0002:00000360       __imp_?c_str@?$basic_string@_WU?$char_traits@_W@std@@V?$allocator@_W@2@@std@@QBEPB_WXZ 00451360     MSVCPRT:MSVCP90.dll
 0002:00000364       __imp_?size@?$basic_string@_WU?$char_traits@_W@std@@V?$allocator@_W@2@@std@@QBEIXZ 00451364     MSVCPRT:MSVCP90.dll
 0002:00000368       __imp_??A?$basic_string@_WU?$char_traits@_W@std@@V?$allocator@_W@2@@std@@QAEAA_WU_Size_type_nosscl@01@@Z 00451368     MSVCPRT:MSVCP90.dll
 0002:0000036c       __imp_?resize@?$basic_string@_WU?$char_traits@_W@std@@V?$allocator@_W@2@@std@@QAEXI@Z 0045136c     MSVCPRT:MSVCP90.dll
 0002:00000370       __imp_??0?$basic_string@_WU?$char_traits@_W@std@@V?$allocator@_W@2@@std@@QAE@XZ 00451370     MSVCPRT:MSVCP90.dll
 0002:00000374       __imp_??4?$basic_string@_WU?$char_traits@_W@std@@V?$allocator@_W@2@@std@@QAEAAV01@PB_W@Z 00451374     MSVCPRT:MSVCP90.dll
 0002:00000378       __imp_??$?8_WU?$char_traits@_W@std@@V?$allocator@_W@1@@std@@YA_NABV?$basic_string@_WU?$char_traits@_W@std@@V?$allocator@_W@2@@0@PB_W@Z 00451378     MSVCPRT:MSVCP90.dll
 0002:0000037c       __imp_?substr@?$basic_string@_WU?$char_traits@_W@std@@V?$allocator@_W@2@@std@@QBE?AV12@II@Z 0045137c     MSVCPRT:MSVCP90.dll
 0002:00000380       __imp_??0?$basic_string@_WU?$char_traits@_W@std@@V?$allocator@_W@2@@std@@QAE@ABV01@@Z 00451380     MSVCPRT:MSVCP90.dll
 0002:00000384       __imp_?npos@?$basic_string@_WU?$char_traits@_W@std@@V?$allocator@_W@2@@std@@2IB 00451384     MSVCPRT:MSVCP90.dll
 0002:00000388       __imp_?find@?$basic_string@_WU?$char_traits@_W@std@@V?$allocator@_W@2@@std@@QBEIABV12@I@Z 00451388     MSVCPRT:MSVCP90.dll
 0002:0000038c       __imp_?empty@?$basic_string@DU?$char_traits@D@std@@V?$allocator@D@2@@std@@QBE_NXZ 0045138c     MSVCPRT:MSVCP90.dll
 0002:00000390       __imp_?end@?$basic_string@_WU?$char_traits@_W@std@@V?$allocator@_W@2@@std@@QAE?AV?$_String_iterator@_WU?$char_traits@_W@std@@V?$allocator@_W@2@@2@XZ 00451390     MSVCPRT:MSVCP90.dll
 0002:00000394       \177MSVCP90_NULL_THUNK_DATA 00451394     MSVCPRT:MSVCP90.dll
 0002:00000398       __imp___errno              00451398     msvcrt:MSVCR90.dll
 0002:0000039c       __imp__strdup              0045139c     msvcrt:MSVCR90.dll
 0002:0000039c       __imp___strdup             0045139c     msvcrt:MSVCR90.dll
 0002:000003a0       __imp__vfprintf            004513a0     msvcrt:MSVCR90.dll
 0002:000003a4       __imp__fflush              004513a4     msvcrt:MSVCR90.dll
 0002:000003a8       __imp___snprintf           004513a8     msvcrt:MSVCR90.dll
 0002:000003ac       __imp__atoi                004513ac     msvcrt:MSVCR90.dll
 0002:000003b0       __imp__strcat              004513b0     msvcrt:MSVCR90.dll
 0002:000003b4       __imp__realloc             004513b4     msvcrt:MSVCR90.dll
 0002:000003b8       __imp__isspace             004513b8     msvcrt:MSVCR90.dll
 0002:000003bc       __imp__strcpy              004513bc     msvcrt:MSVCR90.dll
 0002:000003c0       __imp__fgets               004513c0     msvcrt:MSVCR90.dll
 0002:000003c4       __imp__strchr              004513c4     msvcrt:MSVCR90.dll
 0002:000003c8       __imp__strstr              004513c8     msvcrt:MSVCR90.dll
 0002:000003cc       __imp__strerror            004513cc     msvcrt:MSVCR90.dll
 0002:000003d0       __imp___fullpath           004513d0     msvcrt:MSVCR90.dll
 0002:000003d4       __imp__getenv              004513d4     msvcrt:MSVCR90.dll
 0002:000003d8       __imp__malloc              004513d8     msvcrt:MSVCR90.dll
 0002:000003dc       __imp___stricmp            004513dc     msvcrt:MSVCR90.dll
 0002:000003dc       __imp__stricmp             004513dc     msvcrt:MSVCR90.dll
 0002:000003e0       __imp___access             004513e0     msvcrt:MSVCR90.dll
 0002:000003e0       __imp__access              004513e0     msvcrt:MSVCR90.dll
 0002:000003e4       __imp___purecall           004513e4     msvcrt:MSVCR90.dll
 0002:000003e8       __imp_??3@YAXPAX@Z         004513e8     msvcrt:MSVCR90.dll
 0002:000003ec       __imp____p__fmode          004513ec     msvcrt:MSVCR90.dll
 0002:000003f0       __imp_??_V@YAXPAX@Z        004513f0     msvcrt:MSVCR90.dll
 0002:000003f4       __imp____CxxFrameHandler3  004513f4     msvcrt:MSVCR90.dll
 0002:000003f8       __imp__fprintf             004513f8     msvcrt:MSVCR90.dll
 0002:000003fc       __imp____iob_func          004513fc     msvcrt:MSVCR90.dll
 0002:00000400       __imp___CxxThrowException@8 00451400     msvcrt:MSVCR90.dll
 0002:00000404       __imp__strncpy             00451404     msvcrt:MSVCR90.dll
 0002:00000408       __imp__fclose              00451408     msvcrt:MSVCR90.dll
 0002:0000040c       __imp__memcpy              0045140c     msvcrt:MSVCR90.dll
 0002:00000410       __imp__memset              00451410     msvcrt:MSVCR90.dll
 0002:00000414       __imp__sscanf              00451414     msvcrt:MSVCR90.dll
 0002:00000418       __imp__strcmp              00451418     msvcrt:MSVCR90.dll
 0002:0000041c       __imp__strtoul             0045141c     msvcrt:MSVCR90.dll
 0002:00000420       __imp__memcmp              00451420     msvcrt:MSVCR90.dll
 0002:00000424       __imp__ftell               00451424     msvcrt:MSVCR90.dll
 0002:00000428       __imp__fseek               00451428     msvcrt:MSVCR90.dll
 0002:0000042c       __imp__printf              0045142c     msvcrt:MSVCR90.dll
 0002:00000430       __imp__fopen               00451430     msvcrt:MSVCR90.dll
 0002:00000434       __imp__sprintf             00451434     msvcrt:MSVCR90.dll
 0002:00000438       __imp_??2@YAPAXI@Z         00451438     msvcrt:MSVCR90.dll
 0002:0000043c       __imp__fread               0045143c     msvcrt:MSVCR90.dll
 0002:00000440       __imp__feof                00451440     msvcrt:MSVCR90.dll
 0002:00000444       __imp__memmove_s           00451444     msvcrt:MSVCR90.dll
 0002:00000448       __imp_??1exception@std@@UAE@XZ 00451448     msvcrt:MSVCR90.dll
 0002:0000044c       __imp_??0exception@std@@QAE@XZ 0045144c     msvcrt:MSVCR90.dll
 0002:00000450       __imp_??0exception@std@@QAE@ABV01@@Z 00451450     msvcrt:MSVCR90.dll
 0002:00000454       __imp_??0exception@std@@QAE@ABQBD@Z 00451454     msvcrt:MSVCR90.dll
 0002:00000458       __imp_?what@exception@std@@UBEPBDXZ 00451458     msvcrt:MSVCR90.dll
 0002:0000045c       __imp__clock               0045145c     msvcrt:MSVCR90.dll
 0002:00000460       __imp____RTDynamicCast     00451460     msvcrt:MSVCR90.dll
 0002:00000464       __imp__ldiv                00451464     msvcrt:MSVCR90.dll
 0002:00000468       __imp___vsnprintf          00451468     msvcrt:MSVCR90.dll
 0002:0000046c       __imp___localtime64        0045146c     msvcrt:MSVCR90.dll
 0002:00000470       __imp__atol                00451470     msvcrt:MSVCR90.dll
 0002:00000474       __imp___endthreadex        00451474     msvcrt:MSVCR90.dll
 0002:00000478       __imp___beginthreadex      00451478     msvcrt:MSVCR90.dll
 0002:0000047c       __imp___putenv             0045147c     msvcrt:MSVCR90.dll
 0002:00000480       __imp__isdigit             00451480     msvcrt:MSVCR90.dll
 0002:00000484       __imp__isxdigit            00451484     msvcrt:MSVCR90.dll
 0002:00000488       __imp__isalnum             00451488     msvcrt:MSVCR90.dll
 0002:0000048c       __imp__signal              0045148c     msvcrt:MSVCR90.dll
 0002:00000490       __imp___time64             00451490     msvcrt:MSVCR90.dll
 0002:00000494       __imp__atof                00451494     msvcrt:MSVCR90.dll
 0002:00000498       __imp___mbsrchr            00451498     msvcrt:MSVCR90.dll
 0002:0000049c       __imp___mbsnbcpy           0045149c     msvcrt:MSVCR90.dll
 0002:000004a0       __imp__iswspace            004514a0     msvcrt:MSVCR90.dll
 0002:000004a4       __imp__strlen              004514a4     msvcrt:MSVCR90.dll
 0002:000004a8       __imp___mbsicmp            004514a8     msvcrt:MSVCR90.dll
 0002:000004ac       __imp___mbsnbcat           004514ac     msvcrt:MSVCR90.dll
 0002:000004b0       __imp__vsprintf            004514b0     msvcrt:MSVCR90.dll
 0002:000004b4       __imp_?terminate@@YAXXZ    004514b4     msvcrt:MSVCR90.dll
 0002:000004b8       __imp___unlock             004514b8     msvcrt:MSVCR90.dll
 0002:000004bc       __imp____dllonexit         004514bc     msvcrt:MSVCR90.dll
 0002:000004c0       __imp___encode_pointer     004514c0     msvcrt:MSVCR90.dll
 0002:000004c4       __imp___lock               004514c4     msvcrt:MSVCR90.dll
 0002:000004c8       __imp___onexit             004514c8     msvcrt:MSVCR90.dll
 0002:000004cc       __imp___decode_pointer     004514cc     msvcrt:MSVCR90.dll
 0002:000004d0       __imp___except_handler4_common 004514d0     msvcrt:MSVCR90.dll
 0002:000004d4       __imp___amsg_exit          004514d4     msvcrt:MSVCR90.dll
 0002:000004d8       __imp____getmainargs       004514d8     msvcrt:MSVCR90.dll
 0002:000004dc       __imp___cexit              004514dc     msvcrt:MSVCR90.dll
 0002:000004e0       __imp___exit               004514e0     msvcrt:MSVCR90.dll
 0002:000004e4       __imp___XcptFilter         004514e4     msvcrt:MSVCR90.dll
 0002:000004e8       __imp__exit                004514e8     msvcrt:MSVCR90.dll
 0002:000004ec       __imp____initenv           004514ec     msvcrt:MSVCR90.dll
 0002:000004f0       __imp___initterm           004514f0     msvcrt:MSVCR90.dll
 0002:000004f4       __imp___initterm_e         004514f4     msvcrt:MSVCR90.dll
 0002:000004f8       __imp___configthreadlocale 004514f8     msvcrt:MSVCR90.dll
 0002:000004fc       __imp____setusermatherr    004514fc     msvcrt:MSVCR90.dll
 0002:00000500       __imp___adjust_fdiv        00451500     msvcrt:MSVCR90.dll
 0002:00000504       __imp____p__commode        00451504     msvcrt:MSVCR90.dll
 0002:00000508       __imp___controlfp_s        00451508     msvcrt:MSVCR90.dll
 0002:0000050c       __imp___invoke_watson      0045150c     msvcrt:MSVCR90.dll
 0002:00000510       __imp___crt_debugger_hook  00451510     msvcrt:MSVCR90.dll
 0002:00000514       __imp_?_type_info_dtor_internal_method@type_info@@QAEXXZ 00451514     msvcrt:MSVCR90.dll
 0002:00000518       __imp____set_app_type      00451518     msvcrt:MSVCR90.dll
 0002:0000051c       __imp__free                0045151c     msvcrt:MSVCR90.dll
 0002:00000520       \177MSVCR90_NULL_THUNK_DATA 00451520     msvcrt:MSVCR90.dll
 0002:00000524       __imp__OemToCharBuffW@12   00451524     user32:USER32.dll
 0002:00000528       __imp__CharToOemBuffW@12   00451528     user32:USER32.dll
 0002:0000052c       \177USER32_NULL_THUNK_DATA 0045152c     user32:USER32.dll
 0002:00000530       __imp__closesocket@4       00451530     ws2_32:WS2_32.dll
 0002:00000534       __imp__ntohs@4             00451534     ws2_32:WS2_32.dll
 0002:00000538       __imp__WSAGetLastError@0   00451538     ws2_32:WS2_32.dll
 0002:0000053c       __imp__accept@12           0045153c     ws2_32:WS2_32.dll
 0002:00000540       __imp__listen@8            00451540     ws2_32:WS2_32.dll
 0002:00000544       __imp__bind@12             00451544     ws2_32:WS2_32.dll
 0002:00000548       \177WS2_32_NULL_THUNK_DATA 00451548     ws2_32:WS2_32.dll
 0002:0000054c       __imp__connect@12          0045154c     wsock32:WSOCK32.dll
 0002:00000550       __imp__recv@16             00451550     wsock32:WSOCK32.dll
 0002:00000554       __imp__inet_addr@4         00451554     wsock32:WSOCK32.dll
 0002:00000558       __imp__gethostbyaddr@12    00451558     wsock32:WSOCK32.dll
 0002:0000055c       __imp__gethostbyname@4     0045155c     wsock32:WSOCK32.dll
 0002:00000560       __imp__gethostname@8       00451560     wsock32:WSOCK32.dll
 0002:00000564       __imp__htons@4             00451564     wsock32:WSOCK32.dll
 0002:00000568       __imp__select@20           00451568     wsock32:WSOCK32.dll
 0002:0000056c       __imp____WSAFDIsSet@8      0045156c     wsock32:WSOCK32.dll
 0002:00000570       __imp__WSACleanup@0        00451570     wsock32:WSOCK32.dll
 0002:00000574       __imp__WSAStartup@8        00451574     wsock32:WSOCK32.dll
 0002:00000578       __imp__getsockname@12      00451578     wsock32:WSOCK32.dll
 0002:0000057c       __imp__getsockopt@20       0045157c     wsock32:WSOCK32.dll
 0002:00000580       __imp__ioctlsocket@12      00451580     wsock32:WSOCK32.dll
 0002:00000584       __imp__getprotobyname@4    00451584     wsock32:WSOCK32.dll
 0002:00000588       __imp__socket@12           00451588     wsock32:WSOCK32.dll
 0002:0000058c       __imp__setsockopt@20       0045158c     wsock32:WSOCK32.dll
 0002:00000590       __imp__shutdown@8          00451590     wsock32:WSOCK32.dll
 0002:00000594       __imp__send@16             00451594     wsock32:WSOCK32.dll
 0002:00000598       \177WSOCK32_NULL_THUNK_DATA 00451598     wsock32:WSOCK32.dll
 0002:0000059c       __imp__SymGetTypeInfo@24   0045159c     dbghelp:dbghelp.dll
 0002:000005a0       __imp__SymGetModuleBase64@12 004515a0     dbghelp:dbghelp.dll
 0002:000005a4       __imp__SymFunctionTableAccess64@12 004515a4     dbghelp:dbghelp.dll
 0002:000005a8       __imp__StackWalk64@36      004515a8     dbghelp:dbghelp.dll
 0002:000005ac       __imp__SymFromAddr@20      004515ac     dbghelp:dbghelp.dll
 0002:000005b0       __imp__SymGetLineFromAddr64@20 004515b0     dbghelp:dbghelp.dll
 0002:000005b4       __imp__SymSetContext@12    004515b4     dbghelp:dbghelp.dll
 0002:000005b8       __imp__SymSetOptions@4     004515b8     dbghelp:dbghelp.dll
 0002:000005bc       __imp__SymInitialize@12    004515bc     dbghelp:dbghelp.dll
 0002:000005c0       __imp__SymEnumSymbols@24   004515c0     dbghelp:dbghelp.dll
 0002:000005c4       __imp__SymCleanup@4        004515c4     dbghelp:dbghelp.dll
 0002:000005c8       \177dbghelp_NULL_THUNK_DATA 004515c8     dbghelp:dbghelp.dll
 0002:000005cc       ___xc_a                    004515cc     msvcrt:cinitexe.obj
 0002:00000608       ___xc_z                    00451608     msvcrt:cinitexe.obj
 0002:0000060c       ___xi_a                    0045160c     msvcrt:cinitexe.obj
 0002:00000618       ___xi_z                    00451618     msvcrt:cinitexe.obj
 0002:0000063c       ??_C@_0P@GHFPNOJB@bad?5allocation?$AA@ 0045163c     AuthSocket.obj
 0002:0000064c       ?collate@?$_Locbase@H@std@@2HB 0045164c     AuthSocket.obj
 0002:00000650       ?ctype@?$_Locbase@H@std@@2HB 00451650     AuthSocket.obj
 0002:00000654       ?monetary@?$_Locbase@H@std@@2HB 00451654     AuthSocket.obj
 0002:00000658       ?numeric@?$_Locbase@H@std@@2HB 00451658     AuthSocket.obj
 0002:0000065c       ?time@?$_Locbase@H@std@@2HB 0045165c     AuthSocket.obj
 0002:00000660       ?messages@?$_Locbase@H@std@@2HB 00451660     AuthSocket.obj
 0002:00000664       ?all@?$_Locbase@H@std@@2HB 00451664     AuthSocket.obj
 0002:00000668       ?none@?$_Locbase@H@std@@2HB 00451668     AuthSocket.obj
 0002:0000066c       ?skipws@?$_Iosb@H@std@@2W4_Fmtflags@12@B 0045166c     AuthSocket.obj
 0002:00000670       ?unitbuf@?$_Iosb@H@std@@2W4_Fmtflags@12@B 00451670     AuthSocket.obj
 0002:00000674       ?uppercase@?$_Iosb@H@std@@2W4_Fmtflags@12@B 00451674     AuthSocket.obj
 0002:00000678       ?showbase@?$_Iosb@H@std@@2W4_Fmtflags@12@B 00451678     AuthSocket.obj
 0002:0000067c       ?showpoint@?$_Iosb@H@std@@2W4_Fmtflags@12@B 0045167c     AuthSocket.obj
 0002:00000680       ?showpos@?$_Iosb@H@std@@2W4_Fmtflags@12@B 00451680     AuthSocket.obj
 0002:00000684       ?left@?$_Iosb@H@std@@2W4_Fmtflags@12@B 00451684     AuthSocket.obj
 0002:00000688       ?right@?$_Iosb@H@std@@2W4_Fmtflags@12@B 00451688     AuthSocket.obj
 0002:0000068c       ?internal@?$_Iosb@H@std@@2W4_Fmtflags@12@B 0045168c     AuthSocket.obj
 0002:00000690       ?dec@?$_Iosb@H@std@@2W4_Fmtflags@12@B 00451690     AuthSocket.obj
 0002:00000694       ?oct@?$_Iosb@H@std@@2W4_Fmtflags@12@B 00451694     AuthSocket.obj
 0002:00000698       ?hex@?$_Iosb@H@std@@2W4_Fmtflags@12@B 00451698     AuthSocket.obj
 0002:0000069c       ?scientific@?$_Iosb@H@std@@2W4_Fmtflags@12@B 0045169c     AuthSocket.obj
 0002:000006a0       ?fixed@?$_Iosb@H@std@@2W4_Fmtflags@12@B 004516a0     AuthSocket.obj
 0002:000006a4       ?hexfloat@?$_Iosb@H@std@@2W4_Fmtflags@12@B 004516a4     AuthSocket.obj
 0002:000006a8       ?boolalpha@?$_Iosb@H@std@@2W4_Fmtflags@12@B 004516a8     AuthSocket.obj
 0002:000006ac       ?_Stdio@?$_Iosb@H@std@@2W4_Fmtflags@12@B 004516ac     AuthSocket.obj
 0002:000006b0       ?adjustfield@?$_Iosb@H@std@@2W4_Fmtflags@12@B 004516b0     AuthSocket.obj
 0002:000006b4       ?basefield@?$_Iosb@H@std@@2W4_Fmtflags@12@B 004516b4     AuthSocket.obj
 0002:000006b8       ?floatfield@?$_Iosb@H@std@@2W4_Fmtflags@12@B 004516b8     AuthSocket.obj
 0002:000006bc       ?goodbit@?$_Iosb@H@std@@2W4_Iostate@12@B 004516bc     AuthSocket.obj
 0002:000006c0       ?eofbit@?$_Iosb@H@std@@2W4_Iostate@12@B 004516c0     AuthSocket.obj
 0002:000006c4       ?failbit@?$_Iosb@H@std@@2W4_Iostate@12@B 004516c4     AuthSocket.obj
 0002:000006c8       ?badbit@?$_Iosb@H@std@@2W4_Iostate@12@B 004516c8     AuthSocket.obj
 0002:000006cc       ?_Hardfail@?$_Iosb@H@std@@2W4_Iostate@12@B 004516cc     AuthSocket.obj
 0002:000006d0       ?in@?$_Iosb@H@std@@2W4_Openmode@12@B 004516d0     AuthSocket.obj
 0002:000006d4       ?out@?$_Iosb@H@std@@2W4_Openmode@12@B 004516d4     AuthSocket.obj
 0002:000006d8       ?ate@?$_Iosb@H@std@@2W4_Openmode@12@B 004516d8     AuthSocket.obj
 0002:000006dc       ?app@?$_Iosb@H@std@@2W4_Openmode@12@B 004516dc     AuthSocket.obj
 0002:000006e0       ?trunc@?$_Iosb@H@std@@2W4_Openmode@12@B 004516e0     AuthSocket.obj
 0002:000006e4       ?_Nocreate@?$_Iosb@H@std@@2W4_Openmode@12@B 004516e4     AuthSocket.obj
 0002:000006e8       ?_Noreplace@?$_Iosb@H@std@@2W4_Openmode@12@B 004516e8     AuthSocket.obj
 0002:000006ec       ?binary@?$_Iosb@H@std@@2W4_Openmode@12@B 004516ec     AuthSocket.obj
 0002:000006f0       ?beg@?$_Iosb@H@std@@2W4_Seekdir@12@B 004516f0     AuthSocket.obj
 0002:000006f4       ?cur@?$_Iosb@H@std@@2W4_Seekdir@12@B 004516f4     AuthSocket.obj
 0002:000006f8       ?end@?$_Iosb@H@std@@2W4_Seekdir@12@B 004516f8     AuthSocket.obj
 0002:000006fc       ?is_signed@?$Sign_Check@E@ACE_Utils@@2_NB 004516fc     AuthSocket.obj
 0002:000006fd       ?is_signed@?$Sign_Check@G@ACE_Utils@@2_NB 004516fd     AuthSocket.obj
 0002:000006fe       ?is_signed@?$Sign_Check@I@ACE_Utils@@2_NB 004516fe     AuthSocket.obj
 0002:000006ff       ?is_signed@?$Sign_Check@K@ACE_Utils@@2_NB 004516ff     AuthSocket.obj
 0002:00000700       ?is_signed@?$Sign_Check@_K@ACE_Utils@@2_NB 00451700     AuthSocket.obj
 0002:00000701       ?is_signed@?$Sign_Check@C@ACE_Utils@@2_NB 00451701     AuthSocket.obj
 0002:00000702       ?is_signed@?$Sign_Check@F@ACE_Utils@@2_NB 00451702     AuthSocket.obj
 0002:00000703       ?is_signed@?$Sign_Check@H@ACE_Utils@@2_NB 00451703     AuthSocket.obj
 0002:00000704       ?is_signed@?$Sign_Check@J@ACE_Utils@@2_NB 00451704     AuthSocket.obj
 0002:00000705       ?is_signed@?$Sign_Check@_J@ACE_Utils@@2_NB 00451705     AuthSocket.obj
 0002:00000708       ?_EEM_DS@?$deque@PAVSqlOperation@@V?$allocator@PAVSqlOperation@@@std@@@std@@2HB 00451708     AuthSocket.obj
 0002:0000070c       ?DEFAULT_SIZE@ByteBuffer@@2IB 0045170c     AuthSocket.obj
 0002:00000710       ?s_BYTE_SIZE@AuthSocket@@2HB 00451710     AuthSocket.obj
 0002:00000778       ?MAX_FROM_GT_MAX_TO@?$Truncator@_JJ@ACE_Utils@@2_NB 00451778     AuthSocket.obj
 0002:00000779       ?USE_LEFT@?$Fast_Comparator@_J_J@ACE_Utils@@2_NB 00451779     AuthSocket.obj
 0002:0000077a       ?USE_RIGHT@?$Fast_Comparator@_J_J@ACE_Utils@@2_NB 0045177a     AuthSocket.obj
 0002:0000077b       ?USABLE@?$Fast_Comparator@_J_J@ACE_Utils@@2_NB 0045177b     AuthSocket.obj
 0002:0000077c       ?MAX_FROM_GT_MAX_TO@?$Truncator@_JK@ACE_Utils@@2_NB 0045177c     AuthSocket.obj
 0002:0000077d       ?MAX_FROM_GT_MAX_TO@?$Truncator@_J_K@ACE_Utils@@2_NB 0045177d     AuthSocket.obj
 0002:0000077e       ?USE_LEFT@?$Fast_Comparator@_J_K@ACE_Utils@@2_NB 0045177e     AuthSocket.obj
 0002:0000077f       ?USE_RIGHT@?$Fast_Comparator@_J_K@ACE_Utils@@2_NB 0045177f     AuthSocket.obj
 0002:00000780       ?USABLE@?$Fast_Comparator@_J_K@ACE_Utils@@2_NB 00451780     AuthSocket.obj
 0002:00000781       ?MAX_FROM_GT_MAX_TO@?$Truncator@IH@ACE_Utils@@2_NB 00451781     AuthSocket.obj
 0002:00000782       ?USE_LEFT@?$Fast_Comparator@II@ACE_Utils@@2_NB 00451782     AuthSocket.obj
 0002:00000783       ?USE_RIGHT@?$Fast_Comparator@II@ACE_Utils@@2_NB 00451783     AuthSocket.obj
 0002:00000784       ?USABLE@?$Fast_Comparator@II@ACE_Utils@@2_NB 00451784     AuthSocket.obj
 0002:0000078c       ??_7QueryResult@@6B@       0045178c     AuthSocket.obj
 0002:00000794       ??_C@_0CI@IPCNCMAI@?6?$CFs?3?$CFi?5in?5?$CFs?5ASSERTION?5FAILED?3?6?5@ 00451794     AuthSocket.obj
 0002:000007bc       ??_C@_0DB@GHKIHFHA@d?3?2mangos?2code?2src?2shared?2Databa@ 004517bc     AuthSocket.obj
 0002:000007f0       ??_C@_0BP@LOHHAFOE@QueryNamedResult?3?3GetField_idx?$AA@ 004517f0     AuthSocket.obj
 0002:00000810       ??_C@_0BO@CCIMBGOB@false?5?$CG?$CG?5?$CCunknown?5field?5name?$CC?$AA@ 00451810     AuthSocket.obj
 0002:00000834       ??_7Database@@6B@          00451834     AuthSocket.obj
 0002:00000870       ??_C@_0EB@LHHJKONP@894B645E89E1535BBDAD5B8B29065053@ 00451870     AuthSocket.obj
 0002:000008bc       ??_7AuthSocket@@6B@        004518bc     AuthSocket.obj
 0002:00000940       ??_C@_0CC@LBNLPNJN@Accepting?5connection?5from?5?8?$CFs?3?$CFd@ 00451940     AuthSocket.obj
 0002:00000964       ??_C@_0DM@MOIMLGKL@UPDATE?5account?5SET?5v?5?$DN?5?8?$CFs?8?0?5s?5?$DN@ 00451964     AuthSocket.obj
 0002:000009a0       ??_C@_0DL@GICNAEPI@?$FLAuthChallenge?$FN?5account?5?$CFs?5is?5us@ 004519a0     AuthSocket.obj
 0002:000009dc       ??_C@_0CA@MJMOCAPE@?4?4?2?4?4?2src?2realmd?2AuthSocket?4cpp?$AA@ 004519dc     AuthSocket.obj
 0002:000009fc       ??_C@_0CC@PPHBECJL@AuthSocket?3?3_HandleLogonChalleng@ 004519fc     AuthSocket.obj
 0002:00000a20       ??_C@_0BJ@IJMEMIBA@gmod?4GetNumBytes?$CI?$CJ?5?$DM?$DN?532?$AA@ 00451a20     AuthSocket.obj
 0002:00000a3c       ??_C@_0CO@LCKFECDK@database?5authentication?5values?3?5@ 00451a3c     AuthSocket.obj
 0002:00000a6c       ??_C@_0DO@DKPMOPEI@?$FLAuthChallenge?$FN?5Temporarily?5bann@ 00451a6c     AuthSocket.obj
 0002:00000aac       ??_C@_0DC@FIJLLGNA@?$FLAuthChallenge?$FN?5Banned?5account?5?$CF@ 00451aac     AuthSocket.obj
 0002:00000ae0       ??_C@_05OINFJHGD@?$CFI64u?$AA@ 00451ae0     AuthSocket.obj
 0002:00000ae8       ??_C@_0EK@FKDKPEIA@SELECT?5bandate?0unbandate?5FROM?5ac@ 00451ae8     AuthSocket.obj
 0002:00000b38       ??_C@_0FO@GNOEGOGD@UPDATE?5account_banned?5SET?5active@ 00451b38     AuthSocket.obj
 0002:00000b98       ??_C@_0FG@PLCBILF@SELECT?5sha_pass_hash?0id?0locked?0l@ 00451b98     AuthSocket.obj
 0002:00000bf0       ??_C@_0CN@KHLDOOFG@?$FLAuthChallenge?$FN?5Banned?5ip?5?$CFs?5tri@ 00451bf0     AuthSocket.obj
 0002:00000c20       ??_C@_0CI@MLLGPFP@SELECT?5?$CK?5FROM?5ip_banned?5WHERE?5ip@ 00451c20     AuthSocket.obj
 0002:00000c48       ??_C@_0EP@DOHONCDD@DELETE?5FROM?5ip_banned?5WHERE?5unba@ 00451c48     AuthSocket.obj
 0002:00000c97       ??_C@_00CNPNBAHC@?$AA@     00451c97     AuthSocket.obj
 0002:00000c98       ??_C@_0CH@HENABOON@d?3?2mangos?2code?2src?2shared?2ByteBu@ 00451c98     AuthSocket.obj
 0002:00000cc0       ??_C@_0BD@PAHALNKP@ByteBuffer?3?3append?$AA@ 00451cc0     AuthSocket.obj
 0002:00000cd4       ??_C@_0BC@PGEGMIEB@size?$CI?$CJ?5?$DM?510000000?$AA@ 00451cd4     AuthSocket.obj
 0002:00000ce8       ??_C@_0GH@ECAMHFGG@?$FLAuthChallenge?$FN?5IP?5?$CFs?5got?5banned@ 00451ce8     AuthSocket.obj
 0002:00000d50       ??_C@_0HC@HIIOJPHL@INSERT?5INTO?5ip_banned?5VALUES?5?$CI?8?$CF@ 00451d50     AuthSocket.obj
 0002:00000dc8       ??_C@_0GE@LDPNCNNP@?$FLAuthChallenge?$FN?5account?5?$CFs?5got?5b@ 00451dc8     AuthSocket.obj
 0002:00000e30       ??_C@_0HJ@DDHGIAKE@INSERT?5INTO?5account_banned?5VALUE@ 00451e30     AuthSocket.obj
 0002:00000eac       ??_C@_0BC@MFDCADNC@WrongPass?4BanType?$AA@ 00451eac     AuthSocket.obj
 0002:00000ec0       ??_C@_0BC@IBNFGEGO@WrongPass?4BanTime?$AA@ 00451ec0     AuthSocket.obj
 0002:00000ed4       ??_C@_0DM@IFMEJAAE@SELECT?5id?0?5failed_logins?5FROM?5ac@ 00451ed4     AuthSocket.obj
 0002:00000f10       ??_C@_0EL@BKENPJJI@UPDATE?5account?5SET?5failed_logins@ 00451f10     AuthSocket.obj
 0002:00000f5c       ??_C@_0BD@DCAEBEPO@WrongPass?4MaxCount?$AA@ 00451f5c     AuthSocket.obj
 0002:00000f70       ??_C@_0DP@INCPIIOA@?$FLAuthChallenge?$FN?5account?5?$CFs?5tried@ 00451f70     AuthSocket.obj
 0002:00000fb0       ??_C@_0IB@LMOIKFJC@UPDATE?5account?5SET?5sessionkey?5?$DN?5@ 00451fb0     AuthSocket.obj
 0002:00001034       ??_C@_0CF@EICFFDJM@User?5?8?$CFs?8?5successfully?5authentic@ 00452034     AuthSocket.obj
 0002:0000105c       ??_C@_07OGBMKJFL@0?$AFPatch?$AA@ 0045205c     AuthSocket.obj
 0002:00001064       ??_C@_0DD@IOGDKIKH@?6?$FLAuthChallenge?$FN?5Patch?5info?5for?5@ 00452064     AuthSocket.obj
 0002:00001098       ??_C@_02JDPG@rb?$AA@       00452098     AuthSocket.obj
 0002:0000109c       ??_C@_0BD@NHDNGNDD@?4?1patches?1?$CFd?$CFs?4mpq?$AA@ 0045209c     AuthSocket.obj
 0002:000010b0       ??_C@_0FD@LMFOJEIH@?$FLERROR?$FN?5user?5?$CFs?5tried?5to?5login?5a@ 004520b0     AuthSocket.obj
 0002:00001104       ??_C@_0DF@ILCABOAB@SELECT?5sessionkey?5FROM?5account?5W@ 00452104     AuthSocket.obj
 0002:0000113c       ??_C@_0DF@PCELLPOH@?$FLERROR?$FN?5user?5?$CFs?5tried?5to?5login?0?5@ 0045213c     AuthSocket.obj
 0002:00001178       ??_C@_0EK@INJHEIIM@SELECT?5numchars?5FROM?5realmcharac@ 00452178     AuthSocket.obj
 0002:000011c8       ??_C@_0EH@BMBLOECP@?$FLERROR?$FN?5user?5?$CFs?5tried?5to?5login?5a@ 004521c8     AuthSocket.obj
 0002:00001210       ??_C@_0DL@IDNIHAGL@SELECT?5id?0sha_pass_hash?5FROM?5acc@ 00452210     AuthSocket.obj
 0002:0000124c       ??_C@_0DD@CLPLDLPM@Error?5while?5resuming?5patch?5trans@ 0045224c     AuthSocket.obj
 0002:00001280       ??_C@_0DE@OCFKDBLA@Error?5while?5accepting?5patch?5tran@ 00452280     AuthSocket.obj
 0002:000012b8       ??_7PatcherRunnable@@6B@   004522b8     AuthSocket.obj
 0002:000012c4       ??_7Runnable@ACE_Based@@6B@ 004522c4     AuthSocket.obj
 0002:000012cc       ??_C@_0BA@JDHFNJDG@?4?1patches?1?$CK?4mpq?$AA@ 004522cc     AuthSocket.obj
 0002:000012dc       ??_C@_0BI@JMPJKFGM@Error?5loading?5patch?5?$CFs?6?$AA@ 004522dc     AuthSocket.obj
 0002:000012f4       ??_C@_0BM@KGGOKPND@Loading?5patch?5info?5from?5?$CFs?6?$AA@ 004522f4     AuthSocket.obj
 0002:00001310       ??_C@_0L@GFHAINHK@?4?1patches?1?$AA@ 00452310     AuthSocket.obj
 0002:0000131c       __real@40800000            0045231c     AuthSocket.obj
 0002:00001324       ??_7length_error@std@@6B@  00452324     AuthSocket.obj
 0002:00001330       ??_7logic_error@std@@6B@   00452330     AuthSocket.obj
 0002:00001338       ??_C@_0BD@OLBABOEK@vector?$DMT?$DO?5too?5long?$AA@ 00452338     AuthSocket.obj
 0002:0000134c       ??_C@_0BE@JONHPENG@map?1set?$DMT?$DO?5too?5long?$AA@ 0045234c     AuthSocket.obj
 0002:00001364       ??_7out_of_range@std@@6B@  00452364     AuthSocket.obj
 0002:0000136c       ??_C@_0BM@PAPJHAGI@invalid?5map?1set?$DMT?$DO?5iterator?$AA@ 0045236c     AuthSocket.obj
 0002:0000138c       ??_7bad_alloc@std@@6B@     0045238c     AuthSocket.obj
 0002:00001394       ??_C@_0BB@MOGOBHAF@list?$DMT?$DO?5too?5long?$AA@ 00452394     AuthSocket.obj
 0002:000013a8       ??_C@_0BEB@IKONDEIL@Usage?3?5?6?5?$CFs?5?$FL?$DMoptions?$DO?$FN?6?5?5?5?5?9?9ve@ 004523a8     Main.obj
 0002:000014ec       ??_C@_0BD@NOIFCEBE@Halting?5process?4?4?4?$AA@ 004524ec     Main.obj
 0002:00001500       ??_C@_0CA@LAAEFABE@SELECT?51?5FROM?5realmlist?5LIMIT?51?$AA@ 00452500     Main.obj
 0002:00001520       ??_C@_0CE@HLOOKDNG@Ping?5MySQL?5to?5keep?5connection?5al@ 00452520     Main.obj
 0002:00001544       ??_C@_0M@POJEOHLF@MaxPingTime?$AA@ 00452544     Main.obj
 0002:00001550       ??_C@_0DA@KDNOEBGN@ERROR?3?5Can?8t?5set?5realmd?5process?5@ 00452550     Main.obj
 0002:00001580       ??_C@_0CK@MBKHJPIF@realmd?5process?5priority?5class?5se@ 00452580     Main.obj
 0002:000015ac       ??_C@_0BA@MFGKOBPK@ProcessPriority?$AA@ 004525ac     Main.obj
 0002:000015bc       ??_C@_0CE@OANOFCEB@Can?8t?5set?5used?5processors?5?$CIhex?$CJ?3@ 004525bc     Main.obj
 0002:000015e0       ??_C@_0CE@EAPBCBFK@Using?5processors?5?$CIbitmask?0?5hex?$CJ?3@ 004525e0     Main.obj
 0002:00001608       ??_C@_0HH@PKPNJOBI@Processors?5marked?5in?5UseProcesso@ 00452608     Main.obj
 0002:00001680       ??_C@_0O@LHPHLOFK@UseProcessors?$AA@ 00452680     Main.obj
 0002:00001690       ??_C@_0CE@NEOADJBA@MaNGOS?5realmd?5can?5not?5bind?5to?5?$CFs@ 00452690     Main.obj
 0002:000016b4       ??_C@_06MJEKFICA@BindIP?$AA@ 004526b4     Main.obj
 0002:000016bc       ??_C@_07OHKHACFK@0?40?40?40?$AA@ 004526bc     Main.obj
 0002:000016c4       ??_C@_0BA@KEIOCCFG@RealmServerPort?$AA@ 004526c4     Main.obj
 0002:000016d4       ??_C@_0BL@MHMNNAGG@No?5valid?5realms?5specified?4?$AA@ 004526d4     Main.obj
 0002:000016f0       ??_C@_0BH@CANIAOHH@RealmsStateUpdateDelay?$AA@ 004526f0     Main.obj
 0002:00001708       ??_C@_0BA@OLILFJAH@Daemon?5PID?3?5?$CFu?6?$AA@ 00452708     Main.obj
 0002:00001718       ??_C@_0BM@EBKFEKME@Cannot?5create?5PID?5file?5?$CFs?4?6?$AA@ 00452718     Main.obj
 0002:00001734       ??_C@_07IKGKCPOM@PidFile?$AA@ 00452734     Main.obj
 0002:0000173c       ??_C@_0DD@LKPMFGID@WARNING?3?5Minimal?5required?5versio@ 0045273c     Main.obj
 0002:00001770       ??_C@_0EH@CPMDMIGO@WARNING?3?5Outdated?5version?5of?5Ope@ 00452770     Main.obj
 0002:000017b8       ??_C@_0BB@DJCDAAOJ@?$CFs?5?$CILibrary?3?5?$CFs?$CJ?$AA@ 004527b8     Main.obj
 0002:000017cc       ??_C@_0BL@GFNIGNIL@OpenSSL?50?49?48k?525?5Mar?52009?$AA@ 004527cc     Main.obj
 0002:000017e8       ??_C@_0BM@BLIDJPEO@?5?5?5?5?5?5?5?5?5?5strange?5behavior?4?$AA@ 004527e8     Main.obj
 0002:00001808       ??_C@_0EN@LOCDFOKG@?5?5?5?5?5?5?5?5?5?5Please?5check?5for?5updat@ 00452808     Main.obj
 0002:00001858       ??_C@_0EM@MJAGOHFC@?5WARNING?3?5Your?5realmd?4conf?5versi@ 00452858     Main.obj
 0002:000018a8       ??_C@_0EO@BNEKOOF@?$CK?$CK?$CK?$CK?$CK?$CK?$CK?$CK?$CK?$CK?$CK?$CK?$CK?$CK?$CK?$CK?$CK?$CK?$CK?$CK?$CK?$CK?$CK?$CK?$CK?$CK?$CK?$CK?$CK?$CK?$CK?$CK@ 004528a8     Main.obj
 0002:000018f8       ??_C@_0M@KMCICPOI@ConfVersion?$AA@ 004528f8     Main.obj
 0002:00001904       ??_C@_0BN@DMEDFGLK@Using?5configuration?5file?5?$CFs?4?$AA@ 00452904     Main.obj
 0002:00001924       ??_C@_0BD@JJEDIFMB@?$DMCtrl?9C?$DO?5to?5stop?4?6?$AA@ 00452924     Main.obj
 0002:00001938       ??_C@_0BC@JJIFHDEJ@?$CFs?5?$FLrealm?9daemon?$FN?$AA@ 00452938     Main.obj
 0002:0000194c       ??_C@_0CG@KPGIOLIH@Could?5not?5find?5configuration?5fil@ 0045294c     Main.obj
 0002:00001974       ??_C@_09KHEGEJL@?9?9service?$AA@ 00452974     Main.obj
 0002:00001980       ??_C@_0CF@NKBNCFPE@Runtime?9Error?3?5unsupported?5optio@ 00452980     Main.obj
 0002:000019a8       ??_C@_0BF@NNFKGFEG@Uninstalling?5service?$AA@ 004529a8     Main.obj
 0002:000019c0       ??_C@_09GGCLAKC@uninstall?$AA@ 004529c0     Main.obj
 0002:000019cc       ??_C@_0BD@GEAIHMPE@Installing?5service?$AA@ 004529cc     Main.obj
 0002:000019e0       ??_C@_07EALBDFH@install?$AA@ 004529e0     Main.obj
 0002:000019e8       ??_C@_0DE@MBFKPNAI@Runtime?9Error?3?5?9s?5option?5require@ 004529e8     Main.obj
 0002:00001a1c       ??_C@_02DEDJNJGL@?9s?$AA@  00452a1c     Main.obj
 0002:00001a20       ??_C@_03OFAPEBGM@?$CFs?6?$AA@ 00452a20     Main.obj
 0002:00001a28       ??_C@_0EE@HOKKPPGH@MaNGOS?10?414?40?9DEV?5?$CI?$CK?5?$CK?5Revision?5@ 00452a28     Main.obj
 0002:00001a6c       ??_C@_09GAJKMFCA@?9?9version?$AA@ 00452a6c     Main.obj
 0002:00001a78       ??_C@_0DE@CABLJPFE@Runtime?9Error?3?5?9c?5option?5require@ 00452a78     Main.obj
 0002:00001aac       ??_C@_02HOPLMLDK@?9c?$AA@  00452aac     Main.obj
 0002:00001ab0       ??_C@_0M@CMCCHIGG@realmd?4conf?$AA@ 00452ab0     Main.obj
 0002:00001abc       ??_C@_0BC@NFHFAOEA@realmd_db_version?$AA@ 00452abc     Main.obj
 0002:00001ad0       ??_C@_0CI@KPDAJPLE@required_8332_01_realmd_realmcha@ 00452ad0     Main.obj
 0002:00001af8       ??_C@_0BL@IIHPCLLM@Cannot?5connect?5to?5database?$AA@ 00452af8     Main.obj
 0002:00001b14       ??_C@_0N@NEMMNAGH@Database?3?5?$CFs?$AA@ 00452b14     Main.obj
 0002:00001b24       ??_C@_0BH@HGICDMJE@Database?5not?5specified?$AA@ 00452b24     Main.obj
 0002:00001b3c       ??_C@_0BC@EJBABCBL@LoginDatabaseInfo?$AA@ 00452b3c     Main.obj
 0002:00001b54       ??_7?$ListenSocket@VAuthSocket@@@@6B@ 00452b54     Main.obj
 0002:00001bc8       ??_C@_04BOBIPDML@Bind?$AA@ 00452bc8     Main.obj
 0002:00001bd0       ??_C@_0CJ@EMHAFPNI@name?5resolution?5of?5interface?5nam@ 00452bd0     Main.obj
 0002:00001bfc       ??_C@_03FPEIBLKH@tcp?$AA@  00452bfc     Main.obj
 0002:00001c00       ??_C@_0CE@OKINBEHD@ISocketHandler?5fd_set?5limit?5reac@ 00452c00     Main.obj
 0002:00001c24       ??_C@_0BB@GKGKILFH@Not?5OK?5to?5accept?$AA@ 00452c24     Main.obj
 0002:00001c38       ??_C@_06MPKMECK@accept?$AA@ 00452c38     Main.obj
 0002:00001c40       ??_C@_06OODDLKLE@listen?$AA@ 00452c40     Main.obj
 0002:00001c48       ??_C@_04NPNJNMMP@bind?$AA@ 00452c48     Main.obj
 0002:00001c50       ??_C@_01JLIPDDHJ@?3?$AA@   00452c50     RealmList.obj
 0002:00001c54       ??_C@_0BC@JEMCNDNN@Added?5realm?5?$CC?$CFs?$CC?4?$AA@ 00452c54     RealmList.obj
 0002:00001c68       __real@00000000            00452c68     RealmList.obj
 0002:00001c70       ??_C@_0IG@LLJAKIKG@SELECT?5id?0?5name?0?5address?0?5port?0?5@ 00452c70     RealmList.obj
 0002:00001cf8       ??_C@_0BH@DACGNJCI@Updating?5Realm?5List?4?4?4?$AA@ 00452cf8     RealmList.obj
 0002:00001d14       ??_7runtime_error@std@@6B@ 00452d14     RealmList.obj
 0002:00001d1c       ??_C@_0P@OELNLOIF@Dead?5Reference?$AA@ 00452d1c     RealmList.obj
 0002:00001d2c       ??_C@_09GCEIOEIK@?5HRESULT?5?$AA@ 00452d2c     WheatyExceptionReport.obj
 0002:00001d38       ??_C@_06CONOEBOI@?5BSTR?5?$AA@ 00452d38     WheatyExceptionReport.obj
 0002:00001d40       ??_C@_07ICFKONHI@?5?$DMbit?$DO?5?$AA@ 00452d40     WheatyExceptionReport.obj
 0002:00001d48       ??_C@_0M@JLPJPMKD@?5?$DMcomplex?$DO?5?$AA@ 00452d48     WheatyExceptionReport.obj
 0002:00001d54       ??_C@_09MLCDDBNF@?5VARIANT?5?$AA@ 00452d54     WheatyExceptionReport.obj
 0002:00001d60       ??_C@_08EOOPDGMP@?5?$DMdate?$DO?5?$AA@ 00452d60     WheatyExceptionReport.obj
 0002:00001d6c       ??_C@_0N@CDAEEJIN@?5?$DMcurrency?$DO?5?$AA@ 00452d6c     WheatyExceptionReport.obj
 0002:00001d7c       ??_C@_0BE@LJPIFEDE@?5unsigned?5__int128?5?$AA@ 00452d7c     WheatyExceptionReport.obj
 0002:00001d90       ??_C@_0BD@LOKPMBOM@?5unsigned?5__int64?5?$AA@ 00452d90     WheatyExceptionReport.obj
 0002:00001da4       ??_C@_0BD@INPMENGM@?5unsigned?5__int32?5?$AA@ 00452da4     WheatyExceptionReport.obj
 0002:00001db8       ??_C@_0BD@CAPMCNDL@?5unsigned?5__int16?5?$AA@ 00452db8     WheatyExceptionReport.obj
 0002:00001dcc       ??_C@_0BC@LLIPCGOF@?5unsigned?5__int8?5?$AA@ 00452dcc     WheatyExceptionReport.obj
 0002:00001de0       ??_C@_0L@KBBGAMP@?5__int128?5?$AA@ 00452de0     WheatyExceptionReport.obj
 0002:00001dec       ??_C@_09DBOBBEBE@?5__int64?5?$AA@ 00452dec     WheatyExceptionReport.obj
 0002:00001df8       ??_C@_09CLCJIJE@?5__int32?5?$AA@ 00452df8     WheatyExceptionReport.obj
 0002:00001e04       ??_C@_09KPLCPIMD@?5__int16?5?$AA@ 00452e04     WheatyExceptionReport.obj
 0002:00001e10       ??_C@_08JAMECBDJ@?5__int8?5?$AA@ 00452e10     WheatyExceptionReport.obj
 0002:00001e1c       ??_C@_0BA@JILLIFEO@?5unsigned?5long?5?$AA@ 00452e1c     WheatyExceptionReport.obj
 0002:00001e2c       ??_C@_06MKJPEPJH@?5long?5?$AA@ 00452e2c     WheatyExceptionReport.obj
 0002:00001e34       ??_C@_0BB@LJPJCHFO@?5unsigned?5short?5?$AA@ 00452e34     WheatyExceptionReport.obj
 0002:00001e48       ??_C@_07EGKEGJOE@?5short?5?$AA@ 00452e48     WheatyExceptionReport.obj
 0002:00001e50       ??_C@_06EEHMKGGD@?5bool?5?$AA@ 00452e50     WheatyExceptionReport.obj
 0002:00001e58       ??_C@_07POKMCHEK@?5?$DMBCD?$DO?5?$AA@ 00452e58     WheatyExceptionReport.obj
 0002:00001e60       ??_C@_07KKHPGAOK@?5float?5?$AA@ 00452e60     WheatyExceptionReport.obj
 0002:00001e68       ??_C@_0P@IMBOMFPL@?5unsigned?5int?5?$AA@ 00452e68     WheatyExceptionReport.obj
 0002:00001e78       ??_C@_05MADGCKEI@?5int?5?$AA@ 00452e78     WheatyExceptionReport.obj
 0002:00001e80       ??_C@_0BA@JJEDJKEG@?5unsigned?5char?5?$AA@ 00452e80     WheatyExceptionReport.obj
 0002:00001e90       ??_C@_0O@MIFBFPP@?5signed?5char?5?$AA@ 00452e90     WheatyExceptionReport.obj
 0002:00001ea0       ??_C@_0L@PFPKDKJE@?5wchar_t?$CK?5?$AA@ 00452ea0     WheatyExceptionReport.obj
 0002:00001eac       ??_C@_07PIGIEIPB@?5char?$CK?5?$AA@ 00452eac     WheatyExceptionReport.obj
 0002:00001eb4       ??_C@_06PHEDOIIK@?5void?5?$AA@ 00452eb4     WheatyExceptionReport.obj
 0002:00001ebc       ??_C@_0BB@BKCGHLEL@?5?$DMuser?5defined?$DO?5?$AA@ 00452ebc     WheatyExceptionReport.obj
 0002:00001f50       ??_C@_0BL@PNAAGJIB@?$CFs?2?$CFs_?$FL?$CFu?9?$CFu_?$CFu?9?$CFu?9?$CFu?$FN?4txt?$AA@ 00452f50     WheatyExceptionReport.obj
 0002:00001f6c       ??_C@_05BMGBEOOC@?$CFs?2?$CFs?$AA@ 00452f6c     WheatyExceptionReport.obj
 0002:00001f74       ??_C@_06MOJEACIN@Crashs?$AA@ 00452f74     WheatyExceptionReport.obj
 0002:00001f7c       ??_C@_0BE@JLBLPHPE@ProcessorNameString?$AA@ 00452f7c     WheatyExceptionReport.obj
 0002:00001f90       ??_C@_0CP@JONMPIIP@HARDWARE?2DESCRIPTION?2System?2Cent@ 00452f90     WheatyExceptionReport.obj
 0002:00001fc0       ??_C@_0BK@GHDIDC@?$CIVersion?5?$CFd?4?$CFd?0?5Build?5?$CFd?$CJ?$AA@ 00452fc0     WheatyExceptionReport.obj
 0002:00001fdc       ??_C@_0BN@LIPOIACF@?$CFs?5?$CIVersion?5?$CFd?4?$CFd?0?5Build?5?$CFd?$CJ?$AA@ 00452fdc     WheatyExceptionReport.obj
 0002:00001ffc       ??_C@_0CK@ODFLMOMF@Service?5Pack?56a?5?$CIVersion?5?$CFd?4?$CFd?0?5@ 00452ffc     WheatyExceptionReport.obj
 0002:00002028       ??_C@_0DM@GDNDBHFF@SOFTWARE?2Microsoft?2Windows?5NT?2Cu@ 00453028     WheatyExceptionReport.obj
 0002:00002064       ??_C@_0P@DDDLFAPN@Service?5Pack?56?$AA@ 00453064     WheatyExceptionReport.obj
 0002:00002074       ??_C@_0M@NOLKAJHO@Server?54?40?5?$AA@ 00453074     WheatyExceptionReport.obj
 0002:00002080       ??_C@_0CA@CPILAOML@Server?54?40?0?5Enterprise?5Edition?5?$AA@ 00453080     WheatyExceptionReport.obj
 0002:000020a0       ??_C@_07GGILJBPJ@Server?5?$AA@ 004530a0     WheatyExceptionReport.obj
 0002:000020a8       ??_C@_0BB@BIAFMEFO@Advanced?5Server?5?$AA@ 004530a8     WheatyExceptionReport.obj
 0002:000020bc       ??_C@_0BD@CMGHKCOJ@Datacenter?5Server?5?$AA@ 004530bc     WheatyExceptionReport.obj
 0002:000020d0       ??_C@_0BC@IGDCANHF@Standard?5Edition?5?$AA@ 004530d0     WheatyExceptionReport.obj
 0002:000020e4       ??_C@_0N@BNPFCBGM@Web?5Edition?5?$AA@ 004530e4     WheatyExceptionReport.obj
 0002:000020f4       ??_C@_0BE@NLEGHPDC@Enterprise?5Edition?5?$AA@ 004530f4     WheatyExceptionReport.obj
 0002:00002108       ??_C@_0BE@GKJIIJAP@Datacenter?5Edition?5?$AA@ 00453108     WheatyExceptionReport.obj
 0002:0000211c       ??_C@_0O@HLCCHGCK@Professional?5?$AA@ 0045311c     WheatyExceptionReport.obj
 0002:0000212c       ??_C@_09KLPPCFLE@Embedded?5?$AA@ 0045312c     WheatyExceptionReport.obj
 0002:00002138       ??_C@_0O@MDJHKKNB@Home?5Edition?5?$AA@ 00453138     WheatyExceptionReport.obj
 0002:00002148       ??_C@_0BB@EIAGMNAA@Workstation?54?40?5?$AA@ 00453148     WheatyExceptionReport.obj
 0002:0000215c       ??_C@_0BG@MPJOMPEN@Microsoft?5Windows?5NT?5?$AA@ 0045315c     WheatyExceptionReport.obj
 0002:00002174       ??_C@_0BI@LPKIKLGN@Microsoft?5Windows?52000?5?$AA@ 00453174     WheatyExceptionReport.obj
 0002:0000218c       ??_C@_0BG@LNOFGPNC@Microsoft?5Windows?5XP?5?$AA@ 0045318c     WheatyExceptionReport.obj
 0002:000021a4       ??_C@_0BP@OIBNMPEO@Microsoft?5Windows?5Server?52003?5?$AA@ 004531a4     WheatyExceptionReport.obj
 0002:000021c4       ??_C@_0CG@EIOLDEFB@Windows?5Vista?5or?5Windows?5Server?5@ 004531c4     WheatyExceptionReport.obj
 0002:000021ec       ??_C@_0CF@CHAHBCHH@?$AN?6?$CK?$CK?$CK?5Operation?5System?3?$AN?6?$DMunknow@ 004531ec     WheatyExceptionReport.obj
 0002:00002214       ??_C@_0CB@FJCJONPE@?$AN?6?$CK?$CK?$CK?5Operation?5System?5?$CK?$CK?$CK?$AN?6?$CFs?$AN?6@ 00453214     WheatyExceptionReport.obj
 0002:00002238       ??_C@_0IK@DMMPLOEJ@?$CK?$CK?$CK?5Hardware?5?$CK?$CK?$CK?$AN?6Processor?3?5?$DMun@ 00453238     WheatyExceptionReport.obj
 0002:000022c8       ??_C@_0ID@CJLDLIC@?$CK?$CK?$CK?5Hardware?5?$CK?$CK?$CK?$AN?6Processor?3?5?$CFs?$AN@ 004532c8     WheatyExceptionReport.obj
 0002:0000234c       ??_C@_0DK@IHNMKHMI@?1?1?$DN?$DN?$DN?$DN?$DN?$DN?$DN?$DN?$DN?$DN?$DN?$DN?$DN?$DN?$DN?$DN?$DN?$DN?$DN?$DN?$DN?$DN?$DN?$DN?$DN?$DN?$DN?$DN?$DN?$DN@ 0045334c     WheatyExceptionReport.obj
 0002:00002388       ??_C@_02PCIJFNDE@?$AN?6?$AA@ 00453388     WheatyExceptionReport.obj
 0002:0000238c       ??_C@_0BD@NJLHINHM@Global?5Variables?$AN?6?$AA@ 0045338c     WheatyExceptionReport.obj
 0002:000023a0       ??_C@_0CB@FNELJAGD@Local?5Variables?5And?5Parameters?$AN?6@ 004533a0     WheatyExceptionReport.obj
 0002:000023c4       ??_C@_0BL@PFOLJEOO@?$DN?$DN?$DN?$DN?$DN?$DN?$DN?$DN?$DN?$DN?$DN?$DN?$DN?$DN?$DN?$DN?$DN?$DN?$DN?$DN?$DN?$DN?$DN?$DN?$AN?6?$AA@ 004533c4     WheatyExceptionReport.obj
 0002:000023e0       ??_C@_0FJ@GHPIHMIM@?6?$ANCRITICAL?5ERROR?4?6?$AN?5Couldn?8t?5ini@ 004533e0     WheatyExceptionReport.obj
 0002:0000243c       ??_C@_0N@ELNJIOJD@Flags?3?$CF08X?$AN?6?$AA@ 0045343c     WheatyExceptionReport.obj
 0002:0000244c       ??_C@_0CF@KHDFOJHN@DS?3?$CF04X?5?5ES?3?$CF04X?5?5FS?3?$CF04X?5?5GS?3?$CF0@ 0045344c     WheatyExceptionReport.obj
 0002:00002474       ??_C@_0BN@OFMHGEIJ@SS?3ESP?3?$CF04X?3?$CF08X?5?5EBP?3?$CF08X?$AN?6?$AA@ 00453474     WheatyExceptionReport.obj
 0002:00002494       ??_C@_0BD@KMBLAJJH@CS?3EIP?3?$CF04X?3?$CF08X?$AN?6?$AA@ 00453494     WheatyExceptionReport.obj
 0002:000024a8       ??_C@_0DN@CAIGBFFM@EAX?3?$CF08X?$AN?6EBX?3?$CF08X?$AN?6ECX?3?$CF08X?$AN?6ED@ 004534a8     WheatyExceptionReport.obj
 0002:000024e8       ??_C@_0P@CGKMDHFN@?$AN?6Registers?3?$AN?6?$AA@ 004534e8     WheatyExceptionReport.obj
 0002:000024f8       ??_C@_0CE@LLFLHKIP@Fault?5address?3?5?5?$CF08X?5?$CF02X?3?$CF08X?5?$CF@ 004534f8     WheatyExceptionReport.obj
 0002:0000251c       ??_C@_0BK@HIMAEJCB@Exception?5code?3?5?$CF08X?5?$CFs?$AN?6?$AA@ 0045351c     WheatyExceptionReport.obj
 0002:00002538       ??_C@_0DM@NMFMLHDI@?$AN?6?1?1?$DN?$DN?$DN?$DN?$DN?$DN?$DN?$DN?$DN?$DN?$DN?$DN?$DN?$DN?$DN?$DN?$DN?$DN?$DN?$DN?$DN?$DN?$DN?$DN?$DN?$DN?$DN?$DN@ 00453538     WheatyExceptionReport.obj
 0002:00002574       ??_C@_0BN@POPFHLFM@Date?5?$CFu?3?$CFu?3?$CFu?4?5Time?5?$CFu?3?$CFu?5?$AN?6?$AA@ 00453574     WheatyExceptionReport.obj
 0002:00002594       ??_C@_0BI@KMHBEHJG@Revision?3?5?$CFs?5?$CFs?5?$CFs?5?$CFs?$AN?6?$AA@ 00453594     WheatyExceptionReport.obj
 0002:000025ac       ??_C@_04BAMNHEAK@8482?$AA@ 004535ac     WheatyExceptionReport.obj
 0002:000025b4       ??_C@_01NBENCBCI@?$CK?$AA@ 004535b4     WheatyExceptionReport.obj
 0002:000025b8       ??_C@_09KKJFIDEP@NTDLL?4DLL?$AA@ 004535b8     WheatyExceptionReport.obj
 0002:000025c4       ??_C@_0P@BJHADBBK@INVALID_HANDLE?$AA@ 004535c4     WheatyExceptionReport.obj
 0002:000025d4       ??_C@_0L@EECANHFC@GUARD_PAGE?$AA@ 004535d4     WheatyExceptionReport.obj
 0002:000025e0       ??_C@_0BE@KNOGEHDH@INVALID_DISPOSITION?$AA@ 004535e0     WheatyExceptionReport.obj
 0002:000025f4       ??_C@_0P@FOKFNGCC@STACK_OVERFLOW?$AA@ 004535f4     WheatyExceptionReport.obj
 0002:00002604       ??_C@_0BJ@HONCONAA@NONCONTINUABLE_EXCEPTION?$AA@ 00453604     WheatyExceptionReport.obj
 0002:00002620       ??_C@_0BE@PPPKHBFF@ILLEGAL_INSTRUCTION?$AA@ 00453620     WheatyExceptionReport.obj
 0002:00002634       ??_C@_0O@EAPDGJDK@IN_PAGE_ERROR?$AA@ 00453634     WheatyExceptionReport.obj
 0002:00002644       ??_C@_0BB@PLLMBPKL@PRIV_INSTRUCTION?$AA@ 00453644     WheatyExceptionReport.obj
 0002:00002658       ??_C@_0N@NOODLLAE@INT_OVERFLOW?$AA@ 00453658     WheatyExceptionReport.obj
 0002:00002668       ??_C@_0BD@JEAJAPHP@INT_DIVIDE_BY_ZERO?$AA@ 00453668     WheatyExceptionReport.obj
 0002:0000267c       ??_C@_0O@FPLBLLBA@FLT_UNDERFLOW?$AA@ 0045367c     WheatyExceptionReport.obj
 0002:0000268c       ??_C@_0BA@GJKDALBO@FLT_STACK_CHECK?$AA@ 0045368c     WheatyExceptionReport.obj
 0002:0000269c       ??_C@_0N@BFKIPAKO@FLT_OVERFLOW?$AA@ 0045369c     WheatyExceptionReport.obj
 0002:000026ac       ??_C@_0BG@KHLFFMKF@FLT_INVALID_OPERATION?$AA@ 004536ac     WheatyExceptionReport.obj
 0002:000026c4       ??_C@_0BD@IOJOCCFC@FLT_INEXACT_RESULT?$AA@ 004536c4     WheatyExceptionReport.obj
 0002:000026d8       ??_C@_0BD@NCECPCDC@FLT_DIVIDE_BY_ZERO?$AA@ 004536d8     WheatyExceptionReport.obj
 0002:000026ec       ??_C@_0BF@DPHAEECF@FLT_DENORMAL_OPERAND?$AA@ 004536ec     WheatyExceptionReport.obj
 0002:00002704       ??_C@_0BG@KDAKIDPK@ARRAY_BOUNDS_EXCEEDED?$AA@ 00453704     WheatyExceptionReport.obj
 0002:0000271c       ??_C@_0M@DKKFMHBE@SINGLE_STEP?$AA@ 0045371c     WheatyExceptionReport.obj
 0002:00002728       ??_C@_0L@EGBPFLC@BREAKPOINT?$AA@ 00453728     WheatyExceptionReport.obj
 0002:00002734       ??_C@_0BG@IKBJODCC@DATATYPE_MISALIGNMENT?$AA@ 00453734     WheatyExceptionReport.obj
 0002:0000274c       ??_C@_0BB@KOKDBDNI@ACCESS_VIOLATION?$AA@ 0045374c     WheatyExceptionReport.obj
 0002:00002760       ??_C@_0N@FDKDKIO@?5?5?$CFs?5line?5?$CFu?$AA@ 00453760     WheatyExceptionReport.obj
 0002:00002770       ??_C@_0N@KAIFAKFL@?$CF04X?3?$CF08X?5?$CFs?$AA@ 00453770     WheatyExceptionReport.obj
 0002:00002780       ??_C@_09DLBNBEGE@?$CFhs?$CL?$CFI64X?$AA@ 00453780     WheatyExceptionReport.obj
 0002:0000278c       ??_C@_0N@KCMAFMFB@?$CF08X?5?5?$CF08X?5?5?$AA@ 0045378c     WheatyExceptionReport.obj
 0002:0000279c       ??_C@_0CP@KIADIDPO@Address?5?5?5Frame?5?5?5?5?5Function?5?5?5?5@ 0045379c     WheatyExceptionReport.obj
 0002:000027cc       ??_C@_0BA@GKKBADCN@?$AN?6Call?5stack?3?$AN?6?$AA@ 004537cc     WheatyExceptionReport.obj
 0002:000027dc       ??_C@_0BH@LHFBFGPP@punting?5on?5symbol?5?$CFs?$AN?6?$AA@ 004537dc     WheatyExceptionReport.obj
 0002:000027f4       ??_C@_05OLKONLEL@?7?$CFs?$AN?6?$AA@ 004537f4     WheatyExceptionReport.obj
 0002:000027fc       ??_C@_04FBKCMAJG@?8?$CFs?8?$AA@ 004537fc     WheatyExceptionReport.obj
 0002:00002804       ??_C@_06JBNLAJBO@Local?5?$AA@ 00453804     WheatyExceptionReport.obj
 0002:0000280c       ??_C@_0L@GAPENNGB@Parameter?5?$AA@ 0045380c     WheatyExceptionReport.obj
 0002:00002818       ??_C@_01GPOEFGEJ@?7?$AA@   00453818     WheatyExceptionReport.obj
 0002:0000281c       ??_C@_04CKCPGAJL@?5?$CFls?$AA@ 0045381c     WheatyExceptionReport.obj
 0002:00002824       ??_C@_08MMLAIFBC@?5?$DN?5?$CFI64X?$AA@ 00453824     WheatyExceptionReport.obj
 0002:00002830       ??_C@_06DBINIDAD@?5?$DN?5?$CFlf?$AA@ 00453830     WheatyExceptionReport.obj
 0002:00002838       ??_C@_0L@EJHLJAAC@?5?$DN?5?$CC?$CF?431s?$CC?$AA@ 00453838     WheatyExceptionReport.obj
 0002:00002844       ??_C@_05LNDDMAEJ@?5?$DN?5?$CFf?$AA@ 00453844     WheatyExceptionReport.obj
 0002:0000284c       ??_C@_05PMPGNLDE@?5?$DN?5?$CFX?$AA@ 0045384c     WheatyExceptionReport.obj
 0002:00002858       ??_7type_info@@6B@         00453858     msvcrt:ti_inst.obj
 0002:00002864       ?ProcessDetach@NativeDll@<CrtImplementationDetails>@@0IB 00453864     msvcrt:unhandld.obj
 0002:00002868       ?ProcessAttach@NativeDll@<CrtImplementationDetails>@@0IB 00453868     msvcrt:unhandld.obj
 0002:0000286c       ?ThreadAttach@NativeDll@<CrtImplementationDetails>@@0IB 0045386c     msvcrt:unhandld.obj
 0002:00002870       ?ThreadDetach@NativeDll@<CrtImplementationDetails>@@0IB 00453870     msvcrt:unhandld.obj
 0002:00002874       ?ProcessVerifier@NativeDll@<CrtImplementationDetails>@@0IB 00453874     msvcrt:unhandld.obj
 0002:0000287c       ??_7TcpSocket@@6B@         0045387c     sockets:TcpSocket.obj
 0002:00002900       ??_C@_0BA@ODLFLOPA@connect?3?5failed?$AA@ 00453900     sockets:TcpSocket.obj
 0002:00002910       ??_C@_0CD@NNAHPAD@connect?3?5failed?0?5reconnect?5pendi@ 00453910     sockets:TcpSocket.obj
 0002:00002934       ??_C@_0BB@EBLECEDD@SetCallOnConnect?$AA@ 00453934     sockets:TcpSocket.obj
 0002:00002948       ??_C@_0BI@ODMDEHHE@Found?5pooled?5connection?$AA@ 00453948     sockets:TcpSocket.obj
 0002:00002960       ??_C@_0BI@FPCBJDCO@no?5space?5left?5in?5fd_set?$AA@ 00453960     sockets:TcpSocket.obj
 0002:00002978       ??_C@_04DNCDCIAE@Open?$AA@ 00453978     sockets:TcpSocket.obj
 0002:00002980       ??_C@_0BG@OIPLLGDA@Invalid?5SocketAddress?$AA@ 00453980     sockets:TcpSocket.obj
 0002:00002998       ??_C@_0BP@IADFJHFO@Resolver?5returned?5wrong?5job?5id?$AA@ 00453998     sockets:TcpSocket.obj
 0002:000029b8       ??_C@_0L@KDHAOFIL@OnResolved?$AA@ 004539b8     sockets:TcpSocket.obj
 0002:000029c4       ??_C@_0BA@DIDKJLPH@Resolver?5failed?$AA@ 004539c4     sockets:TcpSocket.obj
 0002:000029d4       ??_C@_0BJ@OLCFPOLK@abnormal?5value?5from?5recv?$AA@ 004539d4     sockets:TcpSocket.obj
 0002:000029f0       ??_C@_06OEIBNPBF@OnRead?$AA@ 004539f0     sockets:TcpSocket.obj
 0002:000029f8       ??_C@_0O@BLEDIAJL@ibuf?5overflow?$AA@ 004539f8     sockets:TcpSocket.obj
 0002:00002a08       ??_C@_04POLDLDMI@read?$AA@ 00453a08     sockets:TcpSocket.obj
 0002:00002a10       ??_C@_0BE@BONBAEJJ@tcp?3?5connect?5failed?$AA@ 00453a10     sockets:TcpSocket.obj
 0002:00002a24       ??_C@_04MIIPNNEF@send?$AA@ 00453a24     sockets:TcpSocket.obj
 0002:00002a30       ??_C@_0EE@ILBOECCO@Attempt?5to?5write?5to?5a?5non?9connec@ 00453a30     sockets:TcpSocket.obj
 0002:00002a74       ??_C@_0BE@ODFKJHDB@?5?$CK?5CloseAndDelete?$CI?$CJ?$AA@ 00453a74     sockets:TcpSocket.obj
 0002:00002a88       ??_C@_0BA@DMHPDEFK@?5?$CK?5Connecting?$CI?$CJ?$AA@ 00453a88     sockets:TcpSocket.obj
 0002:00002a98       ??_C@_0CB@OCHJEEKH@?5?$CK?5GetSocket?$CI?$CJ?5?$DN?$DN?5INVALID_SOCKET@ 00453a98     sockets:TcpSocket.obj
 0002:00002abc       ??_C@_07JGDGPOHK@SendBuf?$AA@ 00453abc     sockets:TcpSocket.obj
 0002:00002ac4       ??_C@_0CH@OKEHFFLE@Attempt?5to?5write?5to?5a?5non?9ready?5@ 00453ac4     sockets:TcpSocket.obj
 0002:00002af4       ??_7StreamSocket@@6B@      00453af4     sockets:TcpSocket.obj
 0002:00002b74       ??_7Socket@@6B@            00453b74     sockets:TcpSocket.obj
 0002:00002be4       ??_C@_0BG@ELJBFBCI@read?$CI?$CJ?5after?5shutdown?$AA@ 00453be4     sockets:TcpSocket.obj
 0002:00002bfc       ??_C@_0L@LOJKIHBE@bytes?5read?$AA@ 00453bfc     sockets:TcpSocket.obj
 0002:00002c08       ??_C@_08FIACBBDA@shutdown?$AA@ 00453c08     sockets:TcpSocket.obj
 0002:00002c14       ??_C@_0O@KHNGMOF@Socket?3?3Close?$AA@ 00453c14     sockets:TcpSocket.obj
 0002:00002c24       ??_C@_0BI@KFLALEOP@file?5descriptor?5invalid?$AA@ 00453c24     sockets:TcpSocket.obj
 0002:00002c3c       ??_C@_0CF@LCMJDAMF@setsockopt?$CIIPPROTO_TCP?0?5TCP_NODE@ 00453c3c     sockets:TcpSocket.obj
 0002:00002c64       ??_C@_07KAIBNCHO@connect?$AA@ 00453c64     sockets:TcpSocket.obj
 0002:00002c6c       ??_C@_0BA@LBMMIHP@connect?5timeout?$AA@ 00453c6c     sockets:TcpSocket.obj
 0002:00002c7c       ??_C@_0BE@IJAGHCFC@exception?5on?5select?$AA@ 00453c7c     sockets:TcpSocket.obj
 0002:00002c90       ??_C@_05LBOHBHFK@close?$AA@ 00453c90     sockets:Socket.obj
 0002:00002c98       ??_C@_06HBELJPBO@socket?$AA@ 00453c98     sockets:Socket.obj
 0002:00002ca0       ??_C@_0P@EIFFMLFM@getprotobyname?$AA@ 00453ca0     sockets:Socket.obj
 0002:00002cb0       ??_C@_0BF@GEHMILJF@ioctlsocket?$CIFIONBIO?$CJ?$AA@ 00453cb0     sockets:Socket.obj
 0002:00002cc8       ??_C@_07LHMIOPKF@GetPort?$AA@ 00453cc8     sockets:Socket.obj
 0002:00002cd0       ??_C@_0CK@JACIGMD@GetPort?5only?5implemented?5for?5Lis@ 00453cd0     sockets:Socket.obj
 0002:00002cfc       ??_C@_0BH@ENMAKKBM@SetClientRemoteAddress?$AA@ 00453cfc     sockets:Socket.obj
 0002:00002d14       ??_C@_0BJ@ILGMLFHC@remote?5address?5not?5valid?$AA@ 00453d14     sockets:Socket.obj
 0002:00002d30       ??_C@_0BH@EMOOINMD@GetClientRemoteAddress?$AA@ 00453d30     sockets:Socket.obj
 0002:00002d48       ??_C@_0BL@PJIKIBHF@remote?5address?5not?5yet?5set?$AA@ 00453d48     sockets:Socket.obj
 0002:00002d68       ??_7SocketThread@Socket@@6B@ 00453d68     sockets:Socket.obj
 0002:00002d70       ??_C@_0CD@OFELJAIG@setsockopt?$CIIPPROTO_IP?0?5IP_OPTION@ 00453d70     sockets:Socket.obj
 0002:00002d94       ??_C@_0CD@FKALGLBA@setsockopt?$CIIPPROTO_IP?0?5IP_PKTINF@ 00453d94     sockets:Socket.obj
 0002:00002db8       ??_C@_0BP@DDOJFMAJ@setsockopt?$CIIPPROTO_IP?0?5IP_TOS?$CJ?$AA@ 00453db8     sockets:Socket.obj
 0002:00002dd8       ??_C@_0BP@OGAIHCFN@getsockopt?$CIIPPROTO_IP?0?5IP_TOS?$CJ?$AA@ 00453dd8     sockets:Socket.obj
 0002:00002df8       ??_C@_0BP@KDILGINK@setsockopt?$CIIPPROTO_IP?0?5IP_TTL?$CJ?$AA@ 00453df8     sockets:Socket.obj
 0002:00002e18       ??_C@_0BP@HGGKEGIO@getsockopt?$CIIPPROTO_IP?0?5IP_TTL?$CJ?$AA@ 00453e18     sockets:Socket.obj
 0002:00002e38       ??_C@_0CD@MCHLOCIE@setsockopt?$CIIPPROTO_IP?0?5IP_HDRINC@ 00453e38     sockets:Socket.obj
 0002:00002e5c       ??_C@_0CJ@JGNAJAJA@setsockopt?$CIIPPROTO_IP?0?5IP_MULTIC@ 00453e5c     sockets:Socket.obj
 0002:00002e88       ??_C@_0CJ@NKJNOGIO@getsockopt?$CIIPPROTO_IP?0?5IP_MULTIC@ 00453e88     sockets:Socket.obj
 0002:00002eb4       ??_C@_0CK@FPPAGGL@setsockopt?$CIIPPROTO_IP?0?5IP_MULTIC@ 00453eb4     sockets:Socket.obj
 0002:00002ee0       ??_C@_0CK@HFONBEOG@setsockopt?$CIIPPROTO_IP?0?5IP_ADD_ME@ 00453ee0     sockets:Socket.obj
 0002:00002f0c       ??_C@_0CL@MLJFINIG@setsockopt?$CIIPPROTO_IP?0?5IP_DROP_M@ 00453f0c     sockets:Socket.obj
 0002:00002f38       ??_C@_0CF@JBGOFJGB@setsockopt?$CISOL_SOCKET?0?5SO_REUSEA@ 00453f38     sockets:Socket.obj
 0002:00002f60       ??_C@_0CF@DFKCDPCA@setsockopt?$CISOL_SOCKET?0?5SO_KEEPAL@ 00453f60     sockets:Socket.obj
 0002:00002f88       ??_C@_0CG@MKAGCJEM@getsockopt?$CISOL_SOCKET?0?5SO_ACCEPT@ 00453f88     sockets:Socket.obj
 0002:00002fb0       ??_C@_0CF@BHIGMPNJ@setsockopt?$CISOL_SOCKET?0?5SO_BROADC@ 00453fb0     sockets:Socket.obj
 0002:00002fd8       ??_C@_0CB@FFGKFHDG@setsockopt?$CISOL_SOCKET?0?5SO_DEBUG?$CJ@ 00453fd8     sockets:Socket.obj
 0002:00002ffc       ??_C@_0CB@KKGGGPDN@getsockopt?$CISOL_SOCKET?0?5SO_ERROR?$CJ@ 00453ffc     sockets:Socket.obj
 0002:00003020       ??_C@_0CF@GINMINPN@setsockopt?$CISOL_SOCKET?0?5SO_DONTRO@ 00454020     sockets:Socket.obj
 0002:00003048       ??_C@_0CC@KDFKEH@setsockopt?$CISOL_SOCKET?0?5SO_LINGER@ 00454048     sockets:Socket.obj
 0002:0000306c       ??_C@_0CF@PGCJJEDL@setsockopt?$CISOL_SOCKET?0?5SO_OOBINL@ 0045406c     sockets:Socket.obj
 0002:00003094       ??_C@_0CE@INIMEOFH@setsockopt?$CISOL_SOCKET?0?5SO_RCVLOW@ 00454094     sockets:Socket.obj
 0002:000030b8       ??_C@_0CE@KNJPPEGI@setsockopt?$CISOL_SOCKET?0?5SO_SNDLOW@ 004540b8     sockets:Socket.obj
 0002:000030dc       ??_C@_0CE@LKKFCLAG@setsockopt?$CISOL_SOCKET?0?5SO_RCVTIM@ 004540dc     sockets:Socket.obj
 0002:00003100       ??_C@_0CE@JKLGJBDJ@setsockopt?$CISOL_SOCKET?0?5SO_SNDTIM@ 00454100     sockets:Socket.obj
 0002:00003124       ??_C@_0CC@KBLBHFKF@setsockopt?$CISOL_SOCKET?0?5SO_RCVBUF@ 00454124     sockets:Socket.obj
 0002:00003148       ??_C@_0CC@BGAOCINO@getsockopt?$CISOL_SOCKET?0?5SO_RCVBUF@ 00454148     sockets:Socket.obj
 0002:0000316c       ??_C@_0CC@ECNCLHGL@setsockopt?$CISOL_SOCKET?0?5SO_SNDBUF@ 0045416c     sockets:Socket.obj
 0002:00003190       ??_C@_0CC@PFGNOKBA@getsockopt?$CISOL_SOCKET?0?5SO_SNDBUF@ 00454190     sockets:Socket.obj
 0002:000031b4       ??_C@_0CA@PKJOPHEN@getsockopt?$CISOL_SOCKET?0?5SO_TYPE?$CJ?$AA@ 004541b4     sockets:Socket.obj
 0002:000031dc       ??_7SocketHandler@@6B@     004541dc     sockets:SocketHandler.obj
 0002:0000324c       ??_7ISocketHandler@@6B@    0045424c     sockets:SocketHandler.obj
 0002:000032b8       ??_C@_0CL@CCBAGMAO@Attempt?5to?5add?5socket?5already?5in@ 004542b8     sockets:SocketHandler.obj
 0002:000032e4       ??_C@_03LDFMNCOE@Add?$AA@  004542e4     sockets:SocketHandler.obj
 0002:000032e8       ??_C@_0P@OGBIOPLJ@Invalid?5socket?$AA@ 004542e8     sockets:SocketHandler.obj
 0002:000032fc       ??_7PoolSocket@ISocketHandler@@6B@ 004542fc     sockets:SocketHandler.obj
 0002:0000336c       ??_C@_0CN@CGILNNLC@Closing?5socket?5while?5data?5still?5@ 0045436c     sockets:SocketHandler.obj
 0002:0000339c       ??_C@_09INDMPHPP@Reconnect?$AA@ 0045439c     sockets:SocketHandler.obj
 0002:000033a8       ??_C@_0BC@KEAFHAND@graceful?5shutdown?$AA@ 004543a8     sockets:SocketHandler.obj
 0002:000033bc       ??_C@_07BINCEHFK@Closing?$AA@ 004543bc     sockets:SocketHandler.obj
 0002:000033c4       ??_C@_0CA@DNLKLFKM@Sending?5all?5data?5before?5closing?$AA@ 004543c4     sockets:SocketHandler.obj
 0002:000033e4       ??_C@_0BE@FEMIKBDH@GetSocket?1handler?18?$AA@ 004543e4     sockets:SocketHandler.obj
 0002:000033f8       ??_C@_0BD@KPMOBHDJ@RetryClientConnect?$AA@ 004543f8     sockets:SocketHandler.obj
 0002:0000340c       ??_C@_0L@BJFFODEO@no?5address?$AA@ 0045440c     sockets:SocketHandler.obj
 0002:00003418       ??_C@_0BE@NDFALNPI@GetSocket?1handler?17?$AA@ 00454418     sockets:SocketHandler.obj
 0002:0000342c       ??_C@_0BE@MKELIMLJ@GetSocket?1handler?16?$AA@ 0045442c     sockets:SocketHandler.obj
 0002:00003440       ??_C@_0BE@OBGGNPHK@GetSocket?1handler?15?$AA@ 00454440     sockets:SocketHandler.obj
 0002:00003454       ??_C@_0BE@PIHNOODL@GetSocket?1handler?14?$AA@ 00454454     sockets:SocketHandler.obj
 0002:00003468       ??_C@_0BE@LHDMHIPM@GetSocket?1handler?13?$AA@ 00454468     sockets:SocketHandler.obj
 0002:0000347c       ??_C@_0BE@KOCHEJLN@GetSocket?1handler?12?$AA@ 0045447c     sockets:SocketHandler.obj
 0002:00003490       ??_C@_0BE@IFAKBKHO@GetSocket?1handler?11?$AA@ 00454490     sockets:SocketHandler.obj
 0002:000034a4       ??_C@_0DD@BEKLENPJ@Did?5not?5find?5expected?5socket?5usi@ 004544a4     sockets:SocketHandler.obj
 0002:000034d8       ??_C@_06LGNCCACI@select?$AA@ 004544d8     sockets:SocketHandler.obj
 0002:000034e0       ??_C@_0DD@NKPMCMBG@Trying?5to?5add?5socket?5with?5SetClo@ 004544e0     sockets:SocketHandler.obj
 0002:00003514       ??_C@_0DC@EFJGCPDL@Attempt?5to?5add?5socket?5already?5in@ 00454514     sockets:SocketHandler.obj
 0002:00003548       ??_C@_06HJGPBJLE@Select?$AA@ 00454548     sockets:SocketHandler.obj
 0002:00003550       ??_C@_0BD@MPOAFAH@FD_SETSIZE?5reached?$AA@ 00454550     sockets:SocketHandler.obj
 0002:00003564       ??_C@_0BL@EDCEGHOH@data?5on?5hibernating?5socket?$AA@ 00454564     sockets:SocketHandler.obj
 0002:00003580       ??_C@_07PLICOLCH@Resolve?$AA@ 00454580     sockets:SocketHandler.obj
 0002:00003588       ??_C@_0CG@KIFHMILH@Can?8t?5connect?5to?5local?5resolve?5s@ 00454588     sockets:SocketHandler.obj
 0002:000035b0       ??_C@_09PFCHIMEP@127?40?40?41?$AA@ 004545b0     sockets:SocketHandler.obj
 0002:000035bc       ??_C@_06MEPBJJFP@Remove?$AA@ 004545bc     sockets:SocketHandler.obj
 0002:000035c4       ??_C@_0CM@KHAMHAAM@Socket?5destructor?5called?5while?5s@ 004545c4     sockets:SocketHandler.obj
 0002:000035f0       ??_C@_0BL@IPNKKFBA@checklist?5close?5and?5delete?$AA@ 004545f0     sockets:SocketHandler.obj
 0002:0000360c       ??_C@_0BP@CHHOEBFI@checklist?5retry?5client?5connect?$AA@ 0045460c     sockets:SocketHandler.obj
 0002:0000362c       ??_C@_0BC@LIBFLBPP@checklist?5Timeout?$AA@ 0045462c     sockets:SocketHandler.obj
 0002:00003640       ??_C@_0BB@PLIEOOHL@checklist?5Detach?$AA@ 00454640     sockets:SocketHandler.obj
 0002:00003654       ??_C@_0BI@FGIFGFOO@checklist?5CallOnConnect?$AA@ 00454654     sockets:SocketHandler.obj
 0002:0000366c       ??_C@_0BF@KLJKEIPH@sockets?5to?5be?5erased?$AA@ 0045466c     sockets:SocketHandler.obj
 0002:00003684       ??_C@_0P@CLPKCBBC@active?5sockets?$AA@ 00454684     sockets:SocketHandler.obj
 0002:00003694       ??_C@_0CC@KDMIGJHI@CheckList?5failed?5for?5?$CC?$CFs?$CC?3?5fd?5?$CFd@ 00454694     sockets:SocketHandler.obj
 0002:000036bc       ??_7Ipv4Address@@6B@       004546bc     sockets:Ipv4Address.obj
 0002:000036f0       ??_7SocketAddress@@6B@     004546f0     sockets:Ipv4Address.obj
 0002:00003720       ??_C@_0BH@BLPDPOGD@Winsock?5error?5code?3?5?$CFd?$AA@ 00454720     sockets:socket_include.obj
 0002:00003738       ??_C@_0CO@JIKLALMA@Valid?5name?0?5no?5data?5record?5of?5re@ 00454738     sockets:socket_include.obj
 0002:00003768       ??_C@_0CA@MAHIFNBD@This?5is?5a?5nonrecoverable?5error?4?$AA@ 00454768     sockets:socket_include.obj
 0002:00003788       ??_C@_0CB@BHFFMGGM@Nonauthoritative?5host?5not?5found?4@ 00454788     sockets:socket_include.obj
 0002:000037ac       ??_C@_0BA@GFEMFDFG@Host?5not?5found?4?$AA@ 004547ac     sockets:socket_include.obj
 0002:000037bc       ??_C@_0BG@DPCOFCIG@Class?5type?5not?5found?4?$AA@ 004547bc     sockets:socket_include.obj
 0002:000037d4       ??_C@_0BP@LJDBFHGM@Graceful?5shutdown?5in?5progress?4?$AA@ 004547d4     sockets:socket_include.obj
 0002:000037f4       ??_C@_0CJ@IDCKMOHB@Successful?5WSAStartup?5not?5yet?5pe@ 004547f4     sockets:socket_include.obj
 0002:00003820       ??_C@_0CC@PPLEHHBE@Winsock?4dll?5version?5out?5of?5range@ 00454820     sockets:socket_include.obj
 0002:00003844       ??_C@_0CC@LAPHNDHH@Network?5subsystem?5is?5unavailable@ 00454844     sockets:socket_include.obj
 0002:00003868       ??_C@_0BE@LPAHEAJN@Too?5many?5processes?4?$AA@ 00454868     sockets:socket_include.obj
 0002:0000387c       ??_C@_0BC@LGEPODIC@No?5route?5to?5host?4?$AA@ 0045487c     sockets:socket_include.obj
 0002:00003890       ??_C@_0O@NFGFDNC@Host?5is?5down?4?$AA@ 00454890     sockets:socket_include.obj
 0002:000038a0       ??_C@_0BE@PAAMHJLG@Connection?5refused?4?$AA@ 004548a0     sockets:socket_include.obj
 0002:000038b4       ??_C@_0BG@FJOOPMBM@Connection?5timed?5out?4?$AA@ 004548b4     sockets:socket_include.obj
 0002:000038cc       ??_C@_0CD@DDOPECAA@Cannot?5send?5after?5socket?5shutdow@ 004548cc     sockets:socket_include.obj
 0002:000038f0       ??_C@_0BJ@ICFPCMKN@Socket?5is?5not?5connected?4?$AA@ 004548f0     sockets:socket_include.obj
 0002:0000390c       ??_C@_0BN@NKJOIDAP@Socket?5is?5already?5connected?4?$AA@ 0045490c     sockets:socket_include.obj
 0002:0000392c       ??_C@_0BL@HNDJEPNA@No?5buffer?5space?5available?4?$AA@ 0045492c     sockets:socket_include.obj
 0002:00003948       ??_C@_0BK@NKOFGCPK@Connection?5reset?5by?5peer?4?$AA@ 00454948     sockets:socket_include.obj
 0002:00003964       ??_C@_0CC@FDGMNFNN@Software?5caused?5connection?5abort@ 00454964     sockets:socket_include.obj
 0002:00003988       ??_C@_0CF@EAAKKOEF@Network?5dropped?5connection?5on?5re@ 00454988     sockets:socket_include.obj
 0002:000039b0       ??_C@_0BI@GJPCFKOM@Network?5is?5unreachable?4?$AA@ 004549b0     sockets:socket_include.obj
 0002:000039c8       ??_C@_0BB@JNLBCFLE@Network?5is?5down?4?$AA@ 004549c8     sockets:socket_include.obj
 0002:000039dc       ??_C@_0CB@BKNHHCEP@Cannot?5assign?5requested?5address?4@ 004549dc     sockets:socket_include.obj
 0002:00003a00       ??_C@_0BI@LBNMNFCL@Address?5already?5in?5use?4?$AA@ 00454a00     sockets:socket_include.obj
 0002:00003a18       ??_C@_0DB@BMBDNMEG@Address?5family?5not?5supported?5by?5@ 00454a18     sockets:socket_include.obj
 0002:00003a4c       ??_C@_0BP@EJPELDFL@Protocol?5family?5not?5supported?4?$AA@ 00454a4c     sockets:socket_include.obj
 0002:00003a6c       ??_C@_0BJ@OEEMOEE@Operation?5not?5supported?4?$AA@ 00454a6c     sockets:socket_include.obj
 0002:00003a88       ??_C@_0BL@IBGJAAEH@Socket?5type?5not?5supported?4?$AA@ 00454a88     sockets:socket_include.obj
 0002:00003aa4       ??_C@_0BI@HCEGKLDD@Protocol?5not?5supported?4?$AA@ 00454aa4     sockets:socket_include.obj
 0002:00003abc       ??_C@_0BF@NFGIPFNA@Bad?5protocol?5option?4?$AA@ 00454abc     sockets:socket_include.obj
 0002:00003ad4       ??_C@_0CA@MJJGEIL@Protocol?5wrong?5type?5for?5socket?4?$AA@ 00454ad4     sockets:socket_include.obj
 0002:00003af4       ??_C@_0BC@KAAFDOAL@Message?5too?5long?4?$AA@ 00454af4     sockets:socket_include.obj
 0002:00003b08       ??_C@_0BO@JHHLCHMN@Destination?5address?5required?4?$AA@ 00454b08     sockets:socket_include.obj
 0002:00003b28       ??_C@_0BP@NICEJLKJ@Socket?5operation?5on?5nonsocket?4?$AA@ 00454b28     sockets:socket_include.obj
 0002:00003b48       ??_C@_0BP@MBKBMKHO@Operation?5already?5in?5progress?4?$AA@ 00454b48     sockets:socket_include.obj
 0002:00003b68       ??_C@_0BL@NJLLEBOH@Operation?5now?5in?5progress?4?$AA@ 00454b68     sockets:socket_include.obj
 0002:00003b84       ??_C@_0CC@OLJNLKFP@Resource?5temporarily?5unavailable@ 00454b84     sockets:socket_include.obj
 0002:00003ba8       ??_C@_0BF@KPFLNEIL@Too?5many?5open?5files?4?$AA@ 00454ba8     sockets:socket_include.obj
 0002:00003bc0       ??_C@_0BC@PPKPNKFJ@Invalid?5argument?4?$AA@ 00454bc0     sockets:socket_include.obj
 0002:00003bd4       ??_C@_0N@GCLPIMGA@Bad?5address?4?$AA@ 00454bd4     sockets:socket_include.obj
 0002:00003be4       ??_C@_0BD@FKJFEME@Permission?5denied?4?$AA@ 00454be4     sockets:socket_include.obj
 0002:00003bf8       ??_C@_0BL@MNFCMOJL@Interrupted?5function?5call?4?$AA@ 00454bf8     sockets:socket_include.obj
 0002:00003c14       ??_C@_03JALODAI@?$CFld?$AA@ 00454c14     sockets:Utility.obj
 0002:00003c18       ??_C@_01GBGANLPD@0?$AA@    00454c18     sockets:Utility.obj
 0002:00003c1c       ??_C@_02CCEFEPIH@?3?4?$AA@ 00454c1c     sockets:Utility.obj
 0002:00003c20       ??_C@_01NEMOKFLO@?$DN?$AA@ 00454c20     sockets:Utility.obj
 0002:00003c24       ??_C@_01LFCBOECM@?4?$AA@   00454c24     sockets:Utility.obj
 0002:00003c28       ??_C@_0M@CDHNGIPM@?$CFu?4?$CFu?4?$CFu?4?$CFu?$AA@ 00454c28     sockets:Utility.obj
 0002:00003c34       ??_C@_02NJPGOMH@?$CFf?$AA@ 00454c34     sockets:Utility.obj
 0002:00003c3c       ??_7Thread@@6B@            00454c3c     sockets:Thread.obj
 0002:00003c48       ??_7ResolvServer@@6B@      00454c48     sockets:ResolvServer.obj
 0002:00003c54       ??_7?$ListenSocket@VResolvSocket@@@@6B@ 00454c54     sockets:ResolvServer.obj
 0002:00003ccc       ??_7ResolvSocket@@6B@      00454ccc     sockets:ResolvSocket.obj
 0002:00003d50       ??_C@_01FHEEJDEE@A?$AA@    00454d50     sockets:ResolvSocket.obj
 0002:00003d54       ??_C@_04FABLJDN@Name?$AA@  00454d54     sockets:ResolvSocket.obj
 0002:00003d5c       ??_C@_06CMLPEGNC@Failed?$AA@ 00454d5c     sockets:ResolvSocket.obj
 0002:00003d64       ??_C@_06LLFFOGID@Cached?$AA@ 00454d64     sockets:ResolvSocket.obj
 0002:00003d6c       ??_C@_06GECNACHD@Name?3?5?$AA@ 00454d6c     sockets:ResolvSocket.obj
 0002:00003d74       ??_C@_0O@KKMOHPAJ@gethostbyaddr?$AA@ 00454d74     sockets:ResolvSocket.obj
 0002:00003d84       ??_C@_02PHMGELLB@?6?6?$AA@ 00454d84     sockets:ResolvSocket.obj
 0002:00003d88       ??_C@_03EBGLFLFP@A?3?5?$AA@ 00454d88     sockets:ResolvSocket.obj
 0002:00003d8c       ??_C@_0O@BFBCKHPD@gethostbyname?$AA@ 00454d8c     sockets:ResolvSocket.obj
 0002:00003d9c       ??_C@_08NLMJACNL@Failed?6?6?$AA@ 00454d9c     sockets:ResolvSocket.obj
 0002:00003da8       ??_C@_07IOOFGPPG@Cached?6?$AA@ 00454da8     sockets:ResolvSocket.obj
 0002:00003db0       ??_C@_09BPDAGHNK@Unknown?6?6?$AA@ 00454db0     sockets:ResolvSocket.obj
 0002:00003dbc       ??_C@_0L@LBJBDGPD@OnDetached?$AA@ 00454dbc     sockets:ResolvSocket.obj
 0002:00003dc8       ??_C@_0BF@KAPHKIMP@Unknown?5query?5type?3?5?$AA@ 00454dc8     sockets:ResolvSocket.obj
 0002:00003de0       ??_C@_0BL@CAJGGOK@Failed?3?5malformed?5address?6?$AA@ 00454de0     sockets:ResolvSocket.obj
 0002:00003dfc       ??_C@_0CA@EIBJOAGM@Failed?3?5ipv4?5reverse?5lookup?5of?5?$AA@ 00454dfc     sockets:ResolvSocket.obj
 0002:00003e1c       ??_C@_0CH@FIPCGAKA@Failed?3?5convert?5to?5sockaddr_in?5f@ 00454e1c     sockets:ResolvSocket.obj
 0002:00003e44       ??_C@_07JCBOOEDE@Failed?6?$AA@ 00454e44     sockets:ResolvSocket.obj
 0002:00003e4c       ??_C@_01EEMJAFIK@?6?$AA@   00454e4c     sockets:ResolvSocket.obj
 0002:00003e50       ??_C@_0P@OMPCFCHJ@gethostbyaddr?5?$AA@ 00454e50     sockets:ResolvSocket.obj
 0002:00003e60       ??_C@_0P@LBCFJFKD@gethostbyname?5?$AA@ 00454e60     sockets:ResolvSocket.obj
 0002:00003e70       ??_C@_0EB@NFPJKBDG@ABCDEFGHIJKLMNOPQRSTUVWXYZabcdef@ 00454e70     sockets:Base64.obj
 0002:00003eb8       ?rstr@Base64@@0QBDB        00454eb8     sockets:Base64.obj
 0002:00003f38       ??_C@_02EGOFBIJA@?$DN?$DN?$AA@ 00454f38     sockets:Base64.obj
 0002:00003f3c       ??_C@_01KMDKNFGN@?1?$AA@   00454f3c     shared:Database.obj
 0002:00003f40       ??_C@_07HMOLEKHE@LogsDir?$AA@ 00454f40     shared:Database.obj
 0002:00003f48       ??_C@_06NLICMNJM@LogSQL?$AA@ 00454f48     shared:Database.obj
 0002:00003f50       ??_C@_0FB@KEBGIAME@SQL?9Logging?5is?5disabled?5?9?5Log?5fi@ 00454f50     shared:Database.obj
 0002:00003fa4       ??_C@_04JLKHEFBP@?$CFs?$DL?6?$AA@ 00454fa4     shared:Database.obj
 0002:00003fac       ??_C@_01MCMALHOG@a?$AA@    00454fac     shared:Database.obj
 0002:00003fb0       ??_C@_0BK@IKFLPNLG@?$CF04d?9?$CF02d?9?$CF02d_logSQL?4sql?$AA@ 00454fb0     shared:Database.obj
 0002:00003fcc       ??_C@_0DF@MMCIOJJE@SQL?5Query?5truncated?5?$CIand?5not?5exe@ 00454fcc     shared:Database.obj
 0002:00004008       ??_C@_0EO@BCHEIJBH@Table?5?$GA?$CFs?$GA?5fields?5list?5query?5fai@ 00455008     shared:Database.obj
 0002:00004058       ??_C@_0FF@FPNCAHBK@Table?5?$GA?$CFs?$GA?5not?5have?5required_?$CK?5f@ 00455058     shared:Database.obj
 0002:000040b0       ??_C@_0EL@DFEFLNPK@Table?5?$GA?$CFs?$GA?5have?5field?5?$GA?$CFs?$GA?5but?5e@ 004550b0     shared:Database.obj
 0002:000040fc       ??_C@_09PEHLKACO@required_?$AA@ 004550fc     shared:Database.obj
 0002:00004108       ??_C@_0BJ@OMMKOCMN@SELECT?5?$CK?5FROM?5?$CFs?5LIMIT?51?$AA@ 00455108     shared:Database.obj
 0002:00004124       ??_C@_0BK@EOGCPPAK@SELECT?5?$CFs?5FROM?5?$CFs?5LIMIT?51?$AA@ 00455124     shared:Database.obj
 0002:00004140       ??_C@_0BA@PNGAACEF@LogLevel?5is?5?$CFu?6?$AA@ 00455140     shared:Log.obj
 0002:00004150       ??_C@_0BE@LBDBFLOF@LogFileLevel?5is?5?$CFu?6?$AA@ 00455150     shared:Log.obj
 0002:00004164       ??_C@_0M@EBCPPEBO@CharLogDump?$AA@ 00455164     shared:Log.obj
 0002:00004170       ??_C@_0BN@JOFDAKPA@LogFilter_AchievementUpdates?$AA@ 00455170     shared:Log.obj
 0002:00004190       ??_C@_0BM@IEFIMOPA@LogFilter_VisibilityChanges?$AA@ 00455190     shared:Log.obj
 0002:000041ac       ??_C@_0BI@BGPLIADB@LogFilter_CreatureMoves?$AA@ 004551ac     shared:Log.obj
 0002:000041c4       ??_C@_0BJ@JMBPGBBC@LogFilter_TransportMoves?$AA@ 004551c4     shared:Log.obj
 0002:000041e0       ??_C@_09CBKGKOAJ@LogColors?$AA@ 004551e0     shared:Log.obj
 0002:000041ec       ??_C@_0N@CJHDJHEL@LogFileLevel?$AA@ 004551ec     shared:Log.obj
 0002:000041fc       ??_C@_08IGMCDLDE@LogLevel?$AA@ 004551fc     shared:Log.obj
 0002:00004208       ??_C@_07FPNIOCMJ@LogTime?$AA@ 00455208     shared:Log.obj
 0002:00004210       ??_C@_09DEGLDIJB@RaLogFile?$AA@ 00455210     shared:Log.obj
 0002:0000421c       ??_C@_0P@CGLPNPJP@DBErrorLogFile?$AA@ 0045521c     shared:Log.obj
 0002:0000422c       ??_C@_0M@BHFHMDHK@CharLogFile?$AA@ 0045522c     shared:Log.obj
 0002:00004238       ??_C@_0BB@DJFFNMON@CharLogTimestamp?$AA@ 00455238     shared:Log.obj
 0002:0000424c       ??_C@_04FNNHFJJA@_?$CD?$CFu?$AA@ 0045524c     shared:Log.obj
 0002:00004254       ??_C@_09JBCJADIK@GMLogFile?$AA@ 00455254     shared:Log.obj
 0002:00004260       ??_C@_0P@PJPOGAPJ@GmLogTimestamp?$AA@ 00455260     shared:Log.obj
 0002:00004270       ??_C@_0BA@GOEDJLKM@GmLogPerAccount?$AA@ 00455270     shared:Log.obj
 0002:00004280       ??_C@_07EEDKEMBM@LogFile?$AA@ 00455280     shared:Log.obj
 0002:00004288       ??_C@_0N@ELIEKOIJ@LogTimestamp?$AA@ 00455288     shared:Log.obj
 0002:00004298       ??_C@_01NOFIACDB@w?$AA@    00455298     shared:Log.obj
 0002:0000429c       ??_C@_01IDAFKMJL@_?$AA@    0045529c     shared:Log.obj
 0002:000042a0       ??_C@_0BP@BNEGNNMO@?$CF?94d?9?$CF02d?9?$CF02d?5?$CF02d?3?$CF02d?3?$CF02d?5?$AA@ 004552a0     shared:Log.obj
 0002:000042c0       ??_C@_0BA@HJBMBLHH@?$CF02d?3?$CF02d?3?$CF02d?5?$AA@ 004552c0     shared:Log.obj
 0002:000042d0       ??_C@_0BO@BOEMEOMC@?$CF04d?9?$CF02d?9?$CF02d_?$CF02d?9?$CF02d?9?$CF02d?$AA@ 004552d0     shared:Log.obj
 0002:000042f0       ??_C@_06PONDCDME@ERROR?3?$AA@ 004552f0     shared:Log.obj
 0002:000042f8       ??_C@_0EF@JKICEBGI@?$DN?$DN?5START?5DUMP?5?$DN?$DN?5?$CIaccount?3?5?$CFu?5gu@ 004552f8     shared:Log.obj
 0002:00004340       ??_C@_04EONKLICM@ruRU?$AA@ 00455340     shared:Common.obj
 0002:00004348       ??_C@_04BLKFDGGC@esMX?$AA@ 00455348     shared:Common.obj
 0002:00004350       ??_C@_04PGECLOBB@esES?$AA@ 00455350     shared:Common.obj
 0002:00004358       ??_C@_04OKGCGCJP@zhTW?$AA@ 00455358     shared:Common.obj
 0002:00004360       ??_C@_04GIALHOHC@zhCN?$AA@ 00455360     shared:Common.obj
 0002:00004368       ??_C@_04KDAKEAAC@deDE?$AA@ 00455368     shared:Common.obj
 0002:00004370       ??_C@_04BCADCMLM@frFR?$AA@ 00455370     shared:Common.obj
 0002:00004378       ??_C@_04EADIPEBM@koKR?$AA@ 00455378     shared:Common.obj
 0002:00004380       ??_C@_04EIBHJCCD@enUS?$AA@ 00455380     shared:Common.obj
 0002:00004388       ?_EEM_DS@?$deque@PBDV?$allocator@PBD@std@@@std@@2HB 00455388     shared:DatabaseMysql.obj
 0002:0000438c       ?_EEM_DS@?$deque@PAVIQueryCallback@MaNGOS@@V?$allocator@PAVIQueryCallback@MaNGOS@@@std@@@std@@2HB 0045538c     shared:DatabaseMysql.obj
 0002:00004390       ??_C@_0DD@EHKPIJFJ@FATAL?5ERROR?3?5Used?5MySQL?5library?5@ 00455390     shared:DatabaseMysql.obj
 0002:000043cc       ??_7DatabaseMysql@@6B@     004553cc     shared:DatabaseMysql.obj
 0002:00004408       ??_C@_0CP@OIBNCLFL@Could?5not?5connect?5to?5MySQL?5datab@ 00455408     shared:DatabaseMysql.obj
 0002:00004438       ??_C@_0BJ@BCFINPN@SET?5CHARACTER?5SET?5?$GAutf8?$GA?$AA@ 00455438     shared:DatabaseMysql.obj
 0002:00004454       ??_C@_0BB@ELDHLIP@SET?5NAMES?5?$GAutf8?$GA?$AA@ 00455454     shared:DatabaseMysql.obj
 0002:00004468       ??_C@_0BI@MDOGKIKD@AUTOCOMMIT?5NOT?5SET?5TO?51?$AA@ 00455468     shared:DatabaseMysql.obj
 0002:00004480       ??_C@_0CB@OEAKELOI@AUTOCOMMIT?5SUCCESSFULLY?5SET?5TO?51@ 00455480     shared:DatabaseMysql.obj
 0002:000044a4       ??_C@_0BG@BJAAMOAE@MySQL?5server?5ver?3?5?$CFs?5?$AA@ 004554a4     shared:DatabaseMysql.obj
 0002:000044bc       ??_C@_0BJ@EOMKJEAD@MySQL?5client?5library?3?5?$CFs?$AA@ 004554bc     shared:DatabaseMysql.obj
 0002:000044d8       ??_C@_0CC@PDIEHCBC@Connected?5to?5MySQL?5database?5at?5?$CF@ 004554d8     shared:DatabaseMysql.obj
 0002:000044fc       ??_C@_04LHHHFLPP@utf8?$AA@ 004554fc     shared:DatabaseMysql.obj
 0002:00004504       ??_C@_01ICJEACDI@?$DL?$AA@ 00455504     shared:DatabaseMysql.obj
 0002:00004508       ??_C@_0CG@KJODNOHN@Could?5not?5initialize?5Mysql?5conne@ 00455508     shared:DatabaseMysql.obj
 0002:00004530       ??_C@_0BA@LDOLCNI@query?5ERROR?3?5?$CFs?$AA@ 00455530     shared:DatabaseMysql.obj
 0002:00004540       ??_C@_07MNHLFNIA@SQL?3?5?$CFs?$AA@ 00455540     shared:DatabaseMysql.obj
 0002:0000454c       ??_7SqlStatement@@6B@      0045554c     shared:DatabaseMysql.obj
 0002:0000455c       ??_7SqlOperation@@6B@      0045555c     shared:DatabaseMysql.obj
 0002:00004568       ??_C@_0O@KDMBKPMI@SQL?5ERROR?3?5?$CFs?$AA@ 00455568     shared:DatabaseMysql.obj
 0002:0000457c       ??_7SqlTransaction@@6B@    0045557c     shared:DatabaseMysql.obj
 0002:00004588       ??_C@_0BC@CKOLCCI@START?5TRANSACTION?$AA@ 00455588     shared:DatabaseMysql.obj
 0002:0000459c       ??_C@_06IBPPMFNL@COMMIT?$AA@ 0045559c     shared:DatabaseMysql.obj
 0002:000045a4       ??_C@_08COBEBGNM@ROLLBACK?$AA@ 004555a4     shared:DatabaseMysql.obj
 0002:000045b4       ??_7MySQLDelayThread@@6B@  004555b4     shared:DatabaseMysql.obj
 0002:000045c4       ??_7?$LockedQueue@PAVSqlOperation@@VACE_Thread_Mutex@@V?$deque@PAVSqlOperation@@V?$allocator@PAVSqlOperation@@@std@@@std@@@ACE_Based@@6B@ 004555c4     shared:DatabaseMysql.obj
 0002:000045c8       ??_C@_0BC@KBDMBKEH@deque?$DMT?$DO?5too?5long?$AA@ 004555c8     shared:DatabaseMysql.obj
 0002:000045dc       ??_C@_01HIHLOKLC@1?$AA@    004555dc     shared:Config.obj
 0002:000045e0       ??_C@_03IPHJCBHH@YES?$AA@  004555e0     shared:Config.obj
 0002:000045e4       ??_C@_03ICICOMAL@yes?$AA@  004555e4     shared:Config.obj
 0002:000045e8       ??_C@_04HCDDPBNL@TRUE?$AA@ 004555e8     shared:Config.obj
 0002:000045f0       ??_C@_04LOAJBDKD@true?$AA@ 004555f0     shared:Config.obj
 0002:000045f8       ??_C@_0BP@DKFNOPCO@?4?4?2?4?4?2src?2shared?2Threading?4cpp?$AA@ 004555f8     shared:Threading.obj
 0002:00004618       ??_C@_0CK@ICMMBOBL@ACE_Based?3?3ThreadPriority?3?3Threa@ 00455618     shared:Threading.obj
 0002:00004644       ??_C@_0O@EBJGOPFO@?$CB_tmp?4empty?$CI?$CJ?$AA@ 00455644     shared:Threading.obj
 0002:00004654       ??_C@_0BK@ENOKKNAC@ACE_Based?3?3Thread?3?3Thread?$AA@ 00455654     shared:Threading.obj
 0002:00004670       ??_C@_06KJFGBABF@_start?$AA@ 00455670     shared:Threading.obj
 0002:00004678       ??_C@_0BP@OIJOJPLO@ACE_Based?3?3Thread?3?3setPriority?$AA@ 00455678     shared:Threading.obj
 0002:00004698       ??_C@_08IPDAOGJA@_ok?5?$DN?$DN?50?$AA@ 00455698     shared:Threading.obj
 0002:000046a4       ??_C@_03OHEJPPDF@?$CFp?6?$AA@ 004556a4     shared:Threading.obj
 0002:000046a8       ??_C@_0CC@BEIKODAI@ACE_Thread?3?3setspecific?$CI?$CJ?5failed@ 004556a8     shared:Threading.obj
 0002:000046cc       ??_C@_0CO@EHJMCNOD@d?3?2mangos?2code?2dep?2ACE_wrappers?2@ 004556cc     shared:Threading.obj
 0002:000046fc       ??_C@_0CA@NOONMCBG@ACE_Thread?3?3keycreate?$CI?$CJ?5failed?$CB?$AA@ 004556fc     shared:Threading.obj
 0002:00004720       ??_7?$ACE_TSS@VThread@ACE_Based@@@@6B@ 00455720     shared:Threading.obj
 0002:00004728       __real@3df0000000000000    00455728     shared:Util.obj
 0002:00004730       __real@4059000000000000    00455730     shared:Util.obj
 0002:00004738       ??_C@_04HKLEJGGD@?5?7?$AH?6?$AA@ 00455738     shared:Util.obj
 0002:00004740       ??_C@_0M@NKOAPMAP@?5Second?$CIs?$CJ?4?$AA@ 00455740     shared:Util.obj
 0002:0000474c       ??_C@_01LKDEMHDF@s?$AA@    0045574c     shared:Util.obj
 0002:00004750       ??_C@_0M@LGBJAEFD@?5Minute?$CIs?$CJ?5?$AA@ 00455750     shared:Util.obj
 0002:0000475c       ??_C@_01GOHFPIOK@m?$AA@    0045575c     shared:Util.obj
 0002:00004760       ??_C@_09ONDAOGGN@?5Hour?$CIs?$CJ?5?$AA@ 00455760     shared:Util.obj
 0002:0000476c       ??_C@_01BDACAMKP@h?$AA@    0045576c     shared:Util.obj
 0002:00004770       ??_C@_08BNBPIMMH@?5Day?$CIs?$CJ?5?$AA@ 00455770     shared:Util.obj
 0002:0000477c       ??_C@_01LPLHEDKD@d?$AA@    0045577c     shared:Util.obj
 0002:00004780       ??_C@_02DPKJAMEF@?$CFd?$AA@ 00455780     shared:Util.obj
 0002:00004784       ??_C@_11LOCGONAA@?$AA?$AA@ 00455784     shared:Util.obj
 0002:000048cc       ??_7invalid_utf16@utf8@@6B@ 004558cc     shared:Util.obj
 0002:000048d4       ??_C@_0P@DKGMBIAP@Invalid?5UTF?916?$AA@ 004558d4     shared:Util.obj
 0002:000048e8       ??_7invalid_code_point@utf8@@6B@ 004558e8     shared:Util.obj
 0002:000048f4       ??_7invalid_utf8@utf8@@6B@ 004558f4     shared:Util.obj
 0002:00004900       ??_7not_enough_room@utf8@@6B@ 00455900     shared:Util.obj
 0002:00004908       ??_C@_0BD@PFPOIKM@Invalid?5code?5point?$AA@ 00455908     shared:Util.obj
 0002:0000491c       ??_C@_0O@MHDBOPLB@Invalid?5UTF?98?$AA@ 0045591c     shared:Util.obj
 0002:0000492c       ??_C@_0BB@IMDKMPFB@Not?5enough?5space?$AA@ 0045592c     shared:Util.obj
 0002:00004944       ??_7?$ACE_TSS@VMTRand@@@@6B@ 00455944     shared:Util.obj
 0002:0000494c       ??_C@_0BG@LJCGGEN@ChangeServiceConfig2A?$AA@ 0045594c     shared:ServiceWin32.obj
 0002:00004964       ??_C@_0N@JJPEKNFO@ADVAPI32?4DLL?$AA@ 00455964     shared:ServiceWin32.obj
 0002:00004974       ??_C@_0L@EOFDCNG@?5?9?9service?$AA@ 00455974     shared:ServiceWin32.obj
 0002:00004980       ??_C@_0CA@GNCPMCIP@StartService?5Failed?4?5Error?5?$FL?$CFu?$FN?$AA@ 00455980     shared:ServiceWin32.obj
 0002:000049a0       ??_C@_0CP@FJKJKHGO@?4?4?2?4?4?2src?2shared?2Database?2QueryR@ 004559a0     shared:QueryResultMysql.obj
 0002:000049d0       ??_C@_0CD@BNICDGKF@QueryResultMysql?3?3QueryResultMys@ 004559d0     shared:QueryResultMysql.obj
 0002:000049f4       ??_C@_0M@PIOOPHJI@mCurrentRow?$AA@ 004559f4     shared:QueryResultMysql.obj
 0002:00004a04       ??_7QueryResultMysql@@6B@  00455a04     shared:QueryResultMysql.obj
 0002:00004a10       ??_7SqlQueryHolderEx@@6B@  00455a10     shared:SqlOperations.obj
 0002:00004a20       ??_C@_0FJ@HPJBKAMP@Attempt?5assign?5query?5to?5holder?5i@ 00455a20     shared:SqlOperations.obj
 0002:00004a7c       ??_C@_0DH@JLMEANGO@Query?5index?5?$CI?$CFu?$CJ?5out?5of?5range?5?$CIs@ 00455a7c     shared:SqlOperations.obj
 0002:00004ab4       ??_C@_0BM@HEHBLMLH@Query?5?$CIindex?3?5?$CFu?$CJ?5is?5empty?4?$AA@ 00455ab4     shared:SqlOperations.obj
 0002:00004ad4       ??_7SqlDelayThread@@6B@    00455ad4     shared:SqlDelayThread.obj
 0002:00004ae4       ??_7DOTCONFDocument@@6B@   00455ae4     shared:dotconfpp.obj
 0002:00004aec       ??_C@_0BD@COGCLEML@unterminated?5quote?$AA@ 00455aec     shared:dotconfpp.obj
 0002:00004b00       ??_C@_0BO@HHIPCAOF@not?5matched?5closing?5tag?5?$DM?1?$CFs?$DO?$AA@ 00455b00     shared:dotconfpp.obj
 0002:00004b20       ??_C@_0BH@MONAMFHC@warning?3?5line?5too?5long?$AA@ 00455b20     shared:dotconfpp.obj
 0002:00004b38       ??_C@_02PDDBGIOM@$?$HL?$AA@ 00455b38     shared:dotconfpp.obj
 0002:00004b3c       ??_C@_0BA@OFMJHGLP@unclosed?5tag?5?$CFs?$AA@ 00455b3c     shared:dotconfpp.obj
 0002:00004b4c       ??_C@_06DJHOIPC@?$CFs?3?5?$CFs?$AA@ 00455b4c     shared:dotconfpp.obj
 0002:00004b54       ??_C@_0BF@IBFAPNGJ@DOTCONFPPIncludeFile?$AA@ 00455b54     shared:dotconfpp.obj
 0002:00004b6c       ??_C@_0BN@NFFCHMPD@failed?5to?5open?5file?5?8?$CFs?8?3?5?$CFs?$AA@ 00455b6c     shared:dotconfpp.obj
 0002:00004b8c       ??_C@_01KDCPPGHE@r?$AA@    00455b8c     shared:dotconfpp.obj
 0002:00004b90       ??_C@_0BI@DEIACACE@realpath?$CI?$CFs?$CJ?5failed?3?5?$CFs?$AA@ 00455b90     shared:dotconfpp.obj
 0002:00004ba8       ??_C@_0CD@NPCNCBCM@required?5option?5?8?$CFs?8?5not?5specifi@ 00455ba8     shared:dotconfpp.obj
 0002:00004bcc       ??_C@_0P@KPDBEAHH@DOTCONF?$CL?$CL?3?5?$CFs?6?$AA@ 00455bcc     shared:dotconfpp.obj
 0002:00004bdc       ??_C@_0CD@PELDOONE@DOTCONF?$CL?$CL?3?5file?5?8?$CFs?8?0?5line?5?$CFd?3?5?$CF@ 00455bdc     shared:dotconfpp.obj
 0002:00004c00       ??_C@_0DD@KDBCMEA@substitution?5not?5found?5and?5defau@ 00455c00     shared:dotconfpp.obj
 0002:00004c34       ??_C@_0CE@MDLFEMKJ@incorrect?5macro?5substitution?5syn@ 00455c34     shared:dotconfpp.obj
 0002:00004c58       ??_C@_0BB@OENJJIJJ@unterminated?5?8?$HL?8?$AA@ 00455c58     shared:dotconfpp.obj
 0002:00004c70       ??_7AsyncDNSMemPool@@6B@   00455c70     shared:mempool.obj
 0002:00004c78       __load_config_used         00455c78     msvcrt:loadcfg.obj
 0002:00004d04       ??_R4QueryResult@@6B@      00455d04     AuthSocket.obj
 0002:00004d18       ??_R3QueryResult@@8        00455d18     AuthSocket.obj
 0002:00004d28       ??_R2QueryResult@@8        00455d28     AuthSocket.obj
 0002:00004d30       ??_R1A@?0A@EA@QueryResult@@8 00455d30     AuthSocket.obj
 0002:00004d4c       ??_R4Database@@6B@         00455d4c     AuthSocket.obj
 0002:00004d60       ??_R3Database@@8           00455d60     AuthSocket.obj
 0002:00004d70       ??_R2Database@@8           00455d70     AuthSocket.obj
 0002:00004d78       ??_R1A@?0A@EA@Database@@8  00455d78     AuthSocket.obj
 0002:00004d94       ??_R4AuthSocket@@6B@       00455d94     AuthSocket.obj
 0002:00004da8       ??_R3AuthSocket@@8         00455da8     AuthSocket.obj
 0002:00004db8       ??_R2AuthSocket@@8         00455db8     AuthSocket.obj
 0002:00004dcc       ??_R1A@?0A@EA@AuthSocket@@8 00455dcc     AuthSocket.obj
 0002:00004de8       ??_R1A@?0A@EA@TcpSocket@@8 00455de8     AuthSocket.obj
 0002:00004e04       ??_R3TcpSocket@@8          00455e04     AuthSocket.obj
 0002:00004e14       ??_R2TcpSocket@@8          00455e14     AuthSocket.obj
 0002:00004e24       ??_R1A@?0A@EA@StreamSocket@@8 00455e24     AuthSocket.obj
 0002:00004e40       ??_R3StreamSocket@@8       00455e40     AuthSocket.obj
 0002:00004e50       ??_R2StreamSocket@@8       00455e50     AuthSocket.obj
 0002:00004e5c       ??_R1A@?0A@EA@Socket@@8    00455e5c     AuthSocket.obj
 0002:00004e78       ??_R3Socket@@8             00455e78     AuthSocket.obj
 0002:00004e88       ??_R2Socket@@8             00455e88     AuthSocket.obj
 0002:00004e90       ??_R4Runnable@ACE_Based@@6B@ 00455e90     AuthSocket.obj
 0002:00004ea4       ??_R3Runnable@ACE_Based@@8 00455ea4     AuthSocket.obj
 0002:00004eb4       ??_R2Runnable@ACE_Based@@8 00455eb4     AuthSocket.obj
 0002:00004ebc       ??_R1A@?0A@EA@Runnable@ACE_Based@@8 00455ebc     AuthSocket.obj
 0002:00004ed8       ??_R4PatcherRunnable@@6B@  00455ed8     AuthSocket.obj
 0002:00004eec       ??_R3PatcherRunnable@@8    00455eec     AuthSocket.obj
 0002:00004efc       ??_R2PatcherRunnable@@8    00455efc     AuthSocket.obj
 0002:00004f08       ??_R1A@?0A@EA@PatcherRunnable@@8 00455f08     AuthSocket.obj
 0002:00004f24       ??_R4logic_error@std@@6B@  00455f24     AuthSocket.obj
 0002:00004f38       ??_R3logic_error@std@@8    00455f38     AuthSocket.obj
 0002:00004f48       ??_R2logic_error@std@@8    00455f48     AuthSocket.obj
 0002:00004f54       ??_R1A@?0A@EA@logic_error@std@@8 00455f54     AuthSocket.obj
 0002:00004f70       ??_R1A@?0A@EA@exception@std@@8 00455f70     AuthSocket.obj
 0002:00004f8c       ??_R3exception@std@@8      00455f8c     AuthSocket.obj
 0002:00004f9c       ??_R2exception@std@@8      00455f9c     AuthSocket.obj
 0002:00004fa4       ??_R4length_error@std@@6B@ 00455fa4     AuthSocket.obj
 0002:00004fb8       ??_R3length_error@std@@8   00455fb8     AuthSocket.obj
 0002:00004fc8       ??_R2length_error@std@@8   00455fc8     AuthSocket.obj
 0002:00004fd8       ??_R1A@?0A@EA@length_error@std@@8 00455fd8     AuthSocket.obj
 0002:00004ff4       ??_R4out_of_range@std@@6B@ 00455ff4     AuthSocket.obj
 0002:00005008       ??_R3out_of_range@std@@8   00456008     AuthSocket.obj
 0002:00005018       ??_R2out_of_range@std@@8   00456018     AuthSocket.obj
 0002:00005028       ??_R1A@?0A@EA@out_of_range@std@@8 00456028     AuthSocket.obj
 0002:00005044       ??_R4bad_alloc@std@@6B@    00456044     AuthSocket.obj
 0002:00005058       ??_R3bad_alloc@std@@8      00456058     AuthSocket.obj
 0002:00005068       ??_R2bad_alloc@std@@8      00456068     AuthSocket.obj
 0002:00005074       ??_R1A@?0A@EA@bad_alloc@std@@8 00456074     AuthSocket.obj
 0002:00005090       ??_R4?$ListenSocket@VAuthSocket@@@@6B@ 00456090     Main.obj
 0002:000050a4       ??_R3?$ListenSocket@VAuthSocket@@@@8 004560a4     Main.obj
 0002:000050b4       ??_R2?$ListenSocket@VAuthSocket@@@@8 004560b4     Main.obj
 0002:000050c0       ??_R1A@?0A@EA@?$ListenSocket@VAuthSocket@@@@8 004560c0     Main.obj
 0002:000050dc       ??_R4runtime_error@std@@6B@ 004560dc     RealmList.obj
 0002:000050f0       ??_R3runtime_error@std@@8  004560f0     RealmList.obj
 0002:00005100       ??_R2runtime_error@std@@8  00456100     RealmList.obj
 0002:0000510c       ??_R1A@?0A@EA@runtime_error@std@@8 0045610c     RealmList.obj
 0002:00005128       ??_R4type_info@@6B@        00456128     msvcrt:ti_inst.obj
 0002:0000513c       ??_R3type_info@@8          0045613c     msvcrt:ti_inst.obj
 0002:0000514c       ??_R2type_info@@8          0045614c     msvcrt:ti_inst.obj
 0002:00005154       ??_R1A@?0A@EA@type_info@@8 00456154     msvcrt:ti_inst.obj
 0002:00005170       ??_R4TcpSocket@@6B@        00456170     sockets:TcpSocket.obj
 0002:00005184       ??_R4StreamSocket@@6B@     00456184     sockets:TcpSocket.obj
 0002:00005198       ??_R4Socket@@6B@           00456198     sockets:TcpSocket.obj
 0002:000051ac       ??_R4SocketThread@Socket@@6B@ 004561ac     sockets:Socket.obj
 0002:000051c0       ??_R3SocketThread@Socket@@8 004561c0     sockets:Socket.obj
 0002:000051d0       ??_R2SocketThread@Socket@@8 004561d0     sockets:Socket.obj
 0002:000051dc       ??_R1A@?0A@EA@SocketThread@Socket@@8 004561dc     sockets:Socket.obj
 0002:000051f8       ??_R1A@?0A@EA@Thread@@8    004561f8     sockets:Socket.obj
 0002:00005214       ??_R3Thread@@8             00456214     sockets:Socket.obj
 0002:00005224       ??_R2Thread@@8             00456224     sockets:Socket.obj
 0002:0000522c       ??_R4ISocketHandler@@6B@   0045622c     sockets:SocketHandler.obj
 0002:00005240       ??_R3ISocketHandler@@8     00456240     sockets:SocketHandler.obj
 0002:00005250       ??_R2ISocketHandler@@8     00456250     sockets:SocketHandler.obj
 0002:00005258       ??_R1A@?0A@EA@ISocketHandler@@8 00456258     sockets:SocketHandler.obj
 0002:00005274       ??_R4SocketHandler@@6B@    00456274     sockets:SocketHandler.obj
 0002:00005288       ??_R3SocketHandler@@8      00456288     sockets:SocketHandler.obj
 0002:00005298       ??_R2SocketHandler@@8      00456298     sockets:SocketHandler.obj
 0002:000052a4       ??_R1A@?0A@EA@SocketHandler@@8 004562a4     sockets:SocketHandler.obj
 0002:000052c0       ??_R4PoolSocket@ISocketHandler@@6B@ 004562c0     sockets:SocketHandler.obj
 0002:000052d4       ??_R3PoolSocket@ISocketHandler@@8 004562d4     sockets:SocketHandler.obj
 0002:000052e4       ??_R2PoolSocket@ISocketHandler@@8 004562e4     sockets:SocketHandler.obj
 0002:000052f0       ??_R1A@?0A@EA@PoolSocket@ISocketHandler@@8 004562f0     sockets:SocketHandler.obj
 0002:0000530c       ??_R4SocketAddress@@6B@    0045630c     sockets:Ipv4Address.obj
 0002:00005320       ??_R3SocketAddress@@8      00456320     sockets:Ipv4Address.obj
 0002:00005330       ??_R2SocketAddress@@8      00456330     sockets:Ipv4Address.obj
 0002:00005338       ??_R1A@?0A@EA@SocketAddress@@8 00456338     sockets:Ipv4Address.obj
 0002:00005354       ??_R4Ipv4Address@@6B@      00456354     sockets:Ipv4Address.obj
 0002:00005368       ??_R3Ipv4Address@@8        00456368     sockets:Ipv4Address.obj
 0002:00005378       ??_R2Ipv4Address@@8        00456378     sockets:Ipv4Address.obj
 0002:00005384       ??_R1A@?0A@EA@Ipv4Address@@8 00456384     sockets:Ipv4Address.obj
 0002:000053a0       ??_R4Thread@@6B@           004563a0     sockets:Thread.obj
 0002:000053b4       ??_R4ResolvServer@@6B@     004563b4     sockets:ResolvServer.obj
 0002:000053c8       ??_R3ResolvServer@@8       004563c8     sockets:ResolvServer.obj
 0002:000053d8       ??_R2ResolvServer@@8       004563d8     sockets:ResolvServer.obj
 0002:000053e4       ??_R1A@?0A@EA@ResolvServer@@8 004563e4     sockets:ResolvServer.obj
 0002:00005400       ??_R4?$ListenSocket@VResolvSocket@@@@6B@ 00456400     sockets:ResolvServer.obj
 0002:00005414       ??_R3?$ListenSocket@VResolvSocket@@@@8 00456414     sockets:ResolvServer.obj
 0002:00005424       ??_R2?$ListenSocket@VResolvSocket@@@@8 00456424     sockets:ResolvServer.obj
 0002:00005430       ??_R1A@?0A@EA@?$ListenSocket@VResolvSocket@@@@8 00456430     sockets:ResolvServer.obj
 0002:0000544c       ??_R4ResolvSocket@@6B@     0045644c     sockets:ResolvSocket.obj
 0002:00005460       ??_R3ResolvSocket@@8       00456460     sockets:ResolvSocket.obj
 0002:00005470       ??_R2ResolvSocket@@8       00456470     sockets:ResolvSocket.obj
 0002:00005484       ??_R1A@?0A@EA@ResolvSocket@@8 00456484     sockets:ResolvSocket.obj
 0002:000054a0       ??_R4DatabaseMysql@@6B@    004564a0     shared:DatabaseMysql.obj
 0002:000054b4       ??_R3DatabaseMysql@@8      004564b4     shared:DatabaseMysql.obj
 0002:000054c4       ??_R2DatabaseMysql@@8      004564c4     shared:DatabaseMysql.obj
 0002:000054d0       ??_R1A@?0A@EA@DatabaseMysql@@8 004564d0     shared:DatabaseMysql.obj
 0002:000054ec       ??_R4SqlOperation@@6B@     004564ec     shared:DatabaseMysql.obj
 0002:00005500       ??_R3SqlOperation@@8       00456500     shared:DatabaseMysql.obj
 0002:00005510       ??_R2SqlOperation@@8       00456510     shared:DatabaseMysql.obj
 0002:00005518       ??_R1A@?0A@EA@SqlOperation@@8 00456518     shared:DatabaseMysql.obj
 0002:00005534       ??_R4SqlStatement@@6B@     00456534     shared:DatabaseMysql.obj
 0002:00005548       ??_R3SqlStatement@@8       00456548     shared:DatabaseMysql.obj
 0002:00005558       ??_R2SqlStatement@@8       00456558     shared:DatabaseMysql.obj
 0002:00005564       ??_R1A@?0A@EA@SqlStatement@@8 00456564     shared:DatabaseMysql.obj
 0002:00005580       ??_R4SqlTransaction@@6B@   00456580     shared:DatabaseMysql.obj
 0002:00005594       ??_R3SqlTransaction@@8     00456594     shared:DatabaseMysql.obj
 0002:000055a4       ??_R2SqlTransaction@@8     004565a4     shared:DatabaseMysql.obj
 0002:000055b0       ??_R1A@?0A@EA@SqlTransaction@@8 004565b0     shared:DatabaseMysql.obj
 0002:000055cc       ??_R4MySQLDelayThread@@6B@ 004565cc     shared:DatabaseMysql.obj
 0002:000055e0       ??_R3MySQLDelayThread@@8   004565e0     shared:DatabaseMysql.obj
 0002:000055f0       ??_R2MySQLDelayThread@@8   004565f0     shared:DatabaseMysql.obj
 0002:00005600       ??_R1A@?0A@EA@MySQLDelayThread@@8 00456600     shared:DatabaseMysql.obj
 0002:0000561c       ??_R1A@?0A@EA@SqlDelayThread@@8 0045661c     shared:DatabaseMysql.obj
 0002:00005638       ??_R3SqlDelayThread@@8     00456638     shared:DatabaseMysql.obj
 0002:00005648       ??_R2SqlDelayThread@@8     00456648     shared:DatabaseMysql.obj
 0002:00005654       ??_R4?$LockedQueue@PAVSqlOperation@@VACE_Thread_Mutex@@V?$deque@PAVSqlOperation@@V?$allocator@PAVSqlOperation@@@std@@@std@@@ACE_Based@@6B@ 00456654     shared:DatabaseMysql.obj
 0002:00005668       ??_R3?$LockedQueue@PAVSqlOperation@@VACE_Thread_Mutex@@V?$deque@PAVSqlOperation@@V?$allocator@PAVSqlOperation@@@std@@@std@@@ACE_Based@@8 00456668     shared:DatabaseMysql.obj
 0002:00005678       ??_R2?$LockedQueue@PAVSqlOperation@@VACE_Thread_Mutex@@V?$deque@PAVSqlOperation@@V?$allocator@PAVSqlOperation@@@std@@@std@@@ACE_Based@@8 00456678     shared:DatabaseMysql.obj
 0002:00005680       ??_R1A@?0A@EA@?$LockedQueue@PAVSqlOperation@@VACE_Thread_Mutex@@V?$deque@PAVSqlOperation@@V?$allocator@PAVSqlOperation@@@std@@@std@@@ACE_Based@@8 00456680     shared:DatabaseMysql.obj
 0002:0000569c       ??_R4?$ACE_TSS@VThread@ACE_Based@@@@6B@ 0045669c     shared:Threading.obj
 0002:000056b0       ??_R3?$ACE_TSS@VThread@ACE_Based@@@@8 004566b0     shared:Threading.obj
 0002:000056c0       ??_R2?$ACE_TSS@VThread@ACE_Based@@@@8 004566c0     shared:Threading.obj
 0002:000056c8       ??_R1A@?0A@EA@?$ACE_TSS@VThread@ACE_Based@@@@8 004566c8     shared:Threading.obj
 0002:000056e4       ??_R4invalid_utf16@utf8@@6B@ 004566e4     shared:Util.obj
 0002:000056f8       ??_R3invalid_utf16@utf8@@8 004566f8     shared:Util.obj
 0002:00005708       ??_R2invalid_utf16@utf8@@8 00456708     shared:Util.obj
 0002:00005714       ??_R1A@?0A@EA@invalid_utf16@utf8@@8 00456714     shared:Util.obj
 0002:00005730       ??_R4not_enough_room@utf8@@6B@ 00456730     shared:Util.obj
 0002:00005744       ??_R3not_enough_room@utf8@@8 00456744     shared:Util.obj
 0002:00005754       ??_R2not_enough_room@utf8@@8 00456754     shared:Util.obj
 0002:00005760       ??_R1A@?0A@EA@not_enough_room@utf8@@8 00456760     shared:Util.obj
 0002:0000577c       ??_R4invalid_utf8@utf8@@6B@ 0045677c     shared:Util.obj
 0002:00005790       ??_R3invalid_utf8@utf8@@8  00456790     shared:Util.obj
 0002:000057a0       ??_R2invalid_utf8@utf8@@8  004567a0     shared:Util.obj
 0002:000057ac       ??_R1A@?0A@EA@invalid_utf8@utf8@@8 004567ac     shared:Util.obj
 0002:000057c8       ??_R4invalid_code_point@utf8@@6B@ 004567c8     shared:Util.obj
 0002:000057dc       ??_R3invalid_code_point@utf8@@8 004567dc     shared:Util.obj
 0002:000057ec       ??_R2invalid_code_point@utf8@@8 004567ec     shared:Util.obj
 0002:000057f8       ??_R1A@?0A@EA@invalid_code_point@utf8@@8 004567f8     shared:Util.obj
 0002:00005814       ??_R4?$ACE_TSS@VMTRand@@@@6B@ 00456814     shared:Util.obj
 0002:00005828       ??_R3?$ACE_TSS@VMTRand@@@@8 00456828     shared:Util.obj
 0002:00005838       ??_R2?$ACE_TSS@VMTRand@@@@8 00456838     shared:Util.obj
 0002:00005840       ??_R1A@?0A@EA@?$ACE_TSS@VMTRand@@@@8 00456840     shared:Util.obj
 0002:0000585c       ??_R4QueryResultMysql@@6B@ 0045685c     shared:QueryResultMysql.obj
 0002:00005870       ??_R3QueryResultMysql@@8   00456870     shared:QueryResultMysql.obj
 0002:00005880       ??_R2QueryResultMysql@@8   00456880     shared:QueryResultMysql.obj
 0002:0000588c       ??_R1A@?0A@EA@QueryResultMysql@@8 0045688c     shared:QueryResultMysql.obj
 0002:000058a8       ??_R4SqlQueryHolderEx@@6B@ 004568a8     shared:SqlOperations.obj
 0002:000058bc       ??_R3SqlQueryHolderEx@@8   004568bc     shared:SqlOperations.obj
 0002:000058cc       ??_R2SqlQueryHolderEx@@8   004568cc     shared:SqlOperations.obj
 0002:000058d8       ??_R1A@?0A@EA@SqlQueryHolderEx@@8 004568d8     shared:SqlOperations.obj
 0002:000058f4       ??_R4SqlDelayThread@@6B@   004568f4     shared:SqlDelayThread.obj
 0002:00005908       ??_R4DOTCONFDocument@@6B@  00456908     shared:dotconfpp.obj
 0002:0000591c       ??_R3DOTCONFDocument@@8    0045691c     shared:dotconfpp.obj
 0002:0000592c       ??_R2DOTCONFDocument@@8    0045692c     shared:dotconfpp.obj
 0002:00005934       ??_R1A@?0A@EA@DOTCONFDocument@@8 00456934     shared:dotconfpp.obj
 0002:00005950       ??_R4AsyncDNSMemPool@@6B@  00456950     shared:mempool.obj
 0002:00005964       ??_R3AsyncDNSMemPool@@8    00456964     shared:mempool.obj
 0002:00005974       ??_R2AsyncDNSMemPool@@8    00456974     shared:mempool.obj
 0002:0000597c       ??_R1A@?0A@EA@AsyncDNSMemPool@@8 0045697c     shared:mempool.obj
 0002:000059a0       ___safe_se_handler_table   004569a0     <linker-defined>
 0002:00005fd8       ___rtc_iaa                 00456fd8     msvcrt:_initsect_.obj
 0002:00005fdc       ___rtc_izz                 00456fdc     msvcrt:_initsect_.obj
 0002:00005fe0       ___rtc_taa                 00456fe0     msvcrt:_initsect_.obj
 0002:00005fe4       ___rtc_tzz                 00456fe4     msvcrt:_initsect_.obj
 0002:00006b04       __TI3?AVlength_error@std@@ 00457b04     AuthSocket.obj
 0002:00006b48       __CTA3?AVlength_error@std@@ 00457b48     AuthSocket.obj
 0002:00006b58       __CT??_R0?AVlength_error@std@@@8??0length_error@std@@QAE@ABV01@@Z40 00457b58     AuthSocket.obj
 0002:00006b74       __CT??_R0?AVlogic_error@std@@@8??0logic_error@std@@QAE@ABV01@@Z40 00457b74     AuthSocket.obj
 0002:00006b90       __CT??_R0?AVexception@std@@@8??0exception@std@@QAE@ABV01@@Z12 00457b90     AuthSocket.obj
 0002:00006f78       __TI3?AVout_of_range@std@@ 00457f78     AuthSocket.obj
 0002:00006fb4       __CTA3?AVout_of_range@std@@ 00457fb4     AuthSocket.obj
 0002:00006fc4       __CT??_R0?AVout_of_range@std@@@8??0out_of_range@std@@QAE@ABV01@@Z40 00457fc4     AuthSocket.obj
 0002:000070f0       __TI2?AVbad_alloc@std@@    004580f0     AuthSocket.obj
 0002:00007100       __CTA2?AVbad_alloc@std@@   00458100     AuthSocket.obj
 0002:0000710c       __CT??_R0?AVbad_alloc@std@@@8??0bad_alloc@std@@QAE@ABV01@@Z12 0045810c     AuthSocket.obj
 0002:00007ac0       __TI2?AVruntime_error@std@@ 00458ac0     RealmList.obj
 0002:00007b04       __CTA2?AVruntime_error@std@@ 00458b04     RealmList.obj
 0002:00007b10       __CT??_R0?AVruntime_error@std@@@8??0runtime_error@std@@QAE@ABV01@@Z40 00458b10     RealmList.obj
 0002:0000bc08       __TI2?AVinvalid_utf16@utf8@@ 0045cc08     shared:Util.obj
 0002:0000bc18       __CTA2?AVinvalid_utf16@utf8@@ 0045cc18     shared:Util.obj
 0002:0000bc24       __CT??_R0?AVinvalid_utf16@utf8@@@8??0invalid_utf16@utf8@@QAE@ABV01@@Z16 0045cc24     shared:Util.obj
 0002:0000bcd4       __TI2?AVinvalid_code_point@utf8@@ 0045ccd4     shared:Util.obj
 0002:0000bce4       __TI2?AVinvalid_utf8@utf8@@ 0045cce4     shared:Util.obj
 0002:0000bcf4       __TI2?AVnot_enough_room@utf8@@ 0045ccf4     shared:Util.obj
 0002:0000bd04       __CTA2?AVnot_enough_room@utf8@@ 0045cd04     shared:Util.obj
 0002:0000bd10       __CT??_R0?AVnot_enough_room@utf8@@@8??0not_enough_room@utf8@@QAE@ABV01@@Z12 0045cd10     shared:Util.obj
 0002:0000bd2c       __CTA2?AVinvalid_utf8@utf8@@ 0045cd2c     shared:Util.obj
 0002:0000bd38       __CT??_R0?AVinvalid_utf8@utf8@@@8??0invalid_utf8@utf8@@QAE@ABV01@@Z16 0045cd38     shared:Util.obj
 0002:0000bd54       __CTA2?AVinvalid_code_point@utf8@@ 0045cd54     shared:Util.obj
 0002:0000bd60       __CT??_R0?AVinvalid_code_point@utf8@@@8??0invalid_code_point@utf8@@QAE@ABV01@@Z16 0045cd60     shared:Util.obj
 0002:0000c634       __IMPORT_DESCRIPTOR_LIBEAY32 0045d634     libeay32:LIBEAY32.dll
 0002:0000c648       __IMPORT_DESCRIPTOR_WS2_32 0045d648     ws2_32:WS2_32.dll
 0002:0000c65c       __IMPORT_DESCRIPTOR_ADVAPI32 0045d65c     advapi32:ADVAPI32.dll
 0002:0000c670       __IMPORT_DESCRIPTOR_dbghelp 0045d670     dbghelp:dbghelp.dll
 0002:0000c684       __IMPORT_DESCRIPTOR_MSVCP90 0045d684     MSVCPRT:MSVCP90.dll
 0002:0000c698       __IMPORT_DESCRIPTOR_MSVCR90 0045d698     msvcrt:MSVCR90.dll
 0002:0000c6ac       __IMPORT_DESCRIPTOR_KERNEL32 0045d6ac     kernel32:KERNEL32.dll
 0002:0000c6c0       __IMPORT_DESCRIPTOR_ACE    0045d6c0     ace:ACE.dll
 0002:0000c6d4       __IMPORT_DESCRIPTOR_WSOCK32 0045d6d4     wsock32:WSOCK32.dll
 0002:0000c6e8       __IMPORT_DESCRIPTOR_LIBMYSQL 0045d6e8     libmySQL:LIBMYSQL.dll
 0002:0000c6fc       __IMPORT_DESCRIPTOR_USER32 0045d6fc     user32:USER32.dll
 0002:0000c710       __NULL_IMPORT_DESCRIPTOR   0045d710     libeay32:LIBEAY32.dll
 0003:00000004       ??_R0?AVQueryResult@@@8    00462004     AuthSocket.obj
 0003:00000020       ??_R0?AVDatabase@@@8       00462020     AuthSocket.obj
 0003:00000038       ??_R0?AVAuthSocket@@@8     00462038     AuthSocket.obj
 0003:00000054       ??_R0?AVTcpSocket@@@8      00462054     AuthSocket.obj
 0003:0000006c       ??_R0?AVStreamSocket@@@8   0046206c     AuthSocket.obj
 0003:00000088       ??_R0?AVSocket@@@8         00462088     AuthSocket.obj
 0003:000000a0       ??_R0?AVRunnable@ACE_Based@@@8 004620a0     AuthSocket.obj
 0003:000000c4       ??_R0?AVPatcherRunnable@@@8 004620c4     AuthSocket.obj
 0003:000000e4       ??_R0?AVlogic_error@std@@@8 004620e4     AuthSocket.obj
 0003:00000104       ??_R0?AVexception@std@@@8  00462104     AuthSocket.obj
 0003:00000120       ??_R0?AVlength_error@std@@@8 00462120     AuthSocket.obj
 0003:00000140       ??_R0?AVout_of_range@std@@@8 00462140     AuthSocket.obj
 0003:00000160       ??_R0?AVbad_alloc@std@@@8  00462160     AuthSocket.obj
 0003:00000180       ?serviceName@@3PADA        00462180     Main.obj
 0003:00000188       ?serviceLongName@@3PADA    00462188     Main.obj
 0003:000001a0       ?serviceDescription@@3PADA 004621a0     Main.obj
 0003:000001c4       ?m_ServiceStatus@@3HA      004621c4     Main.obj
 0003:000001c8       ??_R0?AV?$ListenSocket@VAuthSocket@@@@@8 004621c8     Main.obj
 0003:000001f8       ??_R0?AVruntime_error@std@@@8 004621f8     RealmList.obj
 0003:0000021c       ??_R0?AVtype_info@@@8      0046221c     msvcrt:ti_inst.obj
 0003:00000234       ___security_cookie         00462234     msvcrt:gs_cookie.obj
 0003:00000238       ___security_cookie_complement 00462238     msvcrt:gs_cookie.obj
 0003:00000240       ___native_dllmain_reason   00462240     msvcrt:natstart.obj
 0003:00000244       ___native_vcclrit_reason   00462244     msvcrt:natstart.obj
 0003:00000248       ___globallocalestatus      00462248     msvcrt:xthdloc.obj
 0003:0000024c       ___defaultmatherr          0046224c     msvcrt:merr.obj
 0003:00000258       ??_R0?AVSocketThread@Socket@@@8 00462258     sockets:Socket.obj
 0003:0000027c       ??_R0?AVThread@@@8         0046227c     sockets:Socket.obj
 0003:0000029c       ??_R0?AVISocketHandler@@@8 0046229c     sockets:SocketHandler.obj
 0003:000002bc       ??_R0?AVSocketHandler@@@8  004622bc     sockets:SocketHandler.obj
 0003:000002d8       ??_R0?AVPoolSocket@ISocketHandler@@@8 004622d8     sockets:SocketHandler.obj
 0003:00000304       ??_R0?AVSocketAddress@@@8  00462304     sockets:Ipv4Address.obj
 0003:00000320       ??_R0?AVIpv4Address@@@8    00462320     sockets:Ipv4Address.obj
 0003:0000035c       ??_R0?AVResolvServer@@@8   0046235c     sockets:ResolvServer.obj
 0003:00000378       ??_R0?AVResolvSocket@@@8   00462378     sockets:ResolvServer.obj
 0003:00000394       ??_R0?AV?$ListenSocket@VResolvSocket@@@@@8 00462394     sockets:ResolvServer.obj
 0003:000003cc       ?bstr@Base64@@0PBDB        004623cc     sockets:Base64.obj
 0003:00000408       ?localeNames@@3PAPBDA      00462408     shared:Common.obj
 0003:00000430       ??_R0?AVDatabaseMysql@@@8  00462430     shared:DatabaseMysql.obj
 0003:0000044c       ??_R0?AVSqlOperation@@@8   0046244c     shared:DatabaseMysql.obj
 0003:00000468       ??_R0?AVSqlStatement@@@8   00462468     shared:DatabaseMysql.obj
 0003:00000484       ??_R0?AVSqlTransaction@@@8 00462484     shared:DatabaseMysql.obj
 0003:000004a4       ??_R0?AVMySQLDelayThread@@@8 004624a4     shared:DatabaseMysql.obj
 0003:000004c4       ??_R0?AVSqlDelayThread@@@8 004624c4     shared:DatabaseMysql.obj
 0003:000004e8       ??_R0?AV?$LockedQueue@PAVSqlOperation@@VACE_Thread_Mutex@@V?$deque@PAVSqlOperation@@V?$allocator@PAVSqlOperation@@@std@@@std@@@ACE_Based@@@8 004624e8     shared:DatabaseMysql.obj
 0003:00000580       ??_R0?AV?$ACE_TSS@VThread@ACE_Based@@@@@8 00462580     shared:Threading.obj
 0003:000005b0       ??_R0?AVinvalid_utf16@utf8@@@8 004625b0     shared:Util.obj
 0003:000005d4       ??_R0?AVnot_enough_room@utf8@@@8 004625d4     shared:Util.obj
 0003:000005f8       ??_R0?AVinvalid_utf8@utf8@@@8 004625f8     shared:Util.obj
 0003:00000618       ??_R0?AVinvalid_code_point@utf8@@@8 00462618     shared:Util.obj
 0003:00000640       ??_R0?AV?$ACE_TSS@VMTRand@@@@@8 00462640     shared:Util.obj
 0003:0000066c       ??_R0?AVQueryResultMysql@@@8 0046266c     shared:QueryResultMysql.obj
 0003:00000690       ??_R0?AVSqlQueryHolderEx@@@8 00462690     shared:SqlOperations.obj
 0003:000006b8       ??_R0?AVDOTCONFDocument@@@8 004626b8     shared:dotconfpp.obj
 0003:000006dc       ??_R0?AVAsyncDNSMemPool@@@8 004626dc     shared:mempool.obj
 0003:00000718       ?PatchesCache@@3VPatcher@@A 00462718     AuthSocket.obj
 0003:00000728       ?stopEvent@@3_NA           00462728     Main.obj
 0003:00000730       ?loginDatabase@@3VDatabaseMysql@@A 00462730     Main.obj
 0003:000007d8       ?m_realmList@@3VRealmList@@A 004627d8     Main.obj
 0003:000007f0       ?si_instance@?$Singleton@VRealmList@@V?$SingleThreaded@VRealmList@@@MaNGOS@@V?$OperatorNew@VRealmList@@@3@V?$ObjectLifeTime@VRealmList@@@3@@MaNGOS@@0PAVRealmList@@A 004627f0     RealmList.obj
 0003:000007f4       ?si_destroyed@?$Singleton@VRealmList@@V?$SingleThreaded@VRealmList@@@MaNGOS@@V?$OperatorNew@VRealmList@@@3@V?$ObjectLifeTime@VRealmList@@@3@@MaNGOS@@0_NA 004627f4     RealmList.obj
 0003:000007f8       ?m_szLogFileName@WheatyExceptionReport@@0PADA 004627f8     WheatyExceptionReport.obj
 0003:000008fc       ?m_previousFilter@WheatyExceptionReport@@0P6GJPAU_EXCEPTION_POINTERS@@@ZA 004628fc     WheatyExceptionReport.obj
 0003:00000900       ?m_hProcess@WheatyExceptionReport@@0PAXA 00462900     WheatyExceptionReport.obj
 0003:00000904       ?m_hReportFile@WheatyExceptionReport@@0PAXA 00462904     WheatyExceptionReport.obj
 0003:00000908       ?g_WheatyExceptionReport@@3VWheatyExceptionReport@@A 00462908     WheatyExceptionReport.obj
 0003:00000e54       __dowildcard               00462e54     msvcrt:wildcard.obj
 0003:00000e58       __newmode                  00462e58     msvcrt:_newmode.obj
 0003:00000e5c       __commode                  00462e5c     msvcrt:xncommod.obj
 0003:00000e60       __fmode                    00462e60     msvcrt:xtxtmode.obj
 0003:00000e68       ?m_winsock_init@Socket@@0VWSAInitializer@@A 00462e68     sockets:Socket.obj
 0003:0000105c       ?m_local_resolved@Utility@@0_NA 0046305c     sockets:Utility.obj
 0003:00001060       ?m_ip@Utility@@0KA         00463060     sockets:Utility.obj
 0003:00001064       ?m_host@Utility@@0V?$basic_string@DU?$char_traits@D@std@@V?$allocator@D@2@@std@@A 00463064     sockets:Utility.obj
 0003:00001080       ?m_addr@Utility@@0V?$basic_string@DU?$char_traits@D@std@@V?$allocator@D@2@@std@@A 00463080     sockets:Utility.obj
 0003:00001a68       ?m_cache_mutex@ResolvSocket@@0VMutex@@A 00463a68     sockets:ResolvSocket.obj
 0003:00001a6c       ?m_cache@ResolvSocket@@0V?$map@V?$basic_string@DU?$char_traits@D@std@@V?$allocator@D@2@@std@@V?$map@V?$basic_string@DU?$char_traits@D@std@@V?$allocator@D@2@@std@@V12@U?$less@V?$basic_string@DU?$char_traits@D@std@@V?$allocator@D@2@@std@@@2@V?$allocator@U?$pair@$$CBV?$basic_string@DU?$char_traits@D@std@@V?$allocator@D@2@@std@@V12@@std@@@2@@2@U?$less@V?$basic_string@DU?$char_traits@D@std@@V?$allocator@D@2@@std@@@2@V?$allocator@U?$pair@$$CBV?$basic_string@DU?$char_traits@D@std@@V?$allocator@D@2@@std@@V?$map@V?$basic_string@DU?$char_traits@D@std@@V?$allocator@D@2@@std@@V12@U?$less@V?$basic_string@DU?$char_traits@D@std@@V?$allocator@D@2@@std@@@2@V?$allocator@U?$pair@$$CBV?$basic_string@DU?$char_traits@D@std@@V?$allocator@D@2@@std@@V12@@std@@@2@@2@@std@@@2@@std@@A 00463a6c     sockets:ResolvSocket.obj
 0003:00001a78       ?m_cache_to@ResolvSocket@@0V?$map@V?$basic_string@DU?$char_traits@D@std@@V?$allocator@D@2@@std@@V?$map@V?$basic_string@DU?$char_traits@D@std@@V?$allocator@D@2@@std@@_JU?$less@V?$basic_string@DU?$char_traits@D@std@@V?$allocator@D@2@@std@@@2@V?$allocator@U?$pair@$$CBV?$basic_string@DU?$char_traits@D@std@@V?$allocator@D@2@@std@@_J@std@@@2@@2@U?$less@V?$basic_string@DU?$char_traits@D@std@@V?$allocator@D@2@@std@@@2@V?$allocator@U?$pair@$$CBV?$basic_string@DU?$char_traits@D@std@@V?$allocator@D@2@@std@@V?$map@V?$basic_string@DU?$char_traits@D@std@@V?$allocator@D@2@@std@@_JU?$less@V?$basic_string@DU?$char_traits@D@std@@V?$allocator@D@2@@std@@@2@V?$allocator@U?$pair@$$CBV?$basic_string@DU?$char_traits@D@std@@V?$allocator@D@2@@std@@_J@std@@@2@@2@@std@@@2@@std@@A 00463a78     sockets:ResolvSocket.obj
 0003:00001a84       ?si_instance@?$Singleton@VLog@@V?$SingleThreaded@VLog@@@MaNGOS@@V?$OperatorNew@VLog@@@3@V?$ObjectLifeTime@VLog@@@3@@MaNGOS@@0PAVLog@@A 00463a84     shared:Log.obj
 0003:00001a88       ?si_destroyed@?$Singleton@VLog@@V?$SingleThreaded@VLog@@@MaNGOS@@V?$OperatorNew@VLog@@@3@V?$ObjectLifeTime@VLog@@@3@@MaNGOS@@0_NA 00463a88     shared:Log.obj
 0003:00001a8c       ?db_count@DatabaseMysql@@0IA 00463a8c     shared:DatabaseMysql.obj
 0003:00001a90       ?si_instance@?$Singleton@VConfig@@V?$SingleThreaded@VConfig@@@MaNGOS@@V?$OperatorNew@VConfig@@@3@V?$ObjectLifeTime@VConfig@@@3@@MaNGOS@@0PAVConfig@@A 00463a90     shared:Config.obj
 0003:00001a94       ?si_destroyed@?$Singleton@VConfig@@V?$SingleThreaded@VConfig@@@MaNGOS@@V?$OperatorNew@VConfig@@@3@V?$ObjectLifeTime@VConfig@@@3@@MaNGOS@@0_NA 00463a94     shared:Config.obj
 0003:00001a98       ?m_TpEnum@Thread@ACE_Based@@0VThreadPriority@2@A 00463a98     shared:Threading.obj
 0003:00001ab4       ?m_ThreadStorage@Thread@ACE_Based@@0V?$ACE_TSS@VThread@ACE_Based@@@@A 00463ab4     shared:Threading.obj
 0003:00001afc       ?differ@?1??hash@MTRand@@KAI_JJ@Z@4IA 00463afc     shared:Util.obj
 0003:00001b28       ?serviceStatus@@3U_SERVICE_STATUS@@A 00463b28     shared:ServiceWin32.obj
 0003:00001b44       ?serviceStatusHandle@@3PAUSERVICE_STATUS_HANDLE__@@A 00463b44     shared:ServiceWin32.obj
 0003:00001b48       ?nothrow@std@@3Unothrow_t@1@B 00463b48     MSVCPRT:nothrow.obj
 0003:00001b4c       __adjust_fdiv              00463b4c     <common>
 0003:00001b50       ___native_startup_state    00463b50     <common>
 0003:00001b54       ___native_startup_lock     00463b54     <common>
 0003:00001b58       ___dyn_tls_init_callback   00463b58     <common>
 0003:00001b5c       ___onexitend               00463b5c     <common>
 0003:00001b60       ___onexitbegin             00463b60     <common>

 entry point at        0001:00012736

 Static symbols

 0001:fffff000       __unwindfunclet$??1?$_Hash@V?$_Hmap_traits@PAVThread@ACE_Based@@PAVSqlResultQueue@@V?$hash_compare@PAVThread@ACE_Based@@U?$less@PAVThread@ACE_Based@@@std@@@stdext@@V?$allocator@U?$pair@QAVThread@ACE_Based@@PAVSqlResultQueue@@@std@@@std@@$0A@@stdext@@@stdext@@QAE@XZ$0 00400000 f   shared:Database.obj
 0001:fffff000       __ehhandler$?_Insert_n@?$vector@V?$_Iterator@$0A@@?$list@U?$pair@QAVThread@ACE_Based@@PAVSqlTransaction@@@std@@V?$allocator@U?$pair@QAVThread@ACE_Based@@PAVSqlTransaction@@@std@@@2@@std@@V?$allocator@V?$_Iterator@$0A@@?$list@U?$pair@QAVThread@ACE_Based@@PAVSqlTransaction@@@std@@V?$allocator@U?$pair@QAVThread@ACE_Based@@PAVSqlTransaction@@@std@@@2@@std@@@3@@std@@IAEXV?$_Vector_const_iterator@V?$_Iterator@$0A@@?$list@U?$pair@QAVThread@ACE_Based@@PAVSqlTransaction@@@std@@V?$allocator@U?$pair@QAVThread@ACE_Based@@PAVSqlTransaction@@@std@@@2@@std@@V?$allocator@V?$_Iterator@$0A@@?$list@U?$pair@QAVThread@ACE_Based@@PAVSqlTransaction@@@std@@V?$allocator@U?$pair@QAVThread@ACE_Based@@PAVSqlTransaction@@@std@@@2@@std@@@3@@2@IABV?$_Iterator@$0A@@?$list@U?$pair@QAVThread@ACE_Based@@PAVSqlTransaction@@@std@@V?$allocator@U?$pair@QAVThread@ACE_Based@@PAVSqlTransaction@@@std@@@2@@2@@Z 00400000 f   shared:SqlDelayThread.obj
 0001:fffff000       __unwindfunclet$??0length_error@std@@QAE@ABV01@@Z$1 00400000 f   shared:Threading.obj
 0001:fffff000       __unwindfunclet$?_Xlen@?$vector@V?$_Iterator@$0A@@?$list@U?$pair@QAVThread@ACE_Based@@PAVSqlTransaction@@@std@@V?$allocator@U?$pair@QAVThread@ACE_Based@@PAVSqlTransaction@@@std@@@2@@std@@V?$allocator@V?$_Iterator@$0A@@?$list@U?$pair@QAVThread@ACE_Based@@PAVSqlTransaction@@@std@@V?$allocator@U?$pair@QAVThread@ACE_Based@@PAVSqlTransaction@@@std@@@2@@std@@@3@@std@@KAXXZ$0 00400000 f   shared:SqlDelayThread.obj
 0001:fffff000       __unwindfunclet$??1QueryNamedResult@@QAE@XZ$0 00400000 f   RealmList.obj
 0001:fffff000       __unwindfunclet$??0length_error@std@@QAE@ABV01@@Z$1 00400000 f   shared:SqlDelayThread.obj
 0001:fffff000       __ehhandler$?_Buynode@?$list@U?$pair@QAVThread@ACE_Based@@PAVSqlResultQueue@@@std@@V?$allocator@U?$pair@QAVThread@ACE_Based@@PAVSqlResultQueue@@@std@@@2@@std@@IAEPAU_Node@?$_List_nod@U?$pair@QAVThread@ACE_Based@@PAVSqlResultQueue@@@std@@V?$allocator@U?$pair@QAVThread@ACE_Based@@PAVSqlResultQueue@@@std@@@2@@2@XZ 00400000 f   shared:SqlDelayThread.obj
 0001:fffff000       __unwindfunclet$??0Database@@IAE@XZ$0 00400000 f   RealmList.obj
 0001:fffff000       __ehhandler$?_Insert_n@?$vector@V?$_Iterator@$0A@@?$list@U?$pair@QAVThread@ACE_Based@@PAVSqlResultQueue@@@std@@V?$allocator@U?$pair@QAVThread@ACE_Based@@PAVSqlResultQueue@@@std@@@2@@std@@V?$allocator@V?$_Iterator@$0A@@?$list@U?$pair@QAVThread@ACE_Based@@PAVSqlResultQueue@@@std@@V?$allocator@U?$pair@QAVThread@ACE_Based@@PAVSqlResultQueue@@@std@@@2@@std@@@3@@std@@IAEXV?$_Vector_const_iterator@V?$_Iterator@$0A@@?$list@U?$pair@QAVThread@ACE_Based@@PAVSqlResultQueue@@@std@@V?$allocator@U?$pair@QAVThread@ACE_Based@@PAVSqlResultQueue@@@std@@@2@@std@@V?$allocator@V?$_Iterator@$0A@@?$list@U?$pair@QAVThread@ACE_Based@@PAVSqlResultQueue@@@std@@V?$allocator@U?$pair@QAVThread@ACE_Based@@PAVSqlResultQueue@@@std@@@2@@std@@@3@@2@IABV?$_Iterator@$0A@@?$list@U?$pair@QAVThread@ACE_Based@@PAVSqlResultQueue@@@std@@V?$allocator@U?$pair@QAVThread@ACE_Based@@PAVSqlResultQueue@@@std@@@2@@2@@Z 00400000 f   shared:SqlDelayThread.obj
 0001:fffff000       __unwindfunclet$?_Xlen@?$vector@V?$_Iterator@$0A@@?$list@U?$pair@QAVThread@ACE_Based@@PAVSqlResultQueue@@@std@@V?$allocator@U?$pair@QAVThread@ACE_Based@@PAVSqlResultQueue@@@std@@@2@@std@@V?$allocator@V?$_Iterator@$0A@@?$list@U?$pair@QAVThread@ACE_Based@@PAVSqlResultQueue@@@std@@V?$allocator@U?$pair@QAVThread@ACE_Based@@PAVSqlResultQueue@@@std@@@2@@std@@@3@@std@@KAXXZ$0 00400000 f   shared:SqlDelayThread.obj
 0001:fffff000       __unwindfunclet$??0?$ACE_Atomic_Op@VACE_Thread_Mutex@@H@@QAE@XZ$0 00400000 f   shared:SqlDelayThread.obj
 0001:fffff000       __ehhandler$??$_Insert@V?$_Const_iterator@$0A@@?$list@U?$pair@QAVThread@ACE_Based@@PAVSqlTransaction@@@std@@V?$allocator@U?$pair@QAVThread@ACE_Based@@PAVSqlTransaction@@@std@@@2@@std@@@?$list@U?$pair@QAVThread@ACE_Based@@PAVSqlTransaction@@@std@@V?$allocator@U?$pair@QAVThread@ACE_Based@@PAVSqlTransaction@@@std@@@2@@std@@QAEXV?$_Const_iterator@$0A@@01@00Uforward_iterator_tag@1@@Z 00400000 f   shared:SqlDelayThread.obj
 0001:fffff000       __ehhandler$??$_Insert@V?$_Const_iterator@$0A@@?$list@U?$pair@QAVThread@ACE_Based@@PAVSqlResultQueue@@@std@@V?$allocator@U?$pair@QAVThread@ACE_Based@@PAVSqlResultQueue@@@std@@@2@@std@@@?$list@U?$pair@QAVThread@ACE_Based@@PAVSqlResultQueue@@@std@@V?$allocator@U?$pair@QAVThread@ACE_Based@@PAVSqlResultQueue@@@std@@@2@@std@@QAEXV?$_Const_iterator@$0A@@01@00Uforward_iterator_tag@1@@Z 00400000 f   shared:SqlDelayThread.obj
 0001:fffff000       __ehhandler$??$_Uninit_fill_n@PAV?$_Iterator@$0A@@?$list@U?$pair@QAVThread@ACE_Based@@PAVSqlTransaction@@@std@@V?$allocator@U?$pair@QAVThread@ACE_Based@@PAVSqlTransaction@@@std@@@2@@std@@IV123@V?$allocator@V?$_Iterator@$0A@@?$list@U?$pair@QAVThread@ACE_Based@@PAVSqlTransaction@@@std@@V?$allocator@U?$pair@QAVThread@ACE_Based@@PAVSqlTransaction@@@std@@@2@@std@@@3@@std@@YAXPAV?$_Iterator@$0A@@?$list@U?$pair@QAVThread@ACE_Based@@PAVSqlTransaction@@@std@@V?$allocator@U?$pair@QAVThread@ACE_Based@@PAVSqlTransaction@@@std@@@2@@0@IABV120@AAV?$allocator@V?$_Iterator@$0A@@?$list@U?$pair@QAVThread@ACE_Based@@PAVSqlTransaction@@@std@@V?$allocator@U?$pair@QAVThread@ACE_Based@@PAVSqlTransaction@@@std@@@2@@std@@@0@U_Nonscalar_ptr_iterator_tag@0@U_Range_checked_iterator_tag@0@@Z 00400000 f   shared:SqlDelayThread.obj
 0001:fffff000       __unwindfunclet$??0Database@@QAE@ABV0@@Z$4 00400000 f   RealmList.obj
 0001:fffff000       __ehhandler$?_Buynode@?$list@U?$pair@QAVThread@ACE_Based@@PAVSqlTransaction@@@std@@V?$allocator@U?$pair@QAVThread@ACE_Based@@PAVSqlTransaction@@@std@@@2@@std@@IAEPAU_Node@?$_List_nod@U?$pair@QAVThread@ACE_Based@@PAVSqlTransaction@@@std@@V?$allocator@U?$pair@QAVThread@ACE_Based@@PAVSqlTransaction@@@std@@@2@@2@XZ 00400000 f   shared:SqlDelayThread.obj
 0001:fffff000       __ehhandler$??$_Uninit_fill_n@PAV?$_Iterator@$0A@@?$list@U?$pair@QAVThread@ACE_Based@@PAVSqlResultQueue@@@std@@V?$allocator@U?$pair@QAVThread@ACE_Based@@PAVSqlResultQueue@@@std@@@2@@std@@IV123@V?$allocator@V?$_Iterator@$0A@@?$list@U?$pair@QAVThread@ACE_Based@@PAVSqlResultQueue@@@std@@V?$allocator@U?$pair@QAVThread@ACE_Based@@PAVSqlResultQueue@@@std@@@2@@std@@@3@@std@@YAXPAV?$_Iterator@$0A@@?$list@U?$pair@QAVThread@ACE_Based@@PAVSqlResultQueue@@@std@@V?$allocator@U?$pair@QAVThread@ACE_Based@@PAVSqlResultQueue@@@std@@@2@@0@IABV120@AAV?$allocator@V?$_Iterator@$0A@@?$list@U?$pair@QAVThread@ACE_Based@@PAVSqlResultQueue@@@std@@V?$allocator@U?$pair@QAVThread@ACE_Based@@PAVSqlResultQueue@@@std@@@2@@std@@@0@U_Nonscalar_ptr_iterator_tag@0@U_Range_checked_iterator_tag@0@@Z 00400000 f   shared:SqlDelayThread.obj
 0001:fffff000       __ehhandler$?_Buynode@?$list@U?$pair@QAVThread@ACE_Based@@PAVSqlTransaction@@@std@@V?$allocator@U?$pair@QAVThread@ACE_Based@@PAVSqlTransaction@@@std@@@2@@std@@IAEPAU_Node@?$_List_nod@U?$pair@QAVThread@ACE_Based@@PAVSqlTransaction@@@std@@V?$allocator@U?$pair@QAVThread@ACE_Based@@PAVSqlTransaction@@@std@@@2@@2@PAU342@0ABU?$pair@QAVThread@ACE_Based@@PAVSqlTransaction@@@2@@Z 00400000 f   shared:SqlDelayThread.obj
 0001:fffff000       __unwindfunclet$??0logic_error@std@@QAE@ABV01@@Z$0 00400000 f   shared:SqlDelayThread.obj
 0001:fffff000       __unwindfunclet$??1?$_Hash@V?$_Hmap_traits@PAVThread@ACE_Based@@PAVSqlTransaction@@V?$hash_compare@PAVThread@ACE_Based@@U?$less@PAVThread@ACE_Based@@@std@@@stdext@@V?$allocator@U?$pair@QAVThread@ACE_Based@@PAVSqlTransaction@@@std@@@std@@$0A@@stdext@@@stdext@@QAE@XZ$0 00400000 f   shared:Database.obj
 0001:fffff000       __unwindfunclet$?_Incsize@?$list@U?$pair@QAVThread@ACE_Based@@PAVSqlTransaction@@@std@@V?$allocator@U?$pair@QAVThread@ACE_Based@@PAVSqlTransaction@@@std@@@2@@std@@IAEXI@Z$0 00400000 f   shared:SqlDelayThread.obj
 0001:fffff000       __ehhandler$?_Buynode@?$list@U?$pair@QAVThread@ACE_Based@@PAVSqlResultQueue@@@std@@V?$allocator@U?$pair@QAVThread@ACE_Based@@PAVSqlResultQueue@@@std@@@2@@std@@IAEPAU_Node@?$_List_nod@U?$pair@QAVThread@ACE_Based@@PAVSqlResultQueue@@@std@@V?$allocator@U?$pair@QAVThread@ACE_Based@@PAVSqlResultQueue@@@std@@@2@@2@PAU342@0ABU?$pair@QAVThread@ACE_Based@@PAVSqlResultQueue@@@2@@Z 00400000 f   shared:SqlDelayThread.obj
 0001:fffff000       __unwindfunclet$?_Xlen@?$vector@V?$basic_string@DU?$char_traits@D@std@@V?$allocator@D@2@@std@@V?$allocator@V?$basic_string@DU?$char_traits@D@std@@V?$allocator@D@2@@std@@@2@@std@@KAXXZ$0 00400000 f   shared:SqlDelayThread.obj
 0001:fffff000       __unwindfunclet$??1?$vector@V?$basic_string@DU?$char_traits@D@std@@V?$allocator@D@2@@std@@V?$allocator@V?$basic_string@DU?$char_traits@D@std@@V?$allocator@D@2@@std@@@2@@std@@QAE@XZ$0 00400000 f   shared:Database.obj
 0001:fffff000       __unwindfunclet$?_Incsize@?$list@U?$pair@QAVThread@ACE_Based@@PAVSqlResultQueue@@@std@@V?$allocator@U?$pair@QAVThread@ACE_Based@@PAVSqlResultQueue@@@std@@@2@@std@@IAEXI@Z$0 00400000 f   shared:SqlDelayThread.obj
 0001:fffff000       __unwindfunclet$??0?$vector@V?$basic_string@DU?$char_traits@D@std@@V?$allocator@D@2@@std@@V?$allocator@V?$basic_string@DU?$char_traits@D@std@@V?$allocator@D@2@@std@@@2@@std@@QAE@ABV01@@Z$2 00400000 f   shared:Database.obj
 0001:fffff000       __unwindfunclet$??$_Uninit_copy@V?$_Vector_const_iterator@V?$basic_string@DU?$char_traits@D@std@@V?$allocator@D@2@@std@@V?$allocator@V?$basic_string@DU?$char_traits@D@std@@V?$allocator@D@2@@std@@@2@@std@@PAV?$basic_string@DU?$char_traits@D@std@@V?$allocator@D@2@@2@V?$allocator@V?$basic_string@DU?$char_traits@D@std@@V?$allocator@D@2@@std@@@2@@std@@YAPAV?$basic_string@DU?$char_traits@D@std@@V?$allocator@D@2@@0@V?$_Vector_const_iterator@V?$basic_string@DU?$char_traits@D@std@@V?$allocator@D@2@@std@@V?$allocator@V?$basic_string@DU?$char_traits@D@std@@V?$allocator@D@2@@std@@@2@@0@0PAV10@AAV?$allocator@V?$basic_string@DU?$char_traits@D@std@@V?$allocator@D@2@@std@@@0@U_Nonscalar_ptr_iterator_tag@0@U_Range_checked_iterator_tag@0@@Z$2 00400000 f   shared:SqlDelayThread.obj
 0001:fffff000       __unwindfunclet$??0?$vector@V?$basic_string@DU?$char_traits@D@std@@V?$allocator@D@2@@std@@V?$allocator@V?$basic_string@DU?$char_traits@D@std@@V?$allocator@D@2@@std@@@2@@std@@QAE@ABV01@@Z$2 00400000 f   RealmList.obj
 0001:fffff000       __unwindfunclet$??1?$vector@V?$_Iterator@$0A@@?$list@U?$pair@QAVThread@ACE_Based@@PAVSqlResultQueue@@@std@@V?$allocator@U?$pair@QAVThread@ACE_Based@@PAVSqlResultQueue@@@std@@@2@@std@@V?$allocator@V?$_Iterator@$0A@@?$list@U?$pair@QAVThread@ACE_Based@@PAVSqlResultQueue@@@std@@V?$allocator@U?$pair@QAVThread@ACE_Based@@PAVSqlResultQueue@@@std@@@2@@std@@@3@@std@@QAE@XZ$0 00400000 f   shared:SqlDelayThread.obj
 0001:fffff000       __unwindfunclet$??0out_of_range@std@@QAE@ABV01@@Z$1 00400000 f   sockets:ResolvSocket.obj
 0001:fffff000       __unwindfunclet$??1?$vector@V?$basic_string@DU?$char_traits@D@std@@V?$allocator@D@2@@std@@V?$allocator@V?$basic_string@DU?$char_traits@D@std@@V?$allocator@D@2@@std@@@2@@std@@QAE@XZ$0 00400000 f   RealmList.obj
 0001:fffff000       __unwindfunclet$??$_Uninit_copy@PAV?$basic_string@DU?$char_traits@D@std@@V?$allocator@D@2@@std@@PAV12@V?$allocator@V?$basic_string@DU?$char_traits@D@std@@V?$allocator@D@2@@std@@@2@@std@@YAPAV?$basic_string@DU?$char_traits@D@std@@V?$allocator@D@2@@0@PAV10@00AAV?$allocator@V?$basic_string@DU?$char_traits@D@std@@V?$allocator@D@2@@std@@@0@U_Nonscalar_ptr_iterator_tag@0@U_Range_checked_iterator_tag@0@@Z$2 00400000 f   shared:SqlDelayThread.obj
 0001:fffff000       __unwindfunclet$??0?$vector@V?$_Iterator@$0A@@?$list@U?$pair@QAVThread@ACE_Based@@PAVSqlResultQueue@@@std@@V?$allocator@U?$pair@QAVThread@ACE_Based@@PAVSqlResultQueue@@@std@@@2@@std@@V?$allocator@V?$_Iterator@$0A@@?$list@U?$pair@QAVThread@ACE_Based@@PAVSqlResultQueue@@@std@@V?$allocator@U?$pair@QAVThread@ACE_Based@@PAVSqlResultQueue@@@std@@@2@@std@@@3@@std@@QAE@ABV?$allocator@V?$_Iterator@$0A@@?$list@U?$pair@QAVThread@ACE_Based@@PAVSqlResultQueue@@@std@@V?$allocator@U?$pair@QAVThread@ACE_Based@@PAVSqlResultQueue@@@std@@@2@@std@@@1@@Z$0 00400000 f   shared:SqlDelayThread.obj
 0001:fffff000       __unwindfunclet$??1?$list@U?$pair@QAVThread@ACE_Based@@PAVSqlResultQueue@@@std@@V?$allocator@U?$pair@QAVThread@ACE_Based@@PAVSqlResultQueue@@@std@@@2@@std@@QAE@XZ$0 00400000 f   shared:SqlDelayThread.obj
 0001:fffff000       __unwindfunclet$??1?$_Hash@V?$_Hmap_traits@PAVThread@ACE_Based@@PAVSqlTransaction@@V?$hash_compare@PAVThread@ACE_Based@@U?$less@PAVThread@ACE_Based@@@std@@@stdext@@V?$allocator@U?$pair@QAVThread@ACE_Based@@PAVSqlTransaction@@@std@@@std@@$0A@@stdext@@@stdext@@QAE@XZ$0 00400000 f   RealmList.obj
 0001:fffff000       __ehhandler$??$_Uninit_copy@PAV?$_Iterator@$0A@@?$list@U?$pair@QAVThread@ACE_Based@@PAVSqlTransaction@@@std@@V?$allocator@U?$pair@QAVThread@ACE_Based@@PAVSqlTransaction@@@std@@@2@@std@@PAV123@V?$allocator@V?$_Iterator@$0A@@?$list@U?$pair@QAVThread@ACE_Based@@PAVSqlTransaction@@@std@@V?$allocator@U?$pair@QAVThread@ACE_Based@@PAVSqlTransaction@@@std@@@2@@std@@@3@@std@@YAPAV?$_Iterator@$0A@@?$list@U?$pair@QAVThread@ACE_Based@@PAVSqlTransaction@@@std@@V?$allocator@U?$pair@QAVThread@ACE_Based@@PAVSqlTransaction@@@std@@@2@@0@PAV120@00AAV?$allocator@V?$_Iterator@$0A@@?$list@U?$pair@QAVThread@ACE_Based@@PAVSqlTransaction@@@std@@V?$allocator@U?$pair@QAVThread@ACE_Based@@PAVSqlTransaction@@@std@@@2@@std@@@0@U_Nonscalar_ptr_iterator_tag@0@U_Range_checked_iterator_tag@0@@Z 00400000 f   shared:SqlDelayThread.obj
 0001:fffff000       __unwindfunclet$??0?$list@U?$pair@QAVThread@ACE_Based@@PAVSqlResultQueue@@@std@@V?$allocator@U?$pair@QAVThread@ACE_Based@@PAVSqlResultQueue@@@std@@@2@@std@@QAE@ABV?$allocator@U?$pair@QAVThread@ACE_Based@@PAVSqlResultQueue@@@std@@@1@@Z$0 00400000 f   shared:SqlDelayThread.obj
 0001:fffff000       __ehhandler$??$_Uninit_copy@PAV?$_Iterator@$0A@@?$list@U?$pair@QAVThread@ACE_Based@@PAVSqlResultQueue@@@std@@V?$allocator@U?$pair@QAVThread@ACE_Based@@PAVSqlResultQueue@@@std@@@2@@std@@PAV123@V?$allocator@V?$_Iterator@$0A@@?$list@U?$pair@QAVThread@ACE_Based@@PAVSqlResultQueue@@@std@@V?$allocator@U?$pair@QAVThread@ACE_Based@@PAVSqlResultQueue@@@std@@@2@@std@@@3@@std@@YAPAV?$_Iterator@$0A@@?$list@U?$pair@QAVThread@ACE_Based@@PAVSqlResultQueue@@@std@@V?$allocator@U?$pair@QAVThread@ACE_Based@@PAVSqlResultQueue@@@std@@@2@@0@PAV120@00AAV?$allocator@V?$_Iterator@$0A@@?$list@U?$pair@QAVThread@ACE_Based@@PAVSqlResultQueue@@@std@@V?$allocator@U?$pair@QAVThread@ACE_Based@@PAVSqlResultQueue@@@std@@@2@@std@@@0@U_Nonscalar_ptr_iterator_tag@0@U_Range_checked_iterator_tag@0@@Z 00400000 f   shared:SqlDelayThread.obj
 0001:fffff000       __unwindfunclet$??1?$_Hash@V?$_Hmap_traits@PAVThread@ACE_Based@@PAVSqlResultQueue@@V?$hash_compare@PAVThread@ACE_Based@@U?$less@PAVThread@ACE_Based@@@std@@@stdext@@V?$allocator@U?$pair@QAVThread@ACE_Based@@PAVSqlResultQueue@@@std@@@std@@$0A@@stdext@@@stdext@@QAE@XZ$0 00400000 f   RealmList.obj
 0001:fffff000       __ehhandler$?_Copy@?$_Hash@V?$_Hmap_traits@PAVThread@ACE_Based@@PAVSqlResultQueue@@V?$hash_compare@PAVThread@ACE_Based@@U?$less@PAVThread@ACE_Based@@@std@@@stdext@@V?$allocator@U?$pair@QAVThread@ACE_Based@@PAVSqlResultQueue@@@std@@@std@@$0A@@stdext@@@stdext@@IAEXABV12@@Z 00400000 f   shared:SqlDelayThread.obj
 0001:fffff000       __unwindfunclet$??1QueryNamedResult@@QAE@XZ$0 00400000 f   shared:SqlOperations.obj
 0001:fffff000       __unwindfunclet$??0?$_Hash@V?$_Hmap_traits@PAVThread@ACE_Based@@PAVSqlTransaction@@V?$hash_compare@PAVThread@ACE_Based@@U?$less@PAVThread@ACE_Based@@@std@@@stdext@@V?$allocator@U?$pair@QAVThread@ACE_Based@@PAVSqlTransaction@@@std@@@std@@$0A@@stdext@@@stdext@@QAE@ABV?$hash_compare@PAVThread@ACE_Based@@U?$less@PAVThread@ACE_Based@@@std@@@1@ABV?$allocator@U?$pair@QAVThread@ACE_Based@@PAVSqlTransaction@@@std@@@std@@@Z$0 00400000 f   shared:Database.obj
 0001:fffff000       __unwindfunclet$??0Database@@IAE@XZ$0 00400000 f   shared:SqlOperations.obj
 0001:fffff000       __ehhandler$?_Copy@?$_Hash@V?$_Hmap_traits@PAVThread@ACE_Based@@PAVSqlTransaction@@V?$hash_compare@PAVThread@ACE_Based@@U?$less@PAVThread@ACE_Based@@@std@@@stdext@@V?$allocator@U?$pair@QAVThread@ACE_Based@@PAVSqlTransaction@@@std@@@std@@$0A@@stdext@@@stdext@@IAEXABV12@@Z 00400000 f   shared:Database.obj
 0001:fffff000       __unwindfunclet$??0length_error@std@@QAE@ABV01@@Z$1 00400000 f   sockets:ResolvSocket.obj
 0001:fffff000       __unwindfunclet$??0?$_Hash@V?$_Hmap_traits@PAVThread@ACE_Based@@PAVSqlResultQueue@@V?$hash_compare@PAVThread@ACE_Based@@U?$less@PAVThread@ACE_Based@@@std@@@stdext@@V?$allocator@U?$pair@QAVThread@ACE_Based@@PAVSqlResultQueue@@@std@@@std@@$0A@@stdext@@@stdext@@QAE@ABV?$hash_compare@PAVThread@ACE_Based@@U?$less@PAVThread@ACE_Based@@@std@@@1@ABV?$allocator@U?$pair@QAVThread@ACE_Based@@PAVSqlResultQueue@@@std@@@std@@@Z$0 00400000 f   shared:SqlDelayThread.obj
 0001:fffff000       __unwindfunclet$??0?$_Hash@V?$_Hmap_traits@PAVThread@ACE_Based@@PAVSqlTransaction@@V?$hash_compare@PAVThread@ACE_Based@@U?$less@PAVThread@ACE_Based@@@std@@@stdext@@V?$allocator@U?$pair@QAVThread@ACE_Based@@PAVSqlTransaction@@@std@@@std@@$0A@@stdext@@@stdext@@QAE@ABV?$hash_compare@PAVThread@ACE_Based@@U?$less@PAVThread@ACE_Based@@@std@@@1@ABV?$allocator@U?$pair@QAVThread@ACE_Based@@PAVSqlTransaction@@@std@@@std@@@Z$0 00400000 f   RealmList.obj
 0001:fffff000       __unwindfunclet$??0Database@@QAE@ABV0@@Z$4 00400000 f   shared:SqlOperations.obj
 0001:fffff000       __unwindfunclet$??0?$list@U?$pair@QAVThread@ACE_Based@@PAVSqlTransaction@@@std@@V?$allocator@U?$pair@QAVThread@ACE_Based@@PAVSqlTransaction@@@std@@@2@@std@@QAE@ABV?$allocator@U?$pair@QAVThread@ACE_Based@@PAVSqlTransaction@@@std@@@1@@Z$0 00400000 f   shared:Database.obj
 0001:fffff000       __ehhandler$?_Copy@?$_Hash@V?$_Hmap_traits@PAVThread@ACE_Based@@PAVSqlTransaction@@V?$hash_compare@PAVThread@ACE_Based@@U?$less@PAVThread@ACE_Based@@@std@@@stdext@@V?$allocator@U?$pair@QAVThread@ACE_Based@@PAVSqlTransaction@@@std@@@std@@$0A@@stdext@@@stdext@@IAEXABV12@@Z 00400000 f   RealmList.obj
 0001:fffff000       __unwindfunclet$??0?$list@U?$pair@QAVThread@ACE_Based@@PAVSqlTransaction@@@std@@V?$allocator@U?$pair@QAVThread@ACE_Based@@PAVSqlTransaction@@@std@@@2@@std@@QAE@ABV?$allocator@U?$pair@QAVThread@ACE_Based@@PAVSqlTransaction@@@std@@@1@@Z$0 00400000 f   RealmList.obj
 0001:fffff000       __unwindfunclet$?add@?$LockedQueue@PAVSqlOperation@@VACE_Thread_Mutex@@V?$deque@PAVSqlOperation@@V?$allocator@PAVSqlOperation@@@std@@@std@@@ACE_Based@@QAEXABQAVSqlOperation@@@Z$0 00400000 f   shared:SqlOperations.obj
 0001:fffff000       __unwindfunclet$??1?$list@U?$pair@QAVThread@ACE_Based@@PAVSqlTransaction@@@std@@V?$allocator@U?$pair@QAVThread@ACE_Based@@PAVSqlTransaction@@@std@@@2@@std@@QAE@XZ$0 00400000 f   RealmList.obj
 0001:fffff000       __unwindfunclet$??0?$vector@V?$basic_string@DU?$char_traits@D@std@@V?$allocator@D@2@@std@@V?$allocator@V?$basic_string@DU?$char_traits@D@std@@V?$allocator@D@2@@std@@@2@@std@@QAE@ABV01@@Z$2 00400000 f   shared:SqlOperations.obj
 0001:fffff000       __unwindfunclet$??0?$vector@V?$_Iterator@$0A@@?$list@U?$pair@QAVThread@ACE_Based@@PAVSqlTransaction@@@std@@V?$allocator@U?$pair@QAVThread@ACE_Based@@PAVSqlTransaction@@@std@@@2@@std@@V?$allocator@V?$_Iterator@$0A@@?$list@U?$pair@QAVThread@ACE_Based@@PAVSqlTransaction@@@std@@V?$allocator@U?$pair@QAVThread@ACE_Based@@PAVSqlTransaction@@@std@@@2@@std@@@3@@std@@QAE@ABV?$allocator@V?$_Iterator@$0A@@?$list@U?$pair@QAVThread@ACE_Based@@PAVSqlTransaction@@@std@@V?$allocator@U?$pair@QAVThread@ACE_Based@@PAVSqlTransaction@@@std@@@2@@std@@@1@@Z$0 00400000 f   RealmList.obj
 0001:fffff000       __unwindfunclet$??1?$vector@V?$basic_string@DU?$char_traits@D@std@@V?$allocator@D@2@@std@@V?$allocator@V?$basic_string@DU?$char_traits@D@std@@V?$allocator@D@2@@std@@@2@@std@@QAE@XZ$0 00400000 f   shared:SqlOperations.obj
 0001:fffff000       __unwindfunclet$??1?$vector@V?$_Iterator@$0A@@?$list@U?$pair@QAVThread@ACE_Based@@PAVSqlTransaction@@@std@@V?$allocator@U?$pair@QAVThread@ACE_Based@@PAVSqlTransaction@@@std@@@2@@std@@V?$allocator@V?$_Iterator@$0A@@?$list@U?$pair@QAVThread@ACE_Based@@PAVSqlTransaction@@@std@@V?$allocator@U?$pair@QAVThread@ACE_Based@@PAVSqlTransaction@@@std@@@2@@std@@@3@@std@@QAE@XZ$0 00400000 f   RealmList.obj
 0001:fffff000       __unwindfunclet$??0logic_error@std@@QAE@ABV01@@Z$0 00400000 f   sockets:ResolvSocket.obj
 0001:fffff000       __unwindfunclet$??0logic_error@std@@QAE@ABV?$basic_string@DU?$char_traits@D@std@@V?$allocator@D@2@@1@@Z$0 00400000 f   sockets:ResolvSocket.obj
 0001:fffff000       __unwindfunclet$??1?$_Hash@V?$_Hmap_traits@PAVThread@ACE_Based@@PAVSqlTransaction@@V?$hash_compare@PAVThread@ACE_Based@@U?$less@PAVThread@ACE_Based@@@std@@@stdext@@V?$allocator@U?$pair@QAVThread@ACE_Based@@PAVSqlTransaction@@@std@@@std@@$0A@@stdext@@@stdext@@QAE@XZ$0 00400000 f   shared:SqlOperations.obj
 0001:fffff000       __unwindfunclet$??0?$_Hash@V?$_Hmap_traits@PAVThread@ACE_Based@@PAVSqlResultQueue@@V?$hash_compare@PAVThread@ACE_Based@@U?$less@PAVThread@ACE_Based@@@std@@@stdext@@V?$allocator@U?$pair@QAVThread@ACE_Based@@PAVSqlResultQueue@@@std@@@std@@$0A@@stdext@@@stdext@@QAE@ABV?$hash_compare@PAVThread@ACE_Based@@U?$less@PAVThread@ACE_Based@@@std@@@1@ABV?$allocator@U?$pair@QAVThread@ACE_Based@@PAVSqlResultQueue@@@std@@@std@@@Z$0 00400000 f   RealmList.obj
 0001:fffff000       __unwindfunclet$??1?$_Hash@V?$_Hmap_traits@PAVThread@ACE_Based@@PAVSqlResultQueue@@V?$hash_compare@PAVThread@ACE_Based@@U?$less@PAVThread@ACE_Based@@@std@@@stdext@@V?$allocator@U?$pair@QAVThread@ACE_Based@@PAVSqlResultQueue@@@std@@@std@@$0A@@stdext@@@stdext@@QAE@XZ$0 00400000 f   shared:SqlOperations.obj
 0001:fffff000       __unwindfunclet$??0?$_Hash@V?$_Hmap_traits@PAVThread@ACE_Based@@PAVSqlTransaction@@V?$hash_compare@PAVThread@ACE_Based@@U?$less@PAVThread@ACE_Based@@@std@@@stdext@@V?$allocator@U?$pair@QAVThread@ACE_Based@@PAVSqlTransaction@@@std@@@std@@$0A@@stdext@@@stdext@@QAE@ABV?$hash_compare@PAVThread@ACE_Based@@U?$less@PAVThread@ACE_Based@@@std@@@1@ABV?$allocator@U?$pair@QAVThread@ACE_Based@@PAVSqlTransaction@@@std@@@std@@@Z$0 00400000 f   shared:SqlOperations.obj
 0001:fffff000       __ehhandler$?_Copy@?$_Hash@V?$_Hmap_traits@PAVThread@ACE_Based@@PAVSqlResultQueue@@V?$hash_compare@PAVThread@ACE_Based@@U?$less@PAVThread@ACE_Based@@@std@@@stdext@@V?$allocator@U?$pair@QAVThread@ACE_Based@@PAVSqlResultQueue@@@std@@@std@@$0A@@stdext@@@stdext@@IAEXABV12@@Z 00400000 f   RealmList.obj
 0001:fffff000       __unwindfunclet$??0?$list@U?$pair@QAVThread@ACE_Based@@PAVSqlResultQueue@@@std@@V?$allocator@U?$pair@QAVThread@ACE_Based@@PAVSqlResultQueue@@@std@@@2@@std@@QAE@ABV?$allocator@U?$pair@QAVThread@ACE_Based@@PAVSqlResultQueue@@@std@@@1@@Z$0 00400000 f   RealmList.obj
 0001:fffff000       __ehhandler$?_Copy@?$_Hash@V?$_Hmap_traits@PAVThread@ACE_Based@@PAVSqlTransaction@@V?$hash_compare@PAVThread@ACE_Based@@U?$less@PAVThread@ACE_Based@@@std@@@stdext@@V?$allocator@U?$pair@QAVThread@ACE_Based@@PAVSqlTransaction@@@std@@@std@@$0A@@stdext@@@stdext@@IAEXABV12@@Z 00400000 f   shared:SqlOperations.obj
 0001:fffff000       __unwindfunclet$??1?$list@U?$pair@QAVThread@ACE_Based@@PAVSqlResultQueue@@@std@@V?$allocator@U?$pair@QAVThread@ACE_Based@@PAVSqlResultQueue@@@std@@@2@@std@@QAE@XZ$0 00400000 f   RealmList.obj
 0001:fffff000       __unwindfunclet$??0?$list@U?$pair@QAVThread@ACE_Based@@PAVSqlTransaction@@@std@@V?$allocator@U?$pair@QAVThread@ACE_Based@@PAVSqlTransaction@@@std@@@2@@std@@QAE@ABV?$allocator@U?$pair@QAVThread@ACE_Based@@PAVSqlTransaction@@@std@@@1@@Z$0 00400000 f   shared:SqlOperations.obj
 0001:fffff000       __unwindfunclet$??0?$vector@V?$_Iterator@$0A@@?$list@U?$pair@QAVThread@ACE_Based@@PAVSqlResultQueue@@@std@@V?$allocator@U?$pair@QAVThread@ACE_Based@@PAVSqlResultQueue@@@std@@@2@@std@@V?$allocator@V?$_Iterator@$0A@@?$list@U?$pair@QAVThread@ACE_Based@@PAVSqlResultQueue@@@std@@V?$allocator@U?$pair@QAVThread@ACE_Based@@PAVSqlResultQueue@@@std@@@2@@std@@@3@@std@@QAE@ABV?$allocator@V?$_Iterator@$0A@@?$list@U?$pair@QAVThread@ACE_Based@@PAVSqlResultQueue@@@std@@V?$allocator@U?$pair@QAVThread@ACE_Based@@PAVSqlResultQueue@@@std@@@2@@std@@@1@@Z$0 00400000 f   RealmList.obj
 0001:fffff000       __unwindfunclet$??1?$list@U?$pair@QAVThread@ACE_Based@@PAVSqlTransaction@@@std@@V?$allocator@U?$pair@QAVThread@ACE_Based@@PAVSqlTransaction@@@std@@@2@@std@@QAE@XZ$0 00400000 f   shared:SqlOperations.obj
 0001:fffff000       __unwindfunclet$??1?$vector@V?$_Iterator@$0A@@?$list@U?$pair@QAVThread@ACE_Based@@PAVSqlResultQueue@@@std@@V?$allocator@U?$pair@QAVThread@ACE_Based@@PAVSqlResultQueue@@@std@@@2@@std@@V?$allocator@V?$_Iterator@$0A@@?$list@U?$pair@QAVThread@ACE_Based@@PAVSqlResultQueue@@@std@@V?$allocator@U?$pair@QAVThread@ACE_Based@@PAVSqlResultQueue@@@std@@@2@@std@@@3@@std@@QAE@XZ$0 00400000 f   RealmList.obj
 0001:fffff000       __unwindfunclet$??0?$vector@V?$_Iterator@$0A@@?$list@U?$pair@QAVThread@ACE_Based@@PAVSqlTransaction@@@std@@V?$allocator@U?$pair@QAVThread@ACE_Based@@PAVSqlTransaction@@@std@@@2@@std@@V?$allocator@V?$_Iterator@$0A@@?$list@U?$pair@QAVThread@ACE_Based@@PAVSqlTransaction@@@std@@V?$allocator@U?$pair@QAVThread@ACE_Based@@PAVSqlTransaction@@@std@@@2@@std@@@3@@std@@QAE@ABV?$allocator@V?$_Iterator@$0A@@?$list@U?$pair@QAVThread@ACE_Based@@PAVSqlTransaction@@@std@@V?$allocator@U?$pair@QAVThread@ACE_Based@@PAVSqlTransaction@@@std@@@2@@std@@@1@@Z$0 00400000 f   shared:SqlOperations.obj
 0001:fffff000       __unwindfunclet$??1?$list@U?$pair@QAVThread@ACE_Based@@PAVSqlTransaction@@@std@@V?$allocator@U?$pair@QAVThread@ACE_Based@@PAVSqlTransaction@@@std@@@2@@std@@QAE@XZ$0 00400000 f   shared:Database.obj
 0001:fffff000       __unwindfunclet$??1?$vector@V?$_Iterator@$0A@@?$list@U?$pair@QAVThread@ACE_Based@@PAVSqlTransaction@@@std@@V?$allocator@U?$pair@QAVThread@ACE_Based@@PAVSqlTransaction@@@std@@@2@@std@@V?$allocator@V?$_Iterator@$0A@@?$list@U?$pair@QAVThread@ACE_Based@@PAVSqlTransaction@@@std@@V?$allocator@U?$pair@QAVThread@ACE_Based@@PAVSqlTransaction@@@std@@@2@@std@@@3@@std@@QAE@XZ$0 00400000 f   shared:SqlOperations.obj
 0001:fffff000       __unwindfunclet$??0logic_error@std@@QAE@ABV?$basic_string@DU?$char_traits@D@std@@V?$allocator@D@2@@1@@Z$0 00400000 f   RealmList.obj
 0001:fffff000       __unwindfunclet$??0?$_Hash@V?$_Hmap_traits@PAVThread@ACE_Based@@PAVSqlResultQueue@@V?$hash_compare@PAVThread@ACE_Based@@U?$less@PAVThread@ACE_Based@@@std@@@stdext@@V?$allocator@U?$pair@QAVThread@ACE_Based@@PAVSqlResultQueue@@@std@@@std@@$0A@@stdext@@@stdext@@QAE@ABV?$hash_compare@PAVThread@ACE_Based@@U?$less@PAVThread@ACE_Based@@@std@@@1@ABV?$allocator@U?$pair@QAVThread@ACE_Based@@PAVSqlResultQueue@@@std@@@std@@@Z$0 00400000 f   shared:SqlOperations.obj
 0001:fffff000       __unwindfunclet$??0logic_error@std@@QAE@ABV01@@Z$0 00400000 f   RealmList.obj
 0001:fffff000       __unwindfunclet$??1?$vector@V?$_Iterator@$0A@@?$list@U?$pair@QAVThread@ACE_Based@@PAVSqlTransaction@@@std@@V?$allocator@U?$pair@QAVThread@ACE_Based@@PAVSqlTransaction@@@std@@@2@@std@@V?$allocator@V?$_Iterator@$0A@@?$list@U?$pair@QAVThread@ACE_Based@@PAVSqlTransaction@@@std@@V?$allocator@U?$pair@QAVThread@ACE_Based@@PAVSqlTransaction@@@std@@@2@@std@@@3@@std@@QAE@XZ$0 00400000 f   shared:SqlDelayThread.obj
 0001:fffff000       __ehhandler$?_Copy@?$_Hash@V?$_Hmap_traits@PAVThread@ACE_Based@@PAVSqlResultQueue@@V?$hash_compare@PAVThread@ACE_Based@@U?$less@PAVThread@ACE_Based@@@std@@@stdext@@V?$allocator@U?$pair@QAVThread@ACE_Based@@PAVSqlResultQueue@@@std@@@std@@$0A@@stdext@@@stdext@@IAEXABV12@@Z 00400000 f   shared:SqlOperations.obj
 0001:fffff000       __unwindfunclet$?_Xlen@?$vector@V?$basic_string@DU?$char_traits@D@std@@V?$allocator@D@2@@std@@V?$allocator@V?$basic_string@DU?$char_traits@D@std@@V?$allocator@D@2@@std@@@2@@std@@KAXXZ$0 00400000 f   RealmList.obj
 0001:fffff000       __unwindfunclet$??0?$list@U?$pair@QAVThread@ACE_Based@@PAVSqlResultQueue@@@std@@V?$allocator@U?$pair@QAVThread@ACE_Based@@PAVSqlResultQueue@@@std@@@2@@std@@QAE@ABV?$allocator@U?$pair@QAVThread@ACE_Based@@PAVSqlResultQueue@@@std@@@1@@Z$0 00400000 f   shared:SqlOperations.obj
 0001:fffff000       __unwindfunclet$??0Database@@QAE@ABV0@@Z$4 00400000 f   shared:Database.obj
 0001:fffff000       __ehhandler$?_Buynode@?$list@U?$pair@QAVThread@ACE_Based@@PAVSqlTransaction@@@std@@V?$allocator@U?$pair@QAVThread@ACE_Based@@PAVSqlTransaction@@@std@@@2@@std@@IAEPAU_Node@?$_List_nod@U?$pair@QAVThread@ACE_Based@@PAVSqlTransaction@@@std@@V?$allocator@U?$pair@QAVThread@ACE_Based@@PAVSqlTransaction@@@std@@@2@@2@XZ 00400000 f   RealmList.obj
 0001:fffff000       __unwindfunclet$??1?$list@U?$pair@QAVThread@ACE_Based@@PAVSqlResultQueue@@@std@@V?$allocator@U?$pair@QAVThread@ACE_Based@@PAVSqlResultQueue@@@std@@@2@@std@@QAE@XZ$0 00400000 f   shared:SqlOperations.obj
 0001:fffff000       __ehhandler$?_Buynode@?$list@U?$pair@QAVThread@ACE_Based@@PAVSqlResultQueue@@@std@@V?$allocator@U?$pair@QAVThread@ACE_Based@@PAVSqlResultQueue@@@std@@@2@@std@@IAEPAU_Node@?$_List_nod@U?$pair@QAVThread@ACE_Based@@PAVSqlResultQueue@@@std@@V?$allocator@U?$pair@QAVThread@ACE_Based@@PAVSqlResultQueue@@@std@@@2@@2@XZ 00400000 f   RealmList.obj
 0001:fffff000       __unwindfunclet$??0length_error@std@@QAE@ABV01@@Z$1 00400000 f   RealmList.obj
 0001:fffff000       __unwindfunclet$??0?$vector@V?$_Iterator@$0A@@?$list@U?$pair@QAVThread@ACE_Based@@PAVSqlResultQueue@@@std@@V?$allocator@U?$pair@QAVThread@ACE_Based@@PAVSqlResultQueue@@@std@@@2@@std@@V?$allocator@V?$_Iterator@$0A@@?$list@U?$pair@QAVThread@ACE_Based@@PAVSqlResultQueue@@@std@@V?$allocator@U?$pair@QAVThread@ACE_Based@@PAVSqlResultQueue@@@std@@@2@@std@@@3@@std@@QAE@ABV?$allocator@V?$_Iterator@$0A@@?$list@U?$pair@QAVThread@ACE_Based@@PAVSqlResultQueue@@@std@@V?$allocator@U?$pair@QAVThread@ACE_Based@@PAVSqlResultQueue@@@std@@@2@@std@@@1@@Z$0 00400000 f   shared:SqlOperations.obj
 0001:fffff000       __unwindfunclet$??1?$vector@V?$_Iterator@$0A@@?$list@U?$pair@QAVThread@ACE_Based@@PAVSqlResultQueue@@@std@@V?$allocator@U?$pair@QAVThread@ACE_Based@@PAVSqlResultQueue@@@std@@@2@@std@@V?$allocator@V?$_Iterator@$0A@@?$list@U?$pair@QAVThread@ACE_Based@@PAVSqlResultQueue@@@std@@V?$allocator@U?$pair@QAVThread@ACE_Based@@PAVSqlResultQueue@@@std@@@2@@std@@@3@@std@@QAE@XZ$0 00400000 f   shared:SqlOperations.obj
 0001:fffff000       __unwindfunclet$??0?$vector@V?$_Iterator@$0A@@?$list@U?$pair@QAVThread@ACE_Based@@PAVSqlTransaction@@@std@@V?$allocator@U?$pair@QAVThread@ACE_Based@@PAVSqlTransaction@@@std@@@2@@std@@V?$allocator@V?$_Iterator@$0A@@?$list@U?$pair@QAVThread@ACE_Based@@PAVSqlTransaction@@@std@@V?$allocator@U?$pair@QAVThread@ACE_Based@@PAVSqlTransaction@@@std@@@2@@std@@@3@@std@@QAE@ABV?$allocator@V?$_Iterator@$0A@@?$list@U?$pair@QAVThread@ACE_Based@@PAVSqlTransaction@@@std@@V?$allocator@U?$pair@QAVThread@ACE_Based@@PAVSqlTransaction@@@std@@@2@@std@@@1@@Z$0 00400000 f   shared:SqlDelayThread.obj
 0001:fffff000       __unwindfunclet$??0logic_error@std@@QAE@ABV01@@Z$0 00400000 f   shared:SqlOperations.obj
 0001:fffff000       __unwindfunclet$?_Xlen@?$vector@V?$basic_string@DU?$char_traits@D@std@@V?$allocator@D@2@@std@@V?$allocator@V?$basic_string@DU?$char_traits@D@std@@V?$allocator@D@2@@std@@@2@@std@@KAXXZ$0 00400000 f   shared:SqlOperations.obj
 0001:fffff000       __ehhandler$?_Buynode@?$list@U?$pair@QAVThread@ACE_Based@@PAVSqlTransaction@@@std@@V?$allocator@U?$pair@QAVThread@ACE_Based@@PAVSqlTransaction@@@std@@@2@@std@@IAEPAU_Node@?$_List_nod@U?$pair@QAVThread@ACE_Based@@PAVSqlTransaction@@@std@@V?$allocator@U?$pair@QAVThread@ACE_Based@@PAVSqlTransaction@@@std@@@2@@2@XZ 00400000 f   shared:SqlOperations.obj
 0001:fffff000       __unwindfunclet$??0Database@@IAE@XZ$0 00400000 f   shared:Database.obj
 0001:fffff000       __unwindfunclet$??1?$list@U?$pair@QAVThread@ACE_Based@@PAVSqlTransaction@@@std@@V?$allocator@U?$pair@QAVThread@ACE_Based@@PAVSqlTransaction@@@std@@@2@@std@@QAE@XZ$0 00400000 f   shared:SqlDelayThread.obj
 0001:fffff000       __ehhandler$?_Buynode@?$list@U?$pair@QAVThread@ACE_Based@@PAVSqlResultQueue@@@std@@V?$allocator@U?$pair@QAVThread@ACE_Based@@PAVSqlResultQueue@@@std@@@2@@std@@IAEPAU_Node@?$_List_nod@U?$pair@QAVThread@ACE_Based@@PAVSqlResultQueue@@@std@@V?$allocator@U?$pair@QAVThread@ACE_Based@@PAVSqlResultQueue@@@std@@@2@@2@XZ 00400000 f   shared:SqlOperations.obj
 0001:fffff000       __ehhandler$?_Insert_n@?$vector@V?$_Iterator@$0A@@?$list@U?$pair@QAVThread@ACE_Based@@PAVSqlTransaction@@@std@@V?$allocator@U?$pair@QAVThread@ACE_Based@@PAVSqlTransaction@@@std@@@2@@std@@V?$allocator@V?$_Iterator@$0A@@?$list@U?$pair@QAVThread@ACE_Based@@PAVSqlTransaction@@@std@@V?$allocator@U?$pair@QAVThread@ACE_Based@@PAVSqlTransaction@@@std@@@2@@std@@@3@@std@@IAEXV?$_Vector_const_iterator@V?$_Iterator@$0A@@?$list@U?$pair@QAVThread@ACE_Based@@PAVSqlTransaction@@@std@@V?$allocator@U?$pair@QAVThread@ACE_Based@@PAVSqlTransaction@@@std@@@2@@std@@V?$allocator@V?$_Iterator@$0A@@?$list@U?$pair@QAVThread@ACE_Based@@PAVSqlTransaction@@@std@@V?$allocator@U?$pair@QAVThread@ACE_Based@@PAVSqlTransaction@@@std@@@2@@std@@@3@@2@IABV?$_Iterator@$0A@@?$list@U?$pair@QAVThread@ACE_Based@@PAVSqlTransaction@@@std@@V?$allocator@U?$pair@QAVThread@ACE_Based@@PAVSqlTransaction@@@std@@@2@@2@@Z 00400000 f   RealmList.obj
 0001:fffff000       __unwindfunclet$??0length_error@std@@QAE@ABV01@@Z$1 00400000 f   shared:SqlOperations.obj
 0001:fffff000       __unwindfunclet$?_Xlen@?$vector@V?$_Iterator@$0A@@?$list@U?$pair@QAVThread@ACE_Based@@PAVSqlTransaction@@@std@@V?$allocator@U?$pair@QAVThread@ACE_Based@@PAVSqlTransaction@@@std@@@2@@std@@V?$allocator@V?$_Iterator@$0A@@?$list@U?$pair@QAVThread@ACE_Based@@PAVSqlTransaction@@@std@@V?$allocator@U?$pair@QAVThread@ACE_Based@@PAVSqlTransaction@@@std@@@2@@std@@@3@@std@@KAXXZ$0 00400000 f   RealmList.obj
 0001:fffff000       __unwindfunclet$?_Xlen@?$deque@PAVSqlOperation@@V?$allocator@PAVSqlOperation@@@std@@@std@@KAXXZ$0 00400000 f   shared:SqlOperations.obj
 0001:fffff000       __unwindfunclet$??1QueryNamedResult@@QAE@XZ$0 00400000 f   shared:Database.obj
 0001:fffff000       __unwindfunclet$??0?$list@U?$pair@QAVThread@ACE_Based@@PAVSqlTransaction@@@std@@V?$allocator@U?$pair@QAVThread@ACE_Based@@PAVSqlTransaction@@@std@@@2@@std@@QAE@ABV?$allocator@U?$pair@QAVThread@ACE_Based@@PAVSqlTransaction@@@std@@@1@@Z$0 00400000 f   shared:SqlDelayThread.obj
 0001:fffff000       __ehhandler$?_Insert_n@?$vector@V?$_Iterator@$0A@@?$list@U?$pair@QAVThread@ACE_Based@@PAVSqlResultQueue@@@std@@V?$allocator@U?$pair@QAVThread@ACE_Based@@PAVSqlResultQueue@@@std@@@2@@std@@V?$allocator@V?$_Iterator@$0A@@?$list@U?$pair@QAVThread@ACE_Based@@PAVSqlResultQueue@@@std@@V?$allocator@U?$pair@QAVThread@ACE_Based@@PAVSqlResultQueue@@@std@@@2@@std@@@3@@std@@IAEXV?$_Vector_const_iterator@V?$_Iterator@$0A@@?$list@U?$pair@QAVThread@ACE_Based@@PAVSqlResultQueue@@@std@@V?$allocator@U?$pair@QAVThread@ACE_Based@@PAVSqlResultQueue@@@std@@@2@@std@@V?$allocator@V?$_Iterator@$0A@@?$list@U?$pair@QAVThread@ACE_Based@@PAVSqlResultQueue@@@std@@V?$allocator@U?$pair@QAVThread@ACE_Based@@PAVSqlResultQueue@@@std@@@2@@std@@@3@@2@IABV?$_Iterator@$0A@@?$list@U?$pair@QAVThread@ACE_Based@@PAVSqlResultQueue@@@std@@V?$allocator@U?$pair@QAVThread@ACE_Based@@PAVSqlResultQueue@@@std@@@2@@2@@Z 00400000 f   RealmList.obj
 0001:fffff000       __ehhandler$?_Insert_n@?$vector@V?$_Iterator@$0A@@?$list@U?$pair@QAVThread@ACE_Based@@PAVSqlTransaction@@@std@@V?$allocator@U?$pair@QAVThread@ACE_Based@@PAVSqlTransaction@@@std@@@2@@std@@V?$allocator@V?$_Iterator@$0A@@?$list@U?$pair@QAVThread@ACE_Based@@PAVSqlTransaction@@@std@@V?$allocator@U?$pair@QAVThread@ACE_Based@@PAVSqlTransaction@@@std@@@2@@std@@@3@@std@@IAEXV?$_Vector_const_iterator@V?$_Iterator@$0A@@?$list@U?$pair@QAVThread@ACE_Based@@PAVSqlTransaction@@@std@@V?$allocator@U?$pair@QAVThread@ACE_Based@@PAVSqlTransaction@@@std@@@2@@std@@V?$allocator@V?$_Iterator@$0A@@?$list@U?$pair@QAVThread@ACE_Based@@PAVSqlTransaction@@@std@@V?$allocator@U?$pair@QAVThread@ACE_Based@@PAVSqlTransaction@@@std@@@2@@std@@@3@@2@IABV?$_Iterator@$0A@@?$list@U?$pair@QAVThread@ACE_Based@@PAVSqlTransaction@@@std@@V?$allocator@U?$pair@QAVThread@ACE_Based@@PAVSqlTransaction@@@std@@@2@@2@@Z 00400000 f   shared:SqlOperations.obj
 0001:fffff000       __unwindfunclet$?_Xlen@?$vector@V?$_Iterator@$0A@@?$list@U?$pair@QAVThread@ACE_Based@@PAVSqlResultQueue@@@std@@V?$allocator@U?$pair@QAVThread@ACE_Based@@PAVSqlResultQueue@@@std@@@2@@std@@V?$allocator@V?$_Iterator@$0A@@?$list@U?$pair@QAVThread@ACE_Based@@PAVSqlResultQueue@@@std@@V?$allocator@U?$pair@QAVThread@ACE_Based@@PAVSqlResultQueue@@@std@@@2@@std@@@3@@std@@KAXXZ$0 00400000 f   RealmList.obj
 0001:fffff000       __unwindfunclet$?_Xlen@?$vector@V?$_Iterator@$0A@@?$list@U?$pair@QAVThread@ACE_Based@@PAVSqlTransaction@@@std@@V?$allocator@U?$pair@QAVThread@ACE_Based@@PAVSqlTransaction@@@std@@@2@@std@@V?$allocator@V?$_Iterator@$0A@@?$list@U?$pair@QAVThread@ACE_Based@@PAVSqlTransaction@@@std@@V?$allocator@U?$pair@QAVThread@ACE_Based@@PAVSqlTransaction@@@std@@@2@@std@@@3@@std@@KAXXZ$0 00400000 f   shared:SqlOperations.obj
 0001:fffff000       __ehhandler$?_Copy@?$_Hash@V?$_Hmap_traits@PAVThread@ACE_Based@@PAVSqlTransaction@@V?$hash_compare@PAVThread@ACE_Based@@U?$less@PAVThread@ACE_Based@@@std@@@stdext@@V?$allocator@U?$pair@QAVThread@ACE_Based@@PAVSqlTransaction@@@std@@@std@@$0A@@stdext@@@stdext@@IAEXABV12@@Z 00400000 f   shared:SqlDelayThread.obj
 0001:fffff000       __unwindfunclet$??0?$vector@V?$_Iterator@$0A@@?$list@U?$pair@QAVThread@ACE_Based@@PAVSqlTransaction@@@std@@V?$allocator@U?$pair@QAVThread@ACE_Based@@PAVSqlTransaction@@@std@@@2@@std@@V?$allocator@V?$_Iterator@$0A@@?$list@U?$pair@QAVThread@ACE_Based@@PAVSqlTransaction@@@std@@V?$allocator@U?$pair@QAVThread@ACE_Based@@PAVSqlTransaction@@@std@@@2@@std@@@3@@std@@QAE@ABV?$allocator@V?$_Iterator@$0A@@?$list@U?$pair@QAVThread@ACE_Based@@PAVSqlTransaction@@@std@@V?$allocator@U?$pair@QAVThread@ACE_Based@@PAVSqlTransaction@@@std@@@2@@std@@@1@@Z$0 00400000 f   shared:Database.obj
 0001:fffff000       __ehhandler$?_Insert_n@?$vector@V?$_Iterator@$0A@@?$list@U?$pair@QAVThread@ACE_Based@@PAVSqlResultQueue@@@std@@V?$allocator@U?$pair@QAVThread@ACE_Based@@PAVSqlResultQueue@@@std@@@2@@std@@V?$allocator@V?$_Iterator@$0A@@?$list@U?$pair@QAVThread@ACE_Based@@PAVSqlResultQueue@@@std@@V?$allocator@U?$pair@QAVThread@ACE_Based@@PAVSqlResultQueue@@@std@@@2@@std@@@3@@std@@IAEXV?$_Vector_const_iterator@V?$_Iterator@$0A@@?$list@U?$pair@QAVThread@ACE_Based@@PAVSqlResultQueue@@@std@@V?$allocator@U?$pair@QAVThread@ACE_Based@@PAVSqlResultQueue@@@std@@@2@@std@@V?$allocator@V?$_Iterator@$0A@@?$list@U?$pair@QAVThread@ACE_Based@@PAVSqlResultQueue@@@std@@V?$allocator@U?$pair@QAVThread@ACE_Based@@PAVSqlResultQueue@@@std@@@2@@std@@@3@@2@IABV?$_Iterator@$0A@@?$list@U?$pair@QAVThread@ACE_Based@@PAVSqlResultQueue@@@std@@V?$allocator@U?$pair@QAVThread@ACE_Based@@PAVSqlResultQueue@@@std@@@2@@2@@Z 00400000 f   shared:SqlOperations.obj
 0001:fffff000       __unwindfunclet$??1?$vector@V?$_Iterator@$0A@@?$list@U?$pair@QAVThread@ACE_Based@@PAVSqlTransaction@@@std@@V?$allocator@U?$pair@QAVThread@ACE_Based@@PAVSqlTransaction@@@std@@@2@@std@@V?$allocator@V?$_Iterator@$0A@@?$list@U?$pair@QAVThread@ACE_Based@@PAVSqlTransaction@@@std@@V?$allocator@U?$pair@QAVThread@ACE_Based@@PAVSqlTransaction@@@std@@@2@@std@@@3@@std@@QAE@XZ$0 00400000 f   shared:Database.obj
 0001:fffff000       __unwindfunclet$?_Xlen@?$vector@V?$_Iterator@$0A@@?$list@U?$pair@QAVThread@ACE_Based@@PAVSqlResultQueue@@@std@@V?$allocator@U?$pair@QAVThread@ACE_Based@@PAVSqlResultQueue@@@std@@@2@@std@@V?$allocator@V?$_Iterator@$0A@@?$list@U?$pair@QAVThread@ACE_Based@@PAVSqlResultQueue@@@std@@V?$allocator@U?$pair@QAVThread@ACE_Based@@PAVSqlResultQueue@@@std@@@2@@std@@@3@@std@@KAXXZ$0 00400000 f   shared:SqlOperations.obj
 0001:fffff000       __ehhandler$??$_Insert@V?$_Const_iterator@$0A@@?$list@U?$pair@QAVThread@ACE_Based@@PAVSqlTransaction@@@std@@V?$allocator@U?$pair@QAVThread@ACE_Based@@PAVSqlTransaction@@@std@@@2@@std@@@?$list@U?$pair@QAVThread@ACE_Based@@PAVSqlTransaction@@@std@@V?$allocator@U?$pair@QAVThread@ACE_Based@@PAVSqlTransaction@@@std@@@2@@std@@QAEXV?$_Const_iterator@$0A@@01@00Uforward_iterator_tag@1@@Z 00400000 f   shared:SqlOperations.obj
 0001:fffff000       __ehhandler$??$_Insert@V?$_Const_iterator@$0A@@?$list@U?$pair@QAVThread@ACE_Based@@PAVSqlResultQueue@@@std@@V?$allocator@U?$pair@QAVThread@ACE_Based@@PAVSqlResultQueue@@@std@@@2@@std@@@?$list@U?$pair@QAVThread@ACE_Based@@PAVSqlResultQueue@@@std@@V?$allocator@U?$pair@QAVThread@ACE_Based@@PAVSqlResultQueue@@@std@@@2@@std@@QAEXV?$_Const_iterator@$0A@@01@00Uforward_iterator_tag@1@@Z 00400000 f   shared:SqlOperations.obj
 0001:fffff000       __unwindfunclet$??0?$_Hash@V?$_Hmap_traits@PAVThread@ACE_Based@@PAVSqlResultQueue@@V?$hash_compare@PAVThread@ACE_Based@@U?$less@PAVThread@ACE_Based@@@std@@@stdext@@V?$allocator@U?$pair@QAVThread@ACE_Based@@PAVSqlResultQueue@@@std@@@std@@$0A@@stdext@@@stdext@@QAE@ABV?$hash_compare@PAVThread@ACE_Based@@U?$less@PAVThread@ACE_Based@@@std@@@1@ABV?$allocator@U?$pair@QAVThread@ACE_Based@@PAVSqlResultQueue@@@std@@@std@@@Z$0 00400000 f   shared:Database.obj
 0001:fffff000       __unwindfunclet$??$_Destroy@U_Node@?$_Tree_nod@V?$_Tmap_traits@V?$basic_string@DU?$char_traits@D@std@@V?$allocator@D@2@@std@@URealm@@U?$less@V?$basic_string@DU?$char_traits@D@std@@V?$allocator@D@2@@std@@@2@V?$allocator@U?$pair@$$CBV?$basic_string@DU?$char_traits@D@std@@V?$allocator@D@2@@std@@URealm@@@std@@@2@$0A@@std@@@std@@@std@@YAXPAU_Node@?$_Tree_nod@V?$_Tmap_traits@V?$basic_string@DU?$char_traits@D@std@@V?$allocator@D@2@@std@@URealm@@U?$less@V?$basic_string@DU?$char_traits@D@std@@V?$allocator@D@2@@std@@@2@V?$allocator@U?$pair@$$CBV?$basic_string@DU?$char_traits@D@std@@V?$allocator@D@2@@std@@URealm@@@std@@@2@$0A@@std@@@0@@Z$1 00400000 f   RealmList.obj
 0001:fffff000       __unwindfunclet$??0?$_Hash@V?$_Hmap_traits@PAVThread@ACE_Based@@PAVSqlTransaction@@V?$hash_compare@PAVThread@ACE_Based@@U?$less@PAVThread@ACE_Based@@@std@@@stdext@@V?$allocator@U?$pair@QAVThread@ACE_Based@@PAVSqlTransaction@@@std@@@std@@$0A@@stdext@@@stdext@@QAE@ABV?$hash_compare@PAVThread@ACE_Based@@U?$less@PAVThread@ACE_Based@@@std@@@1@ABV?$allocator@U?$pair@QAVThread@ACE_Based@@PAVSqlTransaction@@@std@@@std@@@Z$0 00400000 f   shared:SqlDelayThread.obj
 0001:fffff000       __ehhandler$??$_Uninit_fill_n@PAV?$_Iterator@$0A@@?$list@U?$pair@QAVThread@ACE_Based@@PAVSqlTransaction@@@std@@V?$allocator@U?$pair@QAVThread@ACE_Based@@PAVSqlTransaction@@@std@@@2@@std@@IV123@V?$allocator@V?$_Iterator@$0A@@?$list@U?$pair@QAVThread@ACE_Based@@PAVSqlTransaction@@@std@@V?$allocator@U?$pair@QAVThread@ACE_Based@@PAVSqlTransaction@@@std@@@2@@std@@@3@@std@@YAXPAV?$_Iterator@$0A@@?$list@U?$pair@QAVThread@ACE_Based@@PAVSqlTransaction@@@std@@V?$allocator@U?$pair@QAVThread@ACE_Based@@PAVSqlTransaction@@@std@@@2@@0@IABV120@AAV?$allocator@V?$_Iterator@$0A@@?$list@U?$pair@QAVThread@ACE_Based@@PAVSqlTransaction@@@std@@V?$allocator@U?$pair@QAVThread@ACE_Based@@PAVSqlTransaction@@@std@@@2@@std@@@0@U_Nonscalar_ptr_iterator_tag@0@U_Range_checked_iterator_tag@0@@Z 00400000 f   shared:SqlOperations.obj
 0001:fffff000       __ehhandler$?_Copy@?$_Hash@V?$_Hmap_traits@PAVThread@ACE_Based@@PAVSqlResultQueue@@V?$hash_compare@PAVThread@ACE_Based@@U?$less@PAVThread@ACE_Based@@@std@@@stdext@@V?$allocator@U?$pair@QAVThread@ACE_Based@@PAVSqlResultQueue@@@std@@@std@@$0A@@stdext@@@stdext@@IAEXABV12@@Z 00400000 f   shared:Database.obj
 0001:fffff000       __unwindfunclet$??0?$list@U?$pair@QAVThread@ACE_Based@@PAVSqlResultQueue@@@std@@V?$allocator@U?$pair@QAVThread@ACE_Based@@PAVSqlResultQueue@@@std@@@2@@std@@QAE@ABV?$allocator@U?$pair@QAVThread@ACE_Based@@PAVSqlResultQueue@@@std@@@1@@Z$0 00400000 f   shared:Database.obj
 0001:fffff000       __ehhandler$??$_Uninit_fill_n@PAV?$_Iterator@$0A@@?$list@U?$pair@QAVThread@ACE_Based@@PAVSqlResultQueue@@@std@@V?$allocator@U?$pair@QAVThread@ACE_Based@@PAVSqlResultQueue@@@std@@@2@@std@@IV123@V?$allocator@V?$_Iterator@$0A@@?$list@U?$pair@QAVThread@ACE_Based@@PAVSqlResultQueue@@@std@@V?$allocator@U?$pair@QAVThread@ACE_Based@@PAVSqlResultQueue@@@std@@@2@@std@@@3@@std@@YAXPAV?$_Iterator@$0A@@?$list@U?$pair@QAVThread@ACE_Based@@PAVSqlResultQueue@@@std@@V?$allocator@U?$pair@QAVThread@ACE_Based@@PAVSqlResultQueue@@@std@@@2@@0@IABV120@AAV?$allocator@V?$_Iterator@$0A@@?$list@U?$pair@QAVThread@ACE_Based@@PAVSqlResultQueue@@@std@@V?$allocator@U?$pair@QAVThread@ACE_Based@@PAVSqlResultQueue@@@std@@@2@@std@@@0@U_Nonscalar_ptr_iterator_tag@0@U_Range_checked_iterator_tag@0@@Z 00400000 f   shared:SqlOperations.obj
 0001:fffff000       __unwindfunclet$?erase@?$_Tree@V?$_Tmap_traits@V?$basic_string@DU?$char_traits@D@std@@V?$allocator@D@2@@std@@URealm@@U?$less@V?$basic_string@DU?$char_traits@D@std@@V?$allocator@D@2@@std@@@2@V?$allocator@U?$pair@$$CBV?$basic_string@DU?$char_traits@D@std@@V?$allocator@D@2@@std@@URealm@@@std@@@2@$0A@@std@@@std@@QAE?AViterator@12@Vconst_iterator@12@@Z$0 00400000 f   RealmList.obj
 0001:fffff000       __ehhandler$?_Buynode@?$list@U?$pair@QAVThread@ACE_Based@@PAVSqlTransaction@@@std@@V?$allocator@U?$pair@QAVThread@ACE_Based@@PAVSqlTransaction@@@std@@@2@@std@@IAEPAU_Node@?$_List_nod@U?$pair@QAVThread@ACE_Based@@PAVSqlTransaction@@@std@@V?$allocator@U?$pair@QAVThread@ACE_Based@@PAVSqlTransaction@@@std@@@2@@2@PAU342@0ABU?$pair@QAVThread@ACE_Based@@PAVSqlTransaction@@@2@@Z 00400000 f   shared:SqlOperations.obj
 0001:fffff000       __unwindfunclet$??0out_of_range@std@@QAE@ABV01@@Z$1 00400000 f   RealmList.obj
 0001:fffff000       __unwindfunclet$?_Incsize@?$list@U?$pair@QAVThread@ACE_Based@@PAVSqlTransaction@@@std@@V?$allocator@U?$pair@QAVThread@ACE_Based@@PAVSqlTransaction@@@std@@@2@@std@@IAEXI@Z$0 00400000 f   shared:SqlOperations.obj
 0001:fffff000       __unwindfunclet$??1?$list@U?$pair@QAVThread@ACE_Based@@PAVSqlResultQueue@@@std@@V?$allocator@U?$pair@QAVThread@ACE_Based@@PAVSqlResultQueue@@@std@@@2@@std@@QAE@XZ$0 00400000 f   shared:Database.obj
